
main.elf:     file format elf32-littlearm


Disassembly of section .text:

00000000 <_stext>:
       0:	20001ffc 	strdcs	r1, [r0], -ip
       4:	00000199 	muleq	r0, r9, r1
	...

00000198 <reset_handler>:
    .type reset_handler, %function
reset_handler:
    //mov r1, #1
    //mov r2, #2
    //add r3, r1, r2
    b start
     198:	e014      	b.n	1c4 <start>
    b .
     19a:	e7fe      	b.n	19a <reset_handler+0x2>

0000019c <vTask1>:

#include "FreeRTOS.h"
#include "task.h"

//define 2 tasks as calling vTaskStartScheduler(); is not enough
static void vTask1(void *pvParameters){
     19c:	b480      	push	{r7}
     19e:	b085      	sub	sp, #20
     1a0:	af00      	add	r7, sp, #0
     1a2:	6078      	str	r0, [r7, #4]
    volatile int a = 0;
     1a4:	2300      	movs	r3, #0
     1a6:	60fb      	str	r3, [r7, #12]
    while(1){
        a++;
     1a8:	68fb      	ldr	r3, [r7, #12]
     1aa:	3301      	adds	r3, #1
     1ac:	60fb      	str	r3, [r7, #12]
     1ae:	e7fb      	b.n	1a8 <vTask1+0xc>

000001b0 <vTask2>:
    }
}
static void vTask2(void *pvParameters){
     1b0:	b480      	push	{r7}
     1b2:	b085      	sub	sp, #20
     1b4:	af00      	add	r7, sp, #0
     1b6:	6078      	str	r0, [r7, #4]
    volatile int b = 0;
     1b8:	2300      	movs	r3, #0
     1ba:	60fb      	str	r3, [r7, #12]
    while(1){
        b++;
     1bc:	68fb      	ldr	r3, [r7, #12]
     1be:	3301      	adds	r3, #1
     1c0:	60fb      	str	r3, [r7, #12]
     1c2:	e7fb      	b.n	1bc <vTask2+0xc>

000001c4 <start>:
extern uint32_t _edata; // end of .data in RAM
extern uint32_t _sidata; // start of .data in flash
extern uint32_t _sbss; // start of .bss
extern uint32_t _ebss; // end of .bss

void start(){//<<=== 1. jumping here from boot.S reset_handler: is fine but jumping to function sachin() gives HardFault crash.
     1c4:	b580      	push	{r7, lr}
     1c6:	b086      	sub	sp, #24
     1c8:	af02      	add	r7, sp, #8
    //sachin();
    BaseType_t xReturn;
    // initialize .data section copy from flash to ram
    uint32_t *src = &_sidata; // source(flash)
     1ca:	4b1d      	ldr	r3, [pc, #116]	@ (240 <start+0x7c>)
     1cc:	60fb      	str	r3, [r7, #12]
    uint32_t *dst = &_sdata; // Destination RAM
     1ce:	4b1d      	ldr	r3, [pc, #116]	@ (244 <start+0x80>)
     1d0:	60bb      	str	r3, [r7, #8]
    while(dst < &_edata){
     1d2:	e007      	b.n	1e4 <start+0x20>
        *dst++ = *src++; // copy word and increment pointer
     1d4:	68fa      	ldr	r2, [r7, #12]
     1d6:	1d13      	adds	r3, r2, #4
     1d8:	60fb      	str	r3, [r7, #12]
     1da:	68bb      	ldr	r3, [r7, #8]
     1dc:	1d19      	adds	r1, r3, #4
     1de:	60b9      	str	r1, [r7, #8]
     1e0:	6812      	ldr	r2, [r2, #0]
     1e2:	601a      	str	r2, [r3, #0]
    while(dst < &_edata){
     1e4:	68bb      	ldr	r3, [r7, #8]
     1e6:	4a18      	ldr	r2, [pc, #96]	@ (248 <start+0x84>)
     1e8:	4293      	cmp	r3, r2
     1ea:	d3f3      	bcc.n	1d4 <start+0x10>
    }

    //initialize .bss section (zero out)
    dst = &_sbss;
     1ec:	4b17      	ldr	r3, [pc, #92]	@ (24c <start+0x88>)
     1ee:	60bb      	str	r3, [r7, #8]
    while(dst < &_ebss){
     1f0:	e004      	b.n	1fc <start+0x38>
        *dst++ = 0; // zero word and increment pointer
     1f2:	68bb      	ldr	r3, [r7, #8]
     1f4:	1d1a      	adds	r2, r3, #4
     1f6:	60ba      	str	r2, [r7, #8]
     1f8:	2200      	movs	r2, #0
     1fa:	601a      	str	r2, [r3, #0]
    while(dst < &_ebss){
     1fc:	68bb      	ldr	r3, [r7, #8]
     1fe:	4a14      	ldr	r2, [pc, #80]	@ (250 <start+0x8c>)
     200:	4293      	cmp	r3, r2
     202:	d3f6      	bcc.n	1f2 <start+0x2e>
    }


    xReturn = xTaskCreate(vTask1, "T1",configMINIMAL_STACK_SIZE,NULL,1,NULL);//
     204:	2300      	movs	r3, #0
     206:	9301      	str	r3, [sp, #4]
     208:	2301      	movs	r3, #1
     20a:	9300      	str	r3, [sp, #0]
     20c:	2300      	movs	r3, #0
     20e:	f44f 7280 	mov.w	r2, #256	@ 0x100
     212:	4910      	ldr	r1, [pc, #64]	@ (254 <start+0x90>)
     214:	4810      	ldr	r0, [pc, #64]	@ (258 <start+0x94>)
     216:	f000 f861 	bl	2dc <xTaskCreate>
     21a:	6078      	str	r0, [r7, #4]
    xReturn = xTaskCreate(vTask2, "T2",configMINIMAL_STACK_SIZE,NULL,1,NULL);//getting xReturn as -1 debug and foumd memory allocation was failing , few global variables were not holding changed values from heap_4.c files ..... => because .data section is nod defined in .ld script, only .text section is there.
     21c:	2300      	movs	r3, #0
     21e:	9301      	str	r3, [sp, #4]
     220:	2301      	movs	r3, #1
     222:	9300      	str	r3, [sp, #0]
     224:	2300      	movs	r3, #0
     226:	f44f 7280 	mov.w	r2, #256	@ 0x100
     22a:	490c      	ldr	r1, [pc, #48]	@ (25c <start+0x98>)
     22c:	480c      	ldr	r0, [pc, #48]	@ (260 <start+0x9c>)
     22e:	f000 f855 	bl	2dc <xTaskCreate>
     232:	6078      	str	r0, [r7, #4]

    vTaskStartScheduler();// if only this call then cpu lockup nothing to execute so does hardfault.
     234:	f000 f9c4 	bl	5c0 <vTaskStartScheduler>
    return;
     238:	bf00      	nop
}
     23a:	3710      	adds	r7, #16
     23c:	46bd      	mov	sp, r7
     23e:	bd80      	pop	{r7, pc}
     240:	20000000 	andcs	r0, r0, r0
     244:	0000244c 	andeq	r2, r0, ip, asr #8
     248:	00002450 	andeq	r2, r0, r0, asr r4
     24c:	20000004 	andcs	r0, r0, r4
     250:	200010f8 	strdcs	r1, [r0], -r8
     254:	00002434 	andeq	r2, r0, r4, lsr r4
     258:	0000019d 	muleq	r0, sp, r1
     25c:	00002438 	andeq	r2, r0, r8, lsr r4
     260:	000001b1 			@ <UNDEFINED> instruction: 0x000001b1

00000264 <prvCreateTask>:
                                  const char * const pcName,
                                  const configSTACK_DEPTH_TYPE uxStackDepth,
                                  void * const pvParameters,
                                  UBaseType_t uxPriority,
                                  TaskHandle_t * const pxCreatedTask )
    {
     264:	b580      	push	{r7, lr}
     266:	b08a      	sub	sp, #40	@ 0x28
     268:	af04      	add	r7, sp, #16
     26a:	60f8      	str	r0, [r7, #12]
     26c:	60b9      	str	r1, [r7, #8]
     26e:	607a      	str	r2, [r7, #4]
     270:	603b      	str	r3, [r7, #0]

            /* Allocate space for the stack used by the task being created. */
            /* MISRA Ref 11.5.1 [Malloc memory assignment] */
            /* More details at: https://github.com/FreeRTOS/FreeRTOS-Kernel/blob/main/MISRA.md#rule-115 */
            /* coverity[misra_c_2012_rule_11_5_violation] */
            pxStack = pvPortMallocStack( ( ( ( size_t ) uxStackDepth ) * sizeof( StackType_t ) ) );
     272:	687b      	ldr	r3, [r7, #4]
     274:	009b      	lsls	r3, r3, #2
     276:	4618      	mov	r0, r3
     278:	f001 fc6a 	bl	1b50 <pvPortMalloc>
     27c:	6138      	str	r0, [r7, #16]

            if( pxStack != NULL )
     27e:	693b      	ldr	r3, [r7, #16]
     280:	2b00      	cmp	r3, #0
     282:	d013      	beq.n	2ac <prvCreateTask+0x48>
            {
                /* Allocate space for the TCB. */
                /* MISRA Ref 11.5.1 [Malloc memory assignment] */
                /* More details at: https://github.com/FreeRTOS/FreeRTOS-Kernel/blob/main/MISRA.md#rule-115 */
                /* coverity[misra_c_2012_rule_11_5_violation] */
                pxNewTCB = ( TCB_t * ) pvPortMalloc( sizeof( TCB_t ) );
     284:	204c      	movs	r0, #76	@ 0x4c
     286:	f001 fc63 	bl	1b50 <pvPortMalloc>
     28a:	6178      	str	r0, [r7, #20]

                if( pxNewTCB != NULL )
     28c:	697b      	ldr	r3, [r7, #20]
     28e:	2b00      	cmp	r3, #0
     290:	d008      	beq.n	2a4 <prvCreateTask+0x40>
                {
                    ( void ) memset( ( void * ) pxNewTCB, 0x00, sizeof( TCB_t ) );
     292:	224c      	movs	r2, #76	@ 0x4c
     294:	2100      	movs	r1, #0
     296:	6978      	ldr	r0, [r7, #20]
     298:	f001 fece 	bl	2038 <memset>

                    /* Store the stack location in the TCB. */
                    pxNewTCB->pxStack = pxStack;
     29c:	697b      	ldr	r3, [r7, #20]
     29e:	693a      	ldr	r2, [r7, #16]
     2a0:	631a      	str	r2, [r3, #48]	@ 0x30
     2a2:	e005      	b.n	2b0 <prvCreateTask+0x4c>
                }
                else
                {
                    /* The stack cannot be used as the TCB was not created.  Free
                     * it again. */
                    vPortFreeStack( pxStack );
     2a4:	6938      	ldr	r0, [r7, #16]
     2a6:	f001 fd05 	bl	1cb4 <vPortFree>
     2aa:	e001      	b.n	2b0 <prvCreateTask+0x4c>
                }
            }
            else
            {
                pxNewTCB = NULL;
     2ac:	2300      	movs	r3, #0
     2ae:	617b      	str	r3, [r7, #20]
            }
        }
        #endif /* portSTACK_GROWTH */

        if( pxNewTCB != NULL )
     2b0:	697b      	ldr	r3, [r7, #20]
     2b2:	2b00      	cmp	r3, #0
     2b4:	d00d      	beq.n	2d2 <prvCreateTask+0x6e>
                 * task was created dynamically in case it is later deleted. */
                pxNewTCB->ucStaticallyAllocated = tskDYNAMICALLY_ALLOCATED_STACK_AND_TCB;
            }
            #endif /* tskSTATIC_AND_DYNAMIC_ALLOCATION_POSSIBLE */

            prvInitialiseNewTask( pxTaskCode, pcName, uxStackDepth, pvParameters, uxPriority, pxCreatedTask, pxNewTCB, NULL );
     2b6:	2300      	movs	r3, #0
     2b8:	9303      	str	r3, [sp, #12]
     2ba:	697b      	ldr	r3, [r7, #20]
     2bc:	9302      	str	r3, [sp, #8]
     2be:	6a7b      	ldr	r3, [r7, #36]	@ 0x24
     2c0:	9301      	str	r3, [sp, #4]
     2c2:	6a3b      	ldr	r3, [r7, #32]
     2c4:	9300      	str	r3, [sp, #0]
     2c6:	683b      	ldr	r3, [r7, #0]
     2c8:	687a      	ldr	r2, [r7, #4]
     2ca:	68b9      	ldr	r1, [r7, #8]
     2cc:	68f8      	ldr	r0, [r7, #12]
     2ce:	f000 f828 	bl	322 <prvInitialiseNewTask>
        }

        return pxNewTCB;
     2d2:	697b      	ldr	r3, [r7, #20]
    }
     2d4:	4618      	mov	r0, r3
     2d6:	3718      	adds	r7, #24
     2d8:	46bd      	mov	sp, r7
     2da:	bd80      	pop	{r7, pc}

000002dc <xTaskCreate>:
                            const char * const pcName,
                            const configSTACK_DEPTH_TYPE uxStackDepth,
                            void * const pvParameters,
                            UBaseType_t uxPriority,
                            TaskHandle_t * const pxCreatedTask )
    {
     2dc:	b580      	push	{r7, lr}
     2de:	b088      	sub	sp, #32
     2e0:	af02      	add	r7, sp, #8
     2e2:	60f8      	str	r0, [r7, #12]
     2e4:	60b9      	str	r1, [r7, #8]
     2e6:	607a      	str	r2, [r7, #4]
     2e8:	603b      	str	r3, [r7, #0]
        TCB_t * pxNewTCB;
        BaseType_t xReturn;

        traceENTER_xTaskCreate( pxTaskCode, pcName, uxStackDepth, pvParameters, uxPriority, pxCreatedTask );

        pxNewTCB = prvCreateTask( pxTaskCode, pcName, uxStackDepth, pvParameters, uxPriority, pxCreatedTask );
     2ea:	6a7b      	ldr	r3, [r7, #36]	@ 0x24
     2ec:	9301      	str	r3, [sp, #4]
     2ee:	6a3b      	ldr	r3, [r7, #32]
     2f0:	9300      	str	r3, [sp, #0]
     2f2:	683b      	ldr	r3, [r7, #0]
     2f4:	687a      	ldr	r2, [r7, #4]
     2f6:	68b9      	ldr	r1, [r7, #8]
     2f8:	68f8      	ldr	r0, [r7, #12]
     2fa:	f7ff ffb3 	bl	264 <prvCreateTask>
     2fe:	6138      	str	r0, [r7, #16]

        if( pxNewTCB != NULL )
     300:	693b      	ldr	r3, [r7, #16]
     302:	2b00      	cmp	r3, #0
     304:	d005      	beq.n	312 <xTaskCreate+0x36>
                /* Set the task's affinity before scheduling it. */
                pxNewTCB->uxCoreAffinityMask = configTASK_DEFAULT_CORE_AFFINITY;
            }
            #endif

            prvAddNewTaskToReadyList( pxNewTCB );
     306:	6938      	ldr	r0, [r7, #16]
     308:	f000 f870 	bl	3ec <prvAddNewTaskToReadyList>
            xReturn = pdPASS;
     30c:	2301      	movs	r3, #1
     30e:	617b      	str	r3, [r7, #20]
     310:	e002      	b.n	318 <xTaskCreate+0x3c>
        }
        else
        {
            xReturn = errCOULD_NOT_ALLOCATE_REQUIRED_MEMORY;
     312:	f04f 33ff 	mov.w	r3, #4294967295	@ 0xffffffff
     316:	617b      	str	r3, [r7, #20]
        }

        traceRETURN_xTaskCreate( xReturn );

        return xReturn;
     318:	697b      	ldr	r3, [r7, #20]
    }
     31a:	4618      	mov	r0, r3
     31c:	3718      	adds	r7, #24
     31e:	46bd      	mov	sp, r7
     320:	bd80      	pop	{r7, pc}

00000322 <prvInitialiseNewTask>:
                                  void * const pvParameters,
                                  UBaseType_t uxPriority,
                                  TaskHandle_t * const pxCreatedTask,
                                  TCB_t * pxNewTCB,
                                  const MemoryRegion_t * const xRegions )
{
     322:	b580      	push	{r7, lr}
     324:	b086      	sub	sp, #24
     326:	af00      	add	r7, sp, #0
     328:	60f8      	str	r0, [r7, #12]
     32a:	60b9      	str	r1, [r7, #8]
     32c:	607a      	str	r2, [r7, #4]
     32e:	603b      	str	r3, [r7, #0]
     * grows from high memory to low (as per the 80x86) or vice versa.
     * portSTACK_GROWTH is used to make the result positive or negative as required
     * by the port. */
    #if ( portSTACK_GROWTH < 0 )
    {
        pxTopOfStack = &( pxNewTCB->pxStack[ uxStackDepth - ( configSTACK_DEPTH_TYPE ) 1 ] );
     330:	6abb      	ldr	r3, [r7, #40]	@ 0x28
     332:	6b1a      	ldr	r2, [r3, #48]	@ 0x30
     334:	687b      	ldr	r3, [r7, #4]
     336:	f103 4380 	add.w	r3, r3, #1073741824	@ 0x40000000
     33a:	3b01      	subs	r3, #1
     33c:	009b      	lsls	r3, r3, #2
     33e:	4413      	add	r3, r2
     340:	613b      	str	r3, [r7, #16]
        pxTopOfStack = ( StackType_t * ) ( ( ( portPOINTER_SIZE_TYPE ) pxTopOfStack ) & ( ~( ( portPOINTER_SIZE_TYPE ) portBYTE_ALIGNMENT_MASK ) ) );
     342:	693b      	ldr	r3, [r7, #16]
     344:	f023 0307 	bic.w	r3, r3, #7
     348:	613b      	str	r3, [r7, #16]
        pxNewTCB->pxEndOfStack = pxNewTCB->pxStack + ( uxStackDepth - ( configSTACK_DEPTH_TYPE ) 1 );
    }
    #endif /* portSTACK_GROWTH */

    /* Store the task name in the TCB. */
    if( pcName != NULL )
     34a:	68bb      	ldr	r3, [r7, #8]
     34c:	2b00      	cmp	r3, #0
     34e:	d01e      	beq.n	38e <prvInitialiseNewTask+0x6c>
    {
        for( x = ( UBaseType_t ) 0; x < ( UBaseType_t ) configMAX_TASK_NAME_LEN; x++ )
     350:	2300      	movs	r3, #0
     352:	617b      	str	r3, [r7, #20]
     354:	e012      	b.n	37c <prvInitialiseNewTask+0x5a>
        {
            pxNewTCB->pcTaskName[ x ] = pcName[ x ];
     356:	68ba      	ldr	r2, [r7, #8]
     358:	697b      	ldr	r3, [r7, #20]
     35a:	4413      	add	r3, r2
     35c:	7819      	ldrb	r1, [r3, #0]
     35e:	6aba      	ldr	r2, [r7, #40]	@ 0x28
     360:	697b      	ldr	r3, [r7, #20]
     362:	4413      	add	r3, r2
     364:	3334      	adds	r3, #52	@ 0x34
     366:	460a      	mov	r2, r1
     368:	701a      	strb	r2, [r3, #0]

            /* Don't copy all configMAX_TASK_NAME_LEN if the string is shorter than
             * configMAX_TASK_NAME_LEN characters just in case the memory after the
             * string is not accessible (extremely unlikely). */
            if( pcName[ x ] == ( char ) 0x00 )
     36a:	68ba      	ldr	r2, [r7, #8]
     36c:	697b      	ldr	r3, [r7, #20]
     36e:	4413      	add	r3, r2
     370:	781b      	ldrb	r3, [r3, #0]
     372:	2b00      	cmp	r3, #0
     374:	d006      	beq.n	384 <prvInitialiseNewTask+0x62>
        for( x = ( UBaseType_t ) 0; x < ( UBaseType_t ) configMAX_TASK_NAME_LEN; x++ )
     376:	697b      	ldr	r3, [r7, #20]
     378:	3301      	adds	r3, #1
     37a:	617b      	str	r3, [r7, #20]
     37c:	697b      	ldr	r3, [r7, #20]
     37e:	2b0f      	cmp	r3, #15
     380:	d9e9      	bls.n	356 <prvInitialiseNewTask+0x34>
     382:	e000      	b.n	386 <prvInitialiseNewTask+0x64>
            {
                break;
     384:	bf00      	nop
            }
        }

        /* Ensure the name string is terminated in the case that the string length
         * was greater or equal to configMAX_TASK_NAME_LEN. */
        pxNewTCB->pcTaskName[ configMAX_TASK_NAME_LEN - 1U ] = '\0';
     386:	6abb      	ldr	r3, [r7, #40]	@ 0x28
     388:	2200      	movs	r2, #0
     38a:	f883 2043 	strb.w	r2, [r3, #67]	@ 0x43
    }

    /* This is used as an array index so must ensure it's not too large. */
    configASSERT( uxPriority < configMAX_PRIORITIES );

    if( uxPriority >= ( UBaseType_t ) configMAX_PRIORITIES )
     38e:	6a3b      	ldr	r3, [r7, #32]
     390:	2b04      	cmp	r3, #4
     392:	d901      	bls.n	398 <prvInitialiseNewTask+0x76>
    {
        uxPriority = ( UBaseType_t ) configMAX_PRIORITIES - ( UBaseType_t ) 1U;
     394:	2304      	movs	r3, #4
     396:	623b      	str	r3, [r7, #32]
    else
    {
        mtCOVERAGE_TEST_MARKER();
    }

    pxNewTCB->uxPriority = uxPriority;
     398:	6abb      	ldr	r3, [r7, #40]	@ 0x28
     39a:	6a3a      	ldr	r2, [r7, #32]
     39c:	62da      	str	r2, [r3, #44]	@ 0x2c
    {
        pxNewTCB->uxBasePriority = uxPriority;
    }
    #endif /* configUSE_MUTEXES */

    vListInitialiseItem( &( pxNewTCB->xStateListItem ) );
     39e:	6abb      	ldr	r3, [r7, #40]	@ 0x28
     3a0:	3304      	adds	r3, #4
     3a2:	4618      	mov	r0, r3
     3a4:	f001 ffb5 	bl	2312 <vListInitialiseItem>
    vListInitialiseItem( &( pxNewTCB->xEventListItem ) );
     3a8:	6abb      	ldr	r3, [r7, #40]	@ 0x28
     3aa:	3318      	adds	r3, #24
     3ac:	4618      	mov	r0, r3
     3ae:	f001 ffb0 	bl	2312 <vListInitialiseItem>

    /* Set the pxNewTCB as a link back from the ListItem_t.  This is so we can get
     * back to  the containing TCB from a generic item in a list. */
    listSET_LIST_ITEM_OWNER( &( pxNewTCB->xStateListItem ), pxNewTCB );
     3b2:	6abb      	ldr	r3, [r7, #40]	@ 0x28
     3b4:	6aba      	ldr	r2, [r7, #40]	@ 0x28
     3b6:	611a      	str	r2, [r3, #16]

    /* Event lists are always in priority order. */
    listSET_LIST_ITEM_VALUE( &( pxNewTCB->xEventListItem ), ( TickType_t ) configMAX_PRIORITIES - ( TickType_t ) uxPriority );
     3b8:	6a3b      	ldr	r3, [r7, #32]
     3ba:	f1c3 0205 	rsb	r2, r3, #5
     3be:	6abb      	ldr	r3, [r7, #40]	@ 0x28
     3c0:	619a      	str	r2, [r3, #24]
    listSET_LIST_ITEM_OWNER( &( pxNewTCB->xEventListItem ), pxNewTCB );
     3c2:	6abb      	ldr	r3, [r7, #40]	@ 0x28
     3c4:	6aba      	ldr	r2, [r7, #40]	@ 0x28
     3c6:	625a      	str	r2, [r3, #36]	@ 0x24
            }
            #endif /* portSTACK_GROWTH */
        }
        #else /* portHAS_STACK_OVERFLOW_CHECKING */
        {
            pxNewTCB->pxTopOfStack = pxPortInitialiseStack( pxTopOfStack, pxTaskCode, pvParameters );
     3c8:	683a      	ldr	r2, [r7, #0]
     3ca:	68f9      	ldr	r1, [r7, #12]
     3cc:	6938      	ldr	r0, [r7, #16]
     3ce:	f001 fe51 	bl	2074 <pxPortInitialiseStack>
     3d2:	4602      	mov	r2, r0
     3d4:	6abb      	ldr	r3, [r7, #40]	@ 0x28
     3d6:	601a      	str	r2, [r3, #0]
            pxNewTCB->uxTaskAttributes |= taskATTRIBUTE_IS_IDLE;
        }
    }
    #endif /* #if ( configNUMBER_OF_CORES > 1 ) */

    if( pxCreatedTask != NULL )
     3d8:	6a7b      	ldr	r3, [r7, #36]	@ 0x24
     3da:	2b00      	cmp	r3, #0
     3dc:	d002      	beq.n	3e4 <prvInitialiseNewTask+0xc2>
    {
        /* Pass the handle out in an anonymous way.  The handle can be used to
         * change the created task's priority, delete the created task, etc.*/
        *pxCreatedTask = ( TaskHandle_t ) pxNewTCB;
     3de:	6a7b      	ldr	r3, [r7, #36]	@ 0x24
     3e0:	6aba      	ldr	r2, [r7, #40]	@ 0x28
     3e2:	601a      	str	r2, [r3, #0]
    }
    else
    {
        mtCOVERAGE_TEST_MARKER();
    }
}
     3e4:	bf00      	nop
     3e6:	3718      	adds	r7, #24
     3e8:	46bd      	mov	sp, r7
     3ea:	bd80      	pop	{r7, pc}

000003ec <prvAddNewTaskToReadyList>:
/*-----------------------------------------------------------*/

#if ( configNUMBER_OF_CORES == 1 )

    static void prvAddNewTaskToReadyList( TCB_t * pxNewTCB )
    {
     3ec:	b580      	push	{r7, lr}
     3ee:	b084      	sub	sp, #16
     3f0:	af00      	add	r7, sp, #0
     3f2:	6078      	str	r0, [r7, #4]
        /* Ensure interrupts don't access the task lists while the lists are being
         * updated. */
        taskENTER_CRITICAL();
     3f4:	f001 feda 	bl	21ac <vPortEnterCritical>
        {
            uxCurrentNumberOfTasks = ( UBaseType_t ) ( uxCurrentNumberOfTasks + 1U );
     3f8:	4b3f      	ldr	r3, [pc, #252]	@ (4f8 <prvAddNewTaskToReadyList+0x10c>)
     3fa:	681b      	ldr	r3, [r3, #0]
     3fc:	3301      	adds	r3, #1
     3fe:	4a3e      	ldr	r2, [pc, #248]	@ (4f8 <prvAddNewTaskToReadyList+0x10c>)
     400:	6013      	str	r3, [r2, #0]

            if( pxCurrentTCB == NULL )
     402:	4b3e      	ldr	r3, [pc, #248]	@ (4fc <prvAddNewTaskToReadyList+0x110>)
     404:	681b      	ldr	r3, [r3, #0]
     406:	2b00      	cmp	r3, #0
     408:	d109      	bne.n	41e <prvAddNewTaskToReadyList+0x32>
            {
                /* There are no other tasks, or all the other tasks are in
                 * the suspended state - make this the current task. */
                pxCurrentTCB = pxNewTCB;
     40a:	4a3c      	ldr	r2, [pc, #240]	@ (4fc <prvAddNewTaskToReadyList+0x110>)
     40c:	687b      	ldr	r3, [r7, #4]
     40e:	6013      	str	r3, [r2, #0]

                if( uxCurrentNumberOfTasks == ( UBaseType_t ) 1 )
     410:	4b39      	ldr	r3, [pc, #228]	@ (4f8 <prvAddNewTaskToReadyList+0x10c>)
     412:	681b      	ldr	r3, [r3, #0]
     414:	2b01      	cmp	r3, #1
     416:	d110      	bne.n	43a <prvAddNewTaskToReadyList+0x4e>
                {
                    /* This is the first task to be created so do the preliminary
                     * initialisation required.  We will not recover if this call
                     * fails, but we will report the failure. */
                    prvInitialiseTaskLists();
     418:	f000 fe12 	bl	1040 <prvInitialiseTaskLists>
     41c:	e00d      	b.n	43a <prvAddNewTaskToReadyList+0x4e>
            else
            {
                /* If the scheduler is not already running, make this task the
                 * current task if it is the highest priority task to be created
                 * so far. */
                if( xSchedulerRunning == pdFALSE )
     41e:	4b38      	ldr	r3, [pc, #224]	@ (500 <prvAddNewTaskToReadyList+0x114>)
     420:	681b      	ldr	r3, [r3, #0]
     422:	2b00      	cmp	r3, #0
     424:	d109      	bne.n	43a <prvAddNewTaskToReadyList+0x4e>
                {
                    if( pxCurrentTCB->uxPriority <= pxNewTCB->uxPriority )
     426:	4b35      	ldr	r3, [pc, #212]	@ (4fc <prvAddNewTaskToReadyList+0x110>)
     428:	681b      	ldr	r3, [r3, #0]
     42a:	6ada      	ldr	r2, [r3, #44]	@ 0x2c
     42c:	687b      	ldr	r3, [r7, #4]
     42e:	6adb      	ldr	r3, [r3, #44]	@ 0x2c
     430:	429a      	cmp	r2, r3
     432:	d802      	bhi.n	43a <prvAddNewTaskToReadyList+0x4e>
                    {
                        pxCurrentTCB = pxNewTCB;
     434:	4a31      	ldr	r2, [pc, #196]	@ (4fc <prvAddNewTaskToReadyList+0x110>)
     436:	687b      	ldr	r3, [r7, #4]
     438:	6013      	str	r3, [r2, #0]
                {
                    mtCOVERAGE_TEST_MARKER();
                }
            }

            uxTaskNumber++;
     43a:	4b32      	ldr	r3, [pc, #200]	@ (504 <prvAddNewTaskToReadyList+0x118>)
     43c:	681b      	ldr	r3, [r3, #0]
     43e:	3301      	adds	r3, #1
     440:	4a30      	ldr	r2, [pc, #192]	@ (504 <prvAddNewTaskToReadyList+0x118>)
     442:	6013      	str	r3, [r2, #0]
                pxNewTCB->uxTCBNumber = uxTaskNumber;
            }
            #endif /* configUSE_TRACE_FACILITY */
            traceTASK_CREATE( pxNewTCB );

            prvAddTaskToReadyList( pxNewTCB );
     444:	687b      	ldr	r3, [r7, #4]
     446:	6adb      	ldr	r3, [r3, #44]	@ 0x2c
     448:	2201      	movs	r2, #1
     44a:	409a      	lsls	r2, r3
     44c:	4b2e      	ldr	r3, [pc, #184]	@ (508 <prvAddNewTaskToReadyList+0x11c>)
     44e:	681b      	ldr	r3, [r3, #0]
     450:	4313      	orrs	r3, r2
     452:	4a2d      	ldr	r2, [pc, #180]	@ (508 <prvAddNewTaskToReadyList+0x11c>)
     454:	6013      	str	r3, [r2, #0]
     456:	687b      	ldr	r3, [r7, #4]
     458:	6ada      	ldr	r2, [r3, #44]	@ 0x2c
     45a:	492c      	ldr	r1, [pc, #176]	@ (50c <prvAddNewTaskToReadyList+0x120>)
     45c:	4613      	mov	r3, r2
     45e:	009b      	lsls	r3, r3, #2
     460:	4413      	add	r3, r2
     462:	009b      	lsls	r3, r3, #2
     464:	440b      	add	r3, r1
     466:	3304      	adds	r3, #4
     468:	681b      	ldr	r3, [r3, #0]
     46a:	60fb      	str	r3, [r7, #12]
     46c:	687b      	ldr	r3, [r7, #4]
     46e:	68fa      	ldr	r2, [r7, #12]
     470:	609a      	str	r2, [r3, #8]
     472:	68fb      	ldr	r3, [r7, #12]
     474:	689a      	ldr	r2, [r3, #8]
     476:	687b      	ldr	r3, [r7, #4]
     478:	60da      	str	r2, [r3, #12]
     47a:	68fb      	ldr	r3, [r7, #12]
     47c:	689b      	ldr	r3, [r3, #8]
     47e:	687a      	ldr	r2, [r7, #4]
     480:	3204      	adds	r2, #4
     482:	605a      	str	r2, [r3, #4]
     484:	687b      	ldr	r3, [r7, #4]
     486:	1d1a      	adds	r2, r3, #4
     488:	68fb      	ldr	r3, [r7, #12]
     48a:	609a      	str	r2, [r3, #8]
     48c:	687b      	ldr	r3, [r7, #4]
     48e:	6ada      	ldr	r2, [r3, #44]	@ 0x2c
     490:	4613      	mov	r3, r2
     492:	009b      	lsls	r3, r3, #2
     494:	4413      	add	r3, r2
     496:	009b      	lsls	r3, r3, #2
     498:	4a1c      	ldr	r2, [pc, #112]	@ (50c <prvAddNewTaskToReadyList+0x120>)
     49a:	441a      	add	r2, r3
     49c:	687b      	ldr	r3, [r7, #4]
     49e:	615a      	str	r2, [r3, #20]
     4a0:	687b      	ldr	r3, [r7, #4]
     4a2:	6ada      	ldr	r2, [r3, #44]	@ 0x2c
     4a4:	4919      	ldr	r1, [pc, #100]	@ (50c <prvAddNewTaskToReadyList+0x120>)
     4a6:	4613      	mov	r3, r2
     4a8:	009b      	lsls	r3, r3, #2
     4aa:	4413      	add	r3, r2
     4ac:	009b      	lsls	r3, r3, #2
     4ae:	440b      	add	r3, r1
     4b0:	681b      	ldr	r3, [r3, #0]
     4b2:	687a      	ldr	r2, [r7, #4]
     4b4:	6ad2      	ldr	r2, [r2, #44]	@ 0x2c
     4b6:	1c59      	adds	r1, r3, #1
     4b8:	4814      	ldr	r0, [pc, #80]	@ (50c <prvAddNewTaskToReadyList+0x120>)
     4ba:	4613      	mov	r3, r2
     4bc:	009b      	lsls	r3, r3, #2
     4be:	4413      	add	r3, r2
     4c0:	009b      	lsls	r3, r3, #2
     4c2:	4403      	add	r3, r0
     4c4:	6019      	str	r1, [r3, #0]

            portSETUP_TCB( pxNewTCB );
        }
        taskEXIT_CRITICAL();
     4c6:	f001 fe8b 	bl	21e0 <vPortExitCritical>

        if( xSchedulerRunning != pdFALSE )
     4ca:	4b0d      	ldr	r3, [pc, #52]	@ (500 <prvAddNewTaskToReadyList+0x114>)
     4cc:	681b      	ldr	r3, [r3, #0]
     4ce:	2b00      	cmp	r3, #0
     4d0:	d00e      	beq.n	4f0 <prvAddNewTaskToReadyList+0x104>
        {
            /* If the created task is of a higher priority than the current task
             * then it should run now. */
            taskYIELD_ANY_CORE_IF_USING_PREEMPTION( pxNewTCB );
     4d2:	4b0a      	ldr	r3, [pc, #40]	@ (4fc <prvAddNewTaskToReadyList+0x110>)
     4d4:	681b      	ldr	r3, [r3, #0]
     4d6:	6ada      	ldr	r2, [r3, #44]	@ 0x2c
     4d8:	687b      	ldr	r3, [r7, #4]
     4da:	6adb      	ldr	r3, [r3, #44]	@ 0x2c
     4dc:	429a      	cmp	r2, r3
     4de:	d207      	bcs.n	4f0 <prvAddNewTaskToReadyList+0x104>
     4e0:	4b0b      	ldr	r3, [pc, #44]	@ (510 <prvAddNewTaskToReadyList+0x124>)
     4e2:	f04f 5280 	mov.w	r2, #268435456	@ 0x10000000
     4e6:	601a      	str	r2, [r3, #0]
     4e8:	f3bf 8f4f 	dsb	sy
     4ec:	f3bf 8f6f 	isb	sy
        }
        else
        {
            mtCOVERAGE_TEST_MARKER();
        }
    }
     4f0:	bf00      	nop
     4f2:	3710      	adds	r7, #16
     4f4:	46bd      	mov	sp, r7
     4f6:	bd80      	pop	{r7, pc}
     4f8:	200000b0 	strhcs	r0, [r0], -r0	@ <UNPREDICTABLE>
     4fc:	20000004 	andcs	r0, r0, r4
     500:	200000bc 	strhcs	r0, [r0], -ip
     504:	200000cc 	andcs	r0, r0, ip, asr #1
     508:	200000b8 	strhcs	r0, [r0], -r8
     50c:	20000008 	andcs	r0, r0, r8
     510:	e000ed04 	and	lr, r0, r4, lsl #26

00000514 <prvCreateIdleTasks>:

#endif /* ( ( INCLUDE_xTaskResumeFromISR == 1 ) && ( INCLUDE_vTaskSuspend == 1 ) ) */
/*-----------------------------------------------------------*/

static BaseType_t prvCreateIdleTasks( void )
{
     514:	b580      	push	{r7, lr}
     516:	b08a      	sub	sp, #40	@ 0x28
     518:	af02      	add	r7, sp, #8
    BaseType_t xReturn = pdPASS;
     51a:	2301      	movs	r3, #1
     51c:	61fb      	str	r3, [r7, #28]
    BaseType_t xCoreID;
    char cIdleName[ configMAX_TASK_NAME_LEN ] = { 0 };
     51e:	463b      	mov	r3, r7
     520:	2200      	movs	r2, #0
     522:	601a      	str	r2, [r3, #0]
     524:	605a      	str	r2, [r3, #4]
     526:	609a      	str	r2, [r3, #8]
     528:	60da      	str	r2, [r3, #12]
    TaskFunction_t pxIdleTaskFunction = NULL;
     52a:	2300      	movs	r3, #0
     52c:	613b      	str	r3, [r7, #16]
    UBaseType_t xIdleTaskNameIndex;

    /* MISRA Ref 14.3.1 [Configuration dependent invariant] */
    /* More details at: https://github.com/FreeRTOS/FreeRTOS-Kernel/blob/main/MISRA.md#rule-143. */
    /* coverity[misra_c_2012_rule_14_3_violation] */
    for( xIdleTaskNameIndex = 0U; xIdleTaskNameIndex < ( configMAX_TASK_NAME_LEN - taskRESERVED_TASK_NAME_LENGTH ); xIdleTaskNameIndex++ )
     52e:	2300      	movs	r3, #0
     530:	617b      	str	r3, [r7, #20]
     532:	e011      	b.n	558 <prvCreateIdleTasks+0x44>
    {
        /* MISRA Ref 18.1.1 [Configuration dependent bounds checking] */
        /* More details at: https://github.com/FreeRTOS/FreeRTOS-Kernel/blob/main/MISRA.md#rule-181. */
        /* coverity[misra_c_2012_rule_18_1_violation] */
        cIdleName[ xIdleTaskNameIndex ] = configIDLE_TASK_NAME[ xIdleTaskNameIndex ];
     534:	4a1f      	ldr	r2, [pc, #124]	@ (5b4 <prvCreateIdleTasks+0xa0>)
     536:	697b      	ldr	r3, [r7, #20]
     538:	4413      	add	r3, r2
     53a:	7819      	ldrb	r1, [r3, #0]
     53c:	463a      	mov	r2, r7
     53e:	697b      	ldr	r3, [r7, #20]
     540:	4413      	add	r3, r2
     542:	460a      	mov	r2, r1
     544:	701a      	strb	r2, [r3, #0]

        if( cIdleName[ xIdleTaskNameIndex ] == ( char ) 0x00 )
     546:	463a      	mov	r2, r7
     548:	697b      	ldr	r3, [r7, #20]
     54a:	4413      	add	r3, r2
     54c:	781b      	ldrb	r3, [r3, #0]
     54e:	2b00      	cmp	r3, #0
     550:	d006      	beq.n	560 <prvCreateIdleTasks+0x4c>
    for( xIdleTaskNameIndex = 0U; xIdleTaskNameIndex < ( configMAX_TASK_NAME_LEN - taskRESERVED_TASK_NAME_LENGTH ); xIdleTaskNameIndex++ )
     552:	697b      	ldr	r3, [r7, #20]
     554:	3301      	adds	r3, #1
     556:	617b      	str	r3, [r7, #20]
     558:	697b      	ldr	r3, [r7, #20]
     55a:	2b0e      	cmp	r3, #14
     55c:	d9ea      	bls.n	534 <prvCreateIdleTasks+0x20>
     55e:	e000      	b.n	562 <prvCreateIdleTasks+0x4e>
        {
            break;
     560:	bf00      	nop
            mtCOVERAGE_TEST_MARKER();
        }
    }

    /* Ensure null termination. */
    cIdleName[ xIdleTaskNameIndex ] = '\0';
     562:	463a      	mov	r2, r7
     564:	697b      	ldr	r3, [r7, #20]
     566:	4413      	add	r3, r2
     568:	2200      	movs	r2, #0
     56a:	701a      	strb	r2, [r3, #0]

    /* Add each idle task at the lowest priority. */
    for( xCoreID = ( BaseType_t ) 0; xCoreID < ( BaseType_t ) configNUMBER_OF_CORES; xCoreID++ )
     56c:	2300      	movs	r3, #0
     56e:	61bb      	str	r3, [r7, #24]
     570:	e016      	b.n	5a0 <prvCreateIdleTasks+0x8c>
    {
        #if ( configNUMBER_OF_CORES == 1 )
        {
            pxIdleTaskFunction = &prvIdleTask;
     572:	4b11      	ldr	r3, [pc, #68]	@ (5b8 <prvCreateIdleTasks+0xa4>)
     574:	613b      	str	r3, [r7, #16]
            }
        }
        #else /* if ( configSUPPORT_STATIC_ALLOCATION == 1 ) */
        {
            /* The Idle task is being created using dynamically allocated RAM. */
            xReturn = xTaskCreate( pxIdleTaskFunction,
     576:	69bb      	ldr	r3, [r7, #24]
     578:	009b      	lsls	r3, r3, #2
     57a:	4a10      	ldr	r2, [pc, #64]	@ (5bc <prvCreateIdleTasks+0xa8>)
     57c:	4413      	add	r3, r2
     57e:	4639      	mov	r1, r7
     580:	9301      	str	r3, [sp, #4]
     582:	2300      	movs	r3, #0
     584:	9300      	str	r3, [sp, #0]
     586:	2300      	movs	r3, #0
     588:	f44f 7280 	mov.w	r2, #256	@ 0x100
     58c:	6938      	ldr	r0, [r7, #16]
     58e:	f7ff fea5 	bl	2dc <xTaskCreate>
     592:	61f8      	str	r0, [r7, #28]
                                   &xIdleTaskHandles[ xCoreID ] );
        }
        #endif /* configSUPPORT_STATIC_ALLOCATION */

        /* Break the loop if any of the idle task is failed to be created. */
        if( xReturn != pdPASS )
     594:	69fb      	ldr	r3, [r7, #28]
     596:	2b01      	cmp	r3, #1
     598:	d106      	bne.n	5a8 <prvCreateIdleTasks+0x94>
    for( xCoreID = ( BaseType_t ) 0; xCoreID < ( BaseType_t ) configNUMBER_OF_CORES; xCoreID++ )
     59a:	69bb      	ldr	r3, [r7, #24]
     59c:	3301      	adds	r3, #1
     59e:	61bb      	str	r3, [r7, #24]
     5a0:	69bb      	ldr	r3, [r7, #24]
     5a2:	2b00      	cmp	r3, #0
     5a4:	dde5      	ble.n	572 <prvCreateIdleTasks+0x5e>
     5a6:	e000      	b.n	5aa <prvCreateIdleTasks+0x96>
        {
            break;
     5a8:	bf00      	nop
            }
            #endif
        }
    }

    return xReturn;
     5aa:	69fb      	ldr	r3, [r7, #28]
}
     5ac:	4618      	mov	r0, r3
     5ae:	3720      	adds	r7, #32
     5b0:	46bd      	mov	sp, r7
     5b2:	bd80      	pop	{r7, pc}
     5b4:	00002440 	andeq	r2, r0, r0, asr #8
     5b8:	00001011 	andeq	r1, r0, r1, lsl r0
     5bc:	200000d4 	ldrdcs	r0, [r0], -r4

000005c0 <vTaskStartScheduler>:

/*-----------------------------------------------------------*/

void vTaskStartScheduler( void )
{
     5c0:	b580      	push	{r7, lr}
     5c2:	b082      	sub	sp, #8
     5c4:	af00      	add	r7, sp, #0
         * the number of bits as confNUMBER_OF_CORES. */
        configASSERT( ( sizeof( UBaseType_t ) * taskBITS_PER_BYTE ) >= configNUMBER_OF_CORES );
    }
    #endif /* #if ( configUSE_CORE_AFFINITY == 1 ) && ( configNUMBER_OF_CORES > 1 ) */

    xReturn = prvCreateIdleTasks();
     5c6:	f7ff ffa5 	bl	514 <prvCreateIdleTasks>
     5ca:	6078      	str	r0, [r7, #4]
            mtCOVERAGE_TEST_MARKER();
        }
    }
    #endif /* configUSE_TIMERS */

    if( xReturn == pdPASS )
     5cc:	687b      	ldr	r3, [r7, #4]
     5ce:	2b01      	cmp	r3, #1
     5d0:	d115      	bne.n	5fe <vTaskStartScheduler+0x3e>

portFORCE_INLINE static void vPortRaiseBASEPRI( void )
{
    uint32_t ulNewBASEPRI;

    __asm volatile
     5d2:	f04f 0301 	mov.w	r3, #1
     5d6:	f383 8811 	msr	BASEPRI, r3
     5da:	f3bf 8f6f 	isb	sy
     5de:	f3bf 8f4f 	dsb	sy
     5e2:	603b      	str	r3, [r7, #0]
        "   msr basepri, %0                                         \n" \
        "   isb                                                     \n" \
        "   dsb                                                     \n" \
        : "=r" ( ulNewBASEPRI ) : "i" ( configMAX_SYSCALL_INTERRUPT_PRIORITY ) : "memory"
    );
}
     5e4:	bf00      	nop
             * block specific to the task that will run first. */
            configSET_TLS_BLOCK( pxCurrentTCB->xTLSBlock );
        }
        #endif

        xNextTaskUnblockTime = portMAX_DELAY;
     5e6:	4b09      	ldr	r3, [pc, #36]	@ (60c <vTaskStartScheduler+0x4c>)
     5e8:	f04f 32ff 	mov.w	r2, #4294967295	@ 0xffffffff
     5ec:	601a      	str	r2, [r3, #0]
        xSchedulerRunning = pdTRUE;
     5ee:	4b08      	ldr	r3, [pc, #32]	@ (610 <vTaskStartScheduler+0x50>)
     5f0:	2201      	movs	r2, #1
     5f2:	601a      	str	r2, [r3, #0]
        xTickCount = ( TickType_t ) configINITIAL_TICK_COUNT;
     5f4:	4b07      	ldr	r3, [pc, #28]	@ (614 <vTaskStartScheduler+0x54>)
     5f6:	2200      	movs	r2, #0
     5f8:	601a      	str	r2, [r3, #0]
        /* Setting up the timer tick is hardware specific and thus in the
         * portable interface. */

        /* The return value for xPortStartScheduler is not required
         * hence using a void datatype. */
        ( void ) xPortStartScheduler();
     5fa:	f001 fda4 	bl	2146 <xPortStartScheduler>
     * meaning xIdleTaskHandles are not used anywhere else. */
    ( void ) xIdleTaskHandles;

    /* OpenOCD makes use of uxTopUsedPriority for thread debugging. Prevent uxTopUsedPriority
     * from getting optimized out as it is no longer used by the kernel. */
    ( void ) uxTopUsedPriority;
     5fe:	4b06      	ldr	r3, [pc, #24]	@ (618 <vTaskStartScheduler+0x58>)
     600:	681b      	ldr	r3, [r3, #0]

    traceRETURN_vTaskStartScheduler();
}
     602:	bf00      	nop
     604:	3708      	adds	r7, #8
     606:	46bd      	mov	sp, r7
     608:	bd80      	pop	{r7, pc}
     60a:	bf00      	nop
     60c:	200000d0 	ldrdcs	r0, [r0], -r0	@ <UNPREDICTABLE>
     610:	200000bc 	strhcs	r0, [r0], -ip
     614:	200000b4 	strhcs	r0, [r0], -r4
     618:	0000243c 	andeq	r2, r0, ip, lsr r4

0000061c <vTaskEndScheduler>:
/*-----------------------------------------------------------*/

void vTaskEndScheduler( void )
{
     61c:	b580      	push	{r7, lr}
     61e:	b082      	sub	sp, #8
     620:	af00      	add	r7, sp, #0
    __asm volatile
     622:	f04f 0301 	mov.w	r3, #1
     626:	f383 8811 	msr	BASEPRI, r3
     62a:	f3bf 8f6f 	isb	sy
     62e:	f3bf 8f4f 	dsb	sy
     632:	607b      	str	r3, [r7, #4]
}
     634:	bf00      	nop

    /* Stop the scheduler interrupts and call the portable scheduler end
     * routine so the original ISRs can be restored if necessary.  The port
     * layer must ensure interrupts enable  bit is left in the correct state. */
    portDISABLE_INTERRUPTS();
    xSchedulerRunning = pdFALSE;
     636:	4b04      	ldr	r3, [pc, #16]	@ (648 <vTaskEndScheduler+0x2c>)
     638:	2200      	movs	r2, #0
     63a:	601a      	str	r2, [r3, #0]

    /* This function must be called from a task and the application is
     * responsible for deleting that task after the scheduler is stopped. */
    vPortEndScheduler();
     63c:	f001 fdb0 	bl	21a0 <vPortEndScheduler>

    traceRETURN_vTaskEndScheduler();
}
     640:	bf00      	nop
     642:	3708      	adds	r7, #8
     644:	46bd      	mov	sp, r7
     646:	bd80      	pop	{r7, pc}
     648:	200000bc 	strhcs	r0, [r0], -ip

0000064c <vTaskSuspendAll>:
/*----------------------------------------------------------*/

void vTaskSuspendAll( void )
{
     64c:	b480      	push	{r7}
     64e:	af00      	add	r7, sp, #0
         * do not otherwise exhibit real time behaviour. */
        portSOFTWARE_BARRIER();

        /* The scheduler is suspended if uxSchedulerSuspended is non-zero.  An increment
         * is used to allow calls to vTaskSuspendAll() to nest. */
        uxSchedulerSuspended = ( UBaseType_t ) ( uxSchedulerSuspended + 1U );
     650:	4b04      	ldr	r3, [pc, #16]	@ (664 <vTaskSuspendAll+0x18>)
     652:	681b      	ldr	r3, [r3, #0]
     654:	3301      	adds	r3, #1
     656:	4a03      	ldr	r2, [pc, #12]	@ (664 <vTaskSuspendAll+0x18>)
     658:	6013      	str	r3, [r2, #0]
        }
    }
    #endif /* #if ( configNUMBER_OF_CORES == 1 ) */

    traceRETURN_vTaskSuspendAll();
}
     65a:	bf00      	nop
     65c:	46bd      	mov	sp, r7
     65e:	bc80      	pop	{r7}
     660:	4770      	bx	lr
     662:	bf00      	nop
     664:	200000d8 	ldrdcs	r0, [r0], -r8

00000668 <xTaskResumeAll>:

#endif /* configUSE_TICKLESS_IDLE */
/*----------------------------------------------------------*/

BaseType_t xTaskResumeAll( void )
{
     668:	b580      	push	{r7, lr}
     66a:	b088      	sub	sp, #32
     66c:	af00      	add	r7, sp, #0
    TCB_t * pxTCB = NULL;
     66e:	2300      	movs	r3, #0
     670:	61fb      	str	r3, [r7, #28]
    BaseType_t xAlreadyYielded = pdFALSE;
     672:	2300      	movs	r3, #0
     674:	61bb      	str	r3, [r7, #24]
        /* It is possible that an ISR caused a task to be removed from an event
         * list while the scheduler was suspended.  If this was the case then the
         * removed task will have been added to the xPendingReadyList.  Once the
         * scheduler has been resumed it is safe to move all the pending ready
         * tasks from this list into their appropriate ready list. */
        taskENTER_CRITICAL();
     676:	f001 fd99 	bl	21ac <vPortEnterCritical>
        {
            const BaseType_t xCoreID = ( BaseType_t ) portGET_CORE_ID();
     67a:	2300      	movs	r3, #0
     67c:	613b      	str	r3, [r7, #16]

            /* If uxSchedulerSuspended is zero then this function does not match a
             * previous call to vTaskSuspendAll(). */
            configASSERT( uxSchedulerSuspended != 0U );

            uxSchedulerSuspended = ( UBaseType_t ) ( uxSchedulerSuspended - 1U );
     67e:	4b6d      	ldr	r3, [pc, #436]	@ (834 <xTaskResumeAll+0x1cc>)
     680:	681b      	ldr	r3, [r3, #0]
     682:	3b01      	subs	r3, #1
     684:	4a6b      	ldr	r2, [pc, #428]	@ (834 <xTaskResumeAll+0x1cc>)
     686:	6013      	str	r3, [r2, #0]
            portRELEASE_TASK_LOCK( xCoreID );

            if( uxSchedulerSuspended == ( UBaseType_t ) 0U )
     688:	4b6a      	ldr	r3, [pc, #424]	@ (834 <xTaskResumeAll+0x1cc>)
     68a:	681b      	ldr	r3, [r3, #0]
     68c:	2b00      	cmp	r3, #0
     68e:	f040 80ca 	bne.w	826 <xTaskResumeAll+0x1be>
            {
                if( uxCurrentNumberOfTasks > ( UBaseType_t ) 0U )
     692:	4b69      	ldr	r3, [pc, #420]	@ (838 <xTaskResumeAll+0x1d0>)
     694:	681b      	ldr	r3, [r3, #0]
     696:	2b00      	cmp	r3, #0
     698:	f000 80c5 	beq.w	826 <xTaskResumeAll+0x1be>
                {
                    /* Move any readied tasks from the pending list into the
                     * appropriate ready list. */
                    while( listLIST_IS_EMPTY( &xPendingReadyList ) == pdFALSE )
     69c:	e08e      	b.n	7bc <xTaskResumeAll+0x154>
                    {
                        /* MISRA Ref 11.5.3 [Void pointer assignment] */
                        /* More details at: https://github.com/FreeRTOS/FreeRTOS-Kernel/blob/main/MISRA.md#rule-115 */
                        /* coverity[misra_c_2012_rule_11_5_violation] */
                        pxTCB = listGET_OWNER_OF_HEAD_ENTRY( ( &xPendingReadyList ) );
     69e:	4b67      	ldr	r3, [pc, #412]	@ (83c <xTaskResumeAll+0x1d4>)
     6a0:	68db      	ldr	r3, [r3, #12]
     6a2:	68db      	ldr	r3, [r3, #12]
     6a4:	61fb      	str	r3, [r7, #28]
                        listREMOVE_ITEM( &( pxTCB->xEventListItem ) );
     6a6:	69fb      	ldr	r3, [r7, #28]
     6a8:	6a9b      	ldr	r3, [r3, #40]	@ 0x28
     6aa:	60fb      	str	r3, [r7, #12]
     6ac:	69fb      	ldr	r3, [r7, #28]
     6ae:	69db      	ldr	r3, [r3, #28]
     6b0:	69fa      	ldr	r2, [r7, #28]
     6b2:	6a12      	ldr	r2, [r2, #32]
     6b4:	609a      	str	r2, [r3, #8]
     6b6:	69fb      	ldr	r3, [r7, #28]
     6b8:	6a1b      	ldr	r3, [r3, #32]
     6ba:	69fa      	ldr	r2, [r7, #28]
     6bc:	69d2      	ldr	r2, [r2, #28]
     6be:	605a      	str	r2, [r3, #4]
     6c0:	68fb      	ldr	r3, [r7, #12]
     6c2:	685a      	ldr	r2, [r3, #4]
     6c4:	69fb      	ldr	r3, [r7, #28]
     6c6:	3318      	adds	r3, #24
     6c8:	429a      	cmp	r2, r3
     6ca:	d103      	bne.n	6d4 <xTaskResumeAll+0x6c>
     6cc:	69fb      	ldr	r3, [r7, #28]
     6ce:	6a1a      	ldr	r2, [r3, #32]
     6d0:	68fb      	ldr	r3, [r7, #12]
     6d2:	605a      	str	r2, [r3, #4]
     6d4:	69fb      	ldr	r3, [r7, #28]
     6d6:	2200      	movs	r2, #0
     6d8:	629a      	str	r2, [r3, #40]	@ 0x28
     6da:	68fb      	ldr	r3, [r7, #12]
     6dc:	681b      	ldr	r3, [r3, #0]
     6de:	1e5a      	subs	r2, r3, #1
     6e0:	68fb      	ldr	r3, [r7, #12]
     6e2:	601a      	str	r2, [r3, #0]
                        portMEMORY_BARRIER();
                        listREMOVE_ITEM( &( pxTCB->xStateListItem ) );
     6e4:	69fb      	ldr	r3, [r7, #28]
     6e6:	695b      	ldr	r3, [r3, #20]
     6e8:	60bb      	str	r3, [r7, #8]
     6ea:	69fb      	ldr	r3, [r7, #28]
     6ec:	689b      	ldr	r3, [r3, #8]
     6ee:	69fa      	ldr	r2, [r7, #28]
     6f0:	68d2      	ldr	r2, [r2, #12]
     6f2:	609a      	str	r2, [r3, #8]
     6f4:	69fb      	ldr	r3, [r7, #28]
     6f6:	68db      	ldr	r3, [r3, #12]
     6f8:	69fa      	ldr	r2, [r7, #28]
     6fa:	6892      	ldr	r2, [r2, #8]
     6fc:	605a      	str	r2, [r3, #4]
     6fe:	68bb      	ldr	r3, [r7, #8]
     700:	685a      	ldr	r2, [r3, #4]
     702:	69fb      	ldr	r3, [r7, #28]
     704:	3304      	adds	r3, #4
     706:	429a      	cmp	r2, r3
     708:	d103      	bne.n	712 <xTaskResumeAll+0xaa>
     70a:	69fb      	ldr	r3, [r7, #28]
     70c:	68da      	ldr	r2, [r3, #12]
     70e:	68bb      	ldr	r3, [r7, #8]
     710:	605a      	str	r2, [r3, #4]
     712:	69fb      	ldr	r3, [r7, #28]
     714:	2200      	movs	r2, #0
     716:	615a      	str	r2, [r3, #20]
     718:	68bb      	ldr	r3, [r7, #8]
     71a:	681b      	ldr	r3, [r3, #0]
     71c:	1e5a      	subs	r2, r3, #1
     71e:	68bb      	ldr	r3, [r7, #8]
     720:	601a      	str	r2, [r3, #0]
                        prvAddTaskToReadyList( pxTCB );
     722:	69fb      	ldr	r3, [r7, #28]
     724:	6adb      	ldr	r3, [r3, #44]	@ 0x2c
     726:	2201      	movs	r2, #1
     728:	409a      	lsls	r2, r3
     72a:	4b45      	ldr	r3, [pc, #276]	@ (840 <xTaskResumeAll+0x1d8>)
     72c:	681b      	ldr	r3, [r3, #0]
     72e:	4313      	orrs	r3, r2
     730:	4a43      	ldr	r2, [pc, #268]	@ (840 <xTaskResumeAll+0x1d8>)
     732:	6013      	str	r3, [r2, #0]
     734:	69fb      	ldr	r3, [r7, #28]
     736:	6ada      	ldr	r2, [r3, #44]	@ 0x2c
     738:	4942      	ldr	r1, [pc, #264]	@ (844 <xTaskResumeAll+0x1dc>)
     73a:	4613      	mov	r3, r2
     73c:	009b      	lsls	r3, r3, #2
     73e:	4413      	add	r3, r2
     740:	009b      	lsls	r3, r3, #2
     742:	440b      	add	r3, r1
     744:	3304      	adds	r3, #4
     746:	681b      	ldr	r3, [r3, #0]
     748:	607b      	str	r3, [r7, #4]
     74a:	69fb      	ldr	r3, [r7, #28]
     74c:	687a      	ldr	r2, [r7, #4]
     74e:	609a      	str	r2, [r3, #8]
     750:	687b      	ldr	r3, [r7, #4]
     752:	689a      	ldr	r2, [r3, #8]
     754:	69fb      	ldr	r3, [r7, #28]
     756:	60da      	str	r2, [r3, #12]
     758:	687b      	ldr	r3, [r7, #4]
     75a:	689b      	ldr	r3, [r3, #8]
     75c:	69fa      	ldr	r2, [r7, #28]
     75e:	3204      	adds	r2, #4
     760:	605a      	str	r2, [r3, #4]
     762:	69fb      	ldr	r3, [r7, #28]
     764:	1d1a      	adds	r2, r3, #4
     766:	687b      	ldr	r3, [r7, #4]
     768:	609a      	str	r2, [r3, #8]
     76a:	69fb      	ldr	r3, [r7, #28]
     76c:	6ada      	ldr	r2, [r3, #44]	@ 0x2c
     76e:	4613      	mov	r3, r2
     770:	009b      	lsls	r3, r3, #2
     772:	4413      	add	r3, r2
     774:	009b      	lsls	r3, r3, #2
     776:	4a33      	ldr	r2, [pc, #204]	@ (844 <xTaskResumeAll+0x1dc>)
     778:	441a      	add	r2, r3
     77a:	69fb      	ldr	r3, [r7, #28]
     77c:	615a      	str	r2, [r3, #20]
     77e:	69fb      	ldr	r3, [r7, #28]
     780:	6ada      	ldr	r2, [r3, #44]	@ 0x2c
     782:	4930      	ldr	r1, [pc, #192]	@ (844 <xTaskResumeAll+0x1dc>)
     784:	4613      	mov	r3, r2
     786:	009b      	lsls	r3, r3, #2
     788:	4413      	add	r3, r2
     78a:	009b      	lsls	r3, r3, #2
     78c:	440b      	add	r3, r1
     78e:	681b      	ldr	r3, [r3, #0]
     790:	69fa      	ldr	r2, [r7, #28]
     792:	6ad2      	ldr	r2, [r2, #44]	@ 0x2c
     794:	1c59      	adds	r1, r3, #1
     796:	482b      	ldr	r0, [pc, #172]	@ (844 <xTaskResumeAll+0x1dc>)
     798:	4613      	mov	r3, r2
     79a:	009b      	lsls	r3, r3, #2
     79c:	4413      	add	r3, r2
     79e:	009b      	lsls	r3, r3, #2
     7a0:	4403      	add	r3, r0
     7a2:	6019      	str	r1, [r3, #0]

                        #if ( configNUMBER_OF_CORES == 1 )
                        {
                            /* If the moved task has a priority higher than the current
                             * task then a yield must be performed. */
                            if( pxTCB->uxPriority > pxCurrentTCB->uxPriority )
     7a4:	69fb      	ldr	r3, [r7, #28]
     7a6:	6ada      	ldr	r2, [r3, #44]	@ 0x2c
     7a8:	4b27      	ldr	r3, [pc, #156]	@ (848 <xTaskResumeAll+0x1e0>)
     7aa:	681b      	ldr	r3, [r3, #0]
     7ac:	6adb      	ldr	r3, [r3, #44]	@ 0x2c
     7ae:	429a      	cmp	r2, r3
     7b0:	d904      	bls.n	7bc <xTaskResumeAll+0x154>
                            {
                                xYieldPendings[ xCoreID ] = pdTRUE;
     7b2:	4a26      	ldr	r2, [pc, #152]	@ (84c <xTaskResumeAll+0x1e4>)
     7b4:	693b      	ldr	r3, [r7, #16]
     7b6:	2101      	movs	r1, #1
     7b8:	f842 1023 	str.w	r1, [r2, r3, lsl #2]
                    while( listLIST_IS_EMPTY( &xPendingReadyList ) == pdFALSE )
     7bc:	4b1f      	ldr	r3, [pc, #124]	@ (83c <xTaskResumeAll+0x1d4>)
     7be:	681b      	ldr	r3, [r3, #0]
     7c0:	2b00      	cmp	r3, #0
     7c2:	f47f af6c 	bne.w	69e <xTaskResumeAll+0x36>
                             * which sets xYieldPendings for the current core to pdTRUE. */
                        }
                        #endif /* #if ( configNUMBER_OF_CORES == 1 ) */
                    }

                    if( pxTCB != NULL )
     7c6:	69fb      	ldr	r3, [r7, #28]
     7c8:	2b00      	cmp	r3, #0
     7ca:	d001      	beq.n	7d0 <xTaskResumeAll+0x168>
                         * which may have prevented the next unblock time from being
                         * re-calculated, in which case re-calculate it now.  Mainly
                         * important for low power tickless implementations, where
                         * this can prevent an unnecessary exit from low power
                         * state. */
                        prvResetNextTaskUnblockTime();
     7cc:	f000 fc74 	bl	10b8 <prvResetNextTaskUnblockTime>
                     * It should be safe to call xTaskIncrementTick here from any core
                     * since we are in a critical section and xTaskIncrementTick itself
                     * protects itself within a critical section. Suspending the scheduler
                     * from any core causes xTaskIncrementTick to increment uxPendedCounts. */
                    {
                        TickType_t xPendedCounts = xPendedTicks; /* Non-volatile copy. */
     7d0:	4b1f      	ldr	r3, [pc, #124]	@ (850 <xTaskResumeAll+0x1e8>)
     7d2:	681b      	ldr	r3, [r3, #0]
     7d4:	617b      	str	r3, [r7, #20]

                        if( xPendedCounts > ( TickType_t ) 0U )
     7d6:	697b      	ldr	r3, [r7, #20]
     7d8:	2b00      	cmp	r3, #0
     7da:	d012      	beq.n	802 <xTaskResumeAll+0x19a>
                        {
                            do
                            {
                                if( xTaskIncrementTick() != pdFALSE )
     7dc:	f000 f894 	bl	908 <xTaskIncrementTick>
     7e0:	4603      	mov	r3, r0
     7e2:	2b00      	cmp	r3, #0
     7e4:	d004      	beq.n	7f0 <xTaskResumeAll+0x188>
                                {
                                    /* Other cores are interrupted from
                                     * within xTaskIncrementTick(). */
                                    xYieldPendings[ xCoreID ] = pdTRUE;
     7e6:	4a19      	ldr	r2, [pc, #100]	@ (84c <xTaskResumeAll+0x1e4>)
     7e8:	693b      	ldr	r3, [r7, #16]
     7ea:	2101      	movs	r1, #1
     7ec:	f842 1023 	str.w	r1, [r2, r3, lsl #2]
                                else
                                {
                                    mtCOVERAGE_TEST_MARKER();
                                }

                                --xPendedCounts;
     7f0:	697b      	ldr	r3, [r7, #20]
     7f2:	3b01      	subs	r3, #1
     7f4:	617b      	str	r3, [r7, #20]
                            } while( xPendedCounts > ( TickType_t ) 0U );
     7f6:	697b      	ldr	r3, [r7, #20]
     7f8:	2b00      	cmp	r3, #0
     7fa:	d1ef      	bne.n	7dc <xTaskResumeAll+0x174>

                            xPendedTicks = 0;
     7fc:	4b14      	ldr	r3, [pc, #80]	@ (850 <xTaskResumeAll+0x1e8>)
     7fe:	2200      	movs	r2, #0
     800:	601a      	str	r2, [r3, #0]
                        {
                            mtCOVERAGE_TEST_MARKER();
                        }
                    }

                    if( xYieldPendings[ xCoreID ] != pdFALSE )
     802:	4a12      	ldr	r2, [pc, #72]	@ (84c <xTaskResumeAll+0x1e4>)
     804:	693b      	ldr	r3, [r7, #16]
     806:	f852 3023 	ldr.w	r3, [r2, r3, lsl #2]
     80a:	2b00      	cmp	r3, #0
     80c:	d00b      	beq.n	826 <xTaskResumeAll+0x1be>
                    {
                        #if ( configUSE_PREEMPTION != 0 )
                        {
                            xAlreadyYielded = pdTRUE;
     80e:	2301      	movs	r3, #1
     810:	61bb      	str	r3, [r7, #24]
                        }
                        #endif /* #if ( configUSE_PREEMPTION != 0 ) */

                        #if ( configNUMBER_OF_CORES == 1 )
                        {
                            taskYIELD_TASK_CORE_IF_USING_PREEMPTION( pxCurrentTCB );
     812:	4b0d      	ldr	r3, [pc, #52]	@ (848 <xTaskResumeAll+0x1e0>)
     814:	681b      	ldr	r3, [r3, #0]
     816:	4b0f      	ldr	r3, [pc, #60]	@ (854 <xTaskResumeAll+0x1ec>)
     818:	f04f 5280 	mov.w	r2, #268435456	@ 0x10000000
     81c:	601a      	str	r2, [r3, #0]
     81e:	f3bf 8f4f 	dsb	sy
     822:	f3bf 8f6f 	isb	sy
            else
            {
                mtCOVERAGE_TEST_MARKER();
            }
        }
        taskEXIT_CRITICAL();
     826:	f001 fcdb 	bl	21e0 <vPortExitCritical>
    }

    traceRETURN_xTaskResumeAll( xAlreadyYielded );

    return xAlreadyYielded;
     82a:	69bb      	ldr	r3, [r7, #24]
}
     82c:	4618      	mov	r0, r3
     82e:	3720      	adds	r7, #32
     830:	46bd      	mov	sp, r7
     832:	bd80      	pop	{r7, pc}
     834:	200000d8 	ldrdcs	r0, [r0], -r8
     838:	200000b0 	strhcs	r0, [r0], -r0	@ <UNPREDICTABLE>
     83c:	2000009c 	mulcs	r0, ip, r0
     840:	200000b8 	strhcs	r0, [r0], -r8
     844:	20000008 	andcs	r0, r0, r8
     848:	20000004 	andcs	r0, r0, r4
     84c:	200000c4 	andcs	r0, r0, r4, asr #1
     850:	200000c0 	andcs	r0, r0, r0, asr #1
     854:	e000ed04 	and	lr, r0, r4, lsl #26

00000858 <xTaskGetTickCount>:
/*-----------------------------------------------------------*/

TickType_t xTaskGetTickCount( void )
{
     858:	b480      	push	{r7}
     85a:	b083      	sub	sp, #12
     85c:	af00      	add	r7, sp, #0
    traceENTER_xTaskGetTickCount();

    /* Critical section required if running on a 16 bit processor. */
    portTICK_TYPE_ENTER_CRITICAL();
    {
        xTicks = xTickCount;
     85e:	4b04      	ldr	r3, [pc, #16]	@ (870 <xTaskGetTickCount+0x18>)
     860:	681b      	ldr	r3, [r3, #0]
     862:	607b      	str	r3, [r7, #4]
    }
    portTICK_TYPE_EXIT_CRITICAL();

    traceRETURN_xTaskGetTickCount( xTicks );

    return xTicks;
     864:	687b      	ldr	r3, [r7, #4]
}
     866:	4618      	mov	r0, r3
     868:	370c      	adds	r7, #12
     86a:	46bd      	mov	sp, r7
     86c:	bc80      	pop	{r7}
     86e:	4770      	bx	lr
     870:	200000b4 	strhcs	r0, [r0], -r4

00000874 <xTaskGetTickCountFromISR>:
/*-----------------------------------------------------------*/

TickType_t xTaskGetTickCountFromISR( void )
{
     874:	b480      	push	{r7}
     876:	b083      	sub	sp, #12
     878:	af00      	add	r7, sp, #0
     * safe API to ensure interrupt entry is as fast and as simple as possible.
     * More information (albeit Cortex-M specific) is provided on the following
     * link: https://www.FreeRTOS.org/RTOS-Cortex-M3-M4.html */
    portASSERT_IF_INTERRUPT_PRIORITY_INVALID();

    uxSavedInterruptStatus = portTICK_TYPE_SET_INTERRUPT_MASK_FROM_ISR();
     87a:	2300      	movs	r3, #0
     87c:	607b      	str	r3, [r7, #4]
    {
        xReturn = xTickCount;
     87e:	4b04      	ldr	r3, [pc, #16]	@ (890 <xTaskGetTickCountFromISR+0x1c>)
     880:	681b      	ldr	r3, [r3, #0]
     882:	603b      	str	r3, [r7, #0]
    }
    portTICK_TYPE_CLEAR_INTERRUPT_MASK_FROM_ISR( uxSavedInterruptStatus );

    traceRETURN_xTaskGetTickCountFromISR( xReturn );

    return xReturn;
     884:	683b      	ldr	r3, [r7, #0]
}
     886:	4618      	mov	r0, r3
     888:	370c      	adds	r7, #12
     88a:	46bd      	mov	sp, r7
     88c:	bc80      	pop	{r7}
     88e:	4770      	bx	lr
     890:	200000b4 	strhcs	r0, [r0], -r4

00000894 <uxTaskGetNumberOfTasks>:
/*-----------------------------------------------------------*/

UBaseType_t uxTaskGetNumberOfTasks( void )
{
     894:	b480      	push	{r7}
     896:	af00      	add	r7, sp, #0

    /* A critical section is not required because the variables are of type
     * BaseType_t. */
    traceRETURN_uxTaskGetNumberOfTasks( uxCurrentNumberOfTasks );

    return uxCurrentNumberOfTasks;
     898:	4b02      	ldr	r3, [pc, #8]	@ (8a4 <uxTaskGetNumberOfTasks+0x10>)
     89a:	681b      	ldr	r3, [r3, #0]
}
     89c:	4618      	mov	r0, r3
     89e:	46bd      	mov	sp, r7
     8a0:	bc80      	pop	{r7}
     8a2:	4770      	bx	lr
     8a4:	200000b0 	strhcs	r0, [r0], -r0	@ <UNPREDICTABLE>

000008a8 <pcTaskGetName>:
/*-----------------------------------------------------------*/

char * pcTaskGetName( TaskHandle_t xTaskToQuery )
{
     8a8:	b480      	push	{r7}
     8aa:	b085      	sub	sp, #20
     8ac:	af00      	add	r7, sp, #0
     8ae:	6078      	str	r0, [r7, #4]

    traceENTER_pcTaskGetName( xTaskToQuery );

    /* If null is passed in here then the name of the calling task is being
     * queried. */
    pxTCB = prvGetTCBFromHandle( xTaskToQuery );
     8b0:	687b      	ldr	r3, [r7, #4]
     8b2:	2b00      	cmp	r3, #0
     8b4:	d102      	bne.n	8bc <pcTaskGetName+0x14>
     8b6:	4b06      	ldr	r3, [pc, #24]	@ (8d0 <pcTaskGetName+0x28>)
     8b8:	681b      	ldr	r3, [r3, #0]
     8ba:	e000      	b.n	8be <pcTaskGetName+0x16>
     8bc:	687b      	ldr	r3, [r7, #4]
     8be:	60fb      	str	r3, [r7, #12]
    configASSERT( pxTCB != NULL );

    traceRETURN_pcTaskGetName( &( pxTCB->pcTaskName[ 0 ] ) );

    return &( pxTCB->pcTaskName[ 0 ] );
     8c0:	68fb      	ldr	r3, [r7, #12]
     8c2:	3334      	adds	r3, #52	@ 0x34
}
     8c4:	4618      	mov	r0, r3
     8c6:	3714      	adds	r7, #20
     8c8:	46bd      	mov	sp, r7
     8ca:	bc80      	pop	{r7}
     8cc:	4770      	bx	lr
     8ce:	bf00      	nop
     8d0:	20000004 	andcs	r0, r0, r4

000008d4 <xTaskCatchUpTicks>:

#endif /* configUSE_TICKLESS_IDLE */
/*----------------------------------------------------------*/

BaseType_t xTaskCatchUpTicks( TickType_t xTicksToCatchUp )
{
     8d4:	b580      	push	{r7, lr}
     8d6:	b084      	sub	sp, #16
     8d8:	af00      	add	r7, sp, #0
     8da:	6078      	str	r0, [r7, #4]
     * relies on xPendedTicks being wound down to 0 in xTaskResumeAll(). */
    configASSERT( uxSchedulerSuspended == ( UBaseType_t ) 0U );

    /* Use xPendedTicks to mimic xTicksToCatchUp number of ticks occurring when
     * the scheduler is suspended so the ticks are executed in xTaskResumeAll(). */
    vTaskSuspendAll();
     8dc:	f7ff feb6 	bl	64c <vTaskSuspendAll>

    /* Prevent the tick interrupt modifying xPendedTicks simultaneously. */
    taskENTER_CRITICAL();
     8e0:	f001 fc64 	bl	21ac <vPortEnterCritical>
    {
        xPendedTicks += xTicksToCatchUp;
     8e4:	4b07      	ldr	r3, [pc, #28]	@ (904 <xTaskCatchUpTicks+0x30>)
     8e6:	681a      	ldr	r2, [r3, #0]
     8e8:	687b      	ldr	r3, [r7, #4]
     8ea:	4413      	add	r3, r2
     8ec:	4a05      	ldr	r2, [pc, #20]	@ (904 <xTaskCatchUpTicks+0x30>)
     8ee:	6013      	str	r3, [r2, #0]
    }
    taskEXIT_CRITICAL();
     8f0:	f001 fc76 	bl	21e0 <vPortExitCritical>
    xYieldOccurred = xTaskResumeAll();
     8f4:	f7ff feb8 	bl	668 <xTaskResumeAll>
     8f8:	60f8      	str	r0, [r7, #12]

    traceRETURN_xTaskCatchUpTicks( xYieldOccurred );

    return xYieldOccurred;
     8fa:	68fb      	ldr	r3, [r7, #12]
}
     8fc:	4618      	mov	r0, r3
     8fe:	3710      	adds	r7, #16
     900:	46bd      	mov	sp, r7
     902:	bd80      	pop	{r7, pc}
     904:	200000c0 	andcs	r0, r0, r0, asr #1

00000908 <xTaskIncrementTick>:

#endif /* INCLUDE_xTaskAbortDelay */
/*----------------------------------------------------------*/

BaseType_t xTaskIncrementTick( void )
{
     908:	b580      	push	{r7, lr}
     90a:	b088      	sub	sp, #32
     90c:	af00      	add	r7, sp, #0
    TCB_t * pxTCB;
    TickType_t xItemValue;
    BaseType_t xSwitchRequired = pdFALSE;
     90e:	2300      	movs	r3, #0
     910:	61fb      	str	r3, [r7, #28]

    /* Tick increment should occur on every kernel timer event. Core 0 has the
     * responsibility to increment the tick, or increment the pended ticks if the
     * scheduler is suspended.  If pended ticks is greater than zero, the core that
     * calls xTaskResumeAll has the responsibility to increment the tick. */
    if( uxSchedulerSuspended == ( UBaseType_t ) 0U )
     912:	4b76      	ldr	r3, [pc, #472]	@ (aec <xTaskIncrementTick+0x1e4>)
     914:	681b      	ldr	r3, [r3, #0]
     916:	2b00      	cmp	r3, #0
     918:	f040 80de 	bne.w	ad8 <xTaskIncrementTick+0x1d0>
    {
        /* Minor optimisation.  The tick count cannot change in this
         * block. */
        const TickType_t xConstTickCount = xTickCount + ( TickType_t ) 1;
     91c:	4b74      	ldr	r3, [pc, #464]	@ (af0 <xTaskIncrementTick+0x1e8>)
     91e:	681b      	ldr	r3, [r3, #0]
     920:	3301      	adds	r3, #1
     922:	61bb      	str	r3, [r7, #24]

        /* Increment the RTOS tick, switching the delayed and overflowed
         * delayed lists if it wraps to 0. */
        xTickCount = xConstTickCount;
     924:	4a72      	ldr	r2, [pc, #456]	@ (af0 <xTaskIncrementTick+0x1e8>)
     926:	69bb      	ldr	r3, [r7, #24]
     928:	6013      	str	r3, [r2, #0]

        if( xConstTickCount == ( TickType_t ) 0U )
     92a:	69bb      	ldr	r3, [r7, #24]
     92c:	2b00      	cmp	r3, #0
     92e:	d110      	bne.n	952 <xTaskIncrementTick+0x4a>
        {
            taskSWITCH_DELAYED_LISTS();
     930:	4b70      	ldr	r3, [pc, #448]	@ (af4 <xTaskIncrementTick+0x1ec>)
     932:	681b      	ldr	r3, [r3, #0]
     934:	617b      	str	r3, [r7, #20]
     936:	4b70      	ldr	r3, [pc, #448]	@ (af8 <xTaskIncrementTick+0x1f0>)
     938:	681b      	ldr	r3, [r3, #0]
     93a:	4a6e      	ldr	r2, [pc, #440]	@ (af4 <xTaskIncrementTick+0x1ec>)
     93c:	6013      	str	r3, [r2, #0]
     93e:	4a6e      	ldr	r2, [pc, #440]	@ (af8 <xTaskIncrementTick+0x1f0>)
     940:	697b      	ldr	r3, [r7, #20]
     942:	6013      	str	r3, [r2, #0]
     944:	4b6d      	ldr	r3, [pc, #436]	@ (afc <xTaskIncrementTick+0x1f4>)
     946:	681b      	ldr	r3, [r3, #0]
     948:	3301      	adds	r3, #1
     94a:	4a6c      	ldr	r2, [pc, #432]	@ (afc <xTaskIncrementTick+0x1f4>)
     94c:	6013      	str	r3, [r2, #0]
     94e:	f000 fbb3 	bl	10b8 <prvResetNextTaskUnblockTime>

        /* See if this tick has made a timeout expire.  Tasks are stored in
         * the  queue in the order of their wake time - meaning once one task
         * has been found whose block time has not expired there is no need to
         * look any further down the list. */
        if( xConstTickCount >= xNextTaskUnblockTime )
     952:	4b6b      	ldr	r3, [pc, #428]	@ (b00 <xTaskIncrementTick+0x1f8>)
     954:	681b      	ldr	r3, [r3, #0]
     956:	69ba      	ldr	r2, [r7, #24]
     958:	429a      	cmp	r2, r3
     95a:	f0c0 80a8 	bcc.w	aae <xTaskIncrementTick+0x1a6>
        {
            for( ; ; )
            {
                if( listLIST_IS_EMPTY( pxDelayedTaskList ) != pdFALSE )
     95e:	4b65      	ldr	r3, [pc, #404]	@ (af4 <xTaskIncrementTick+0x1ec>)
     960:	681b      	ldr	r3, [r3, #0]
     962:	681b      	ldr	r3, [r3, #0]
     964:	2b00      	cmp	r3, #0
     966:	d104      	bne.n	972 <xTaskIncrementTick+0x6a>
                    /* The delayed list is empty.  Set xNextTaskUnblockTime
                     * to the maximum possible value so it is extremely
                     * unlikely that the
                     * if( xTickCount >= xNextTaskUnblockTime ) test will pass
                     * next time through. */
                    xNextTaskUnblockTime = portMAX_DELAY;
     968:	4b65      	ldr	r3, [pc, #404]	@ (b00 <xTaskIncrementTick+0x1f8>)
     96a:	f04f 32ff 	mov.w	r2, #4294967295	@ 0xffffffff
     96e:	601a      	str	r2, [r3, #0]
                    break;
     970:	e09d      	b.n	aae <xTaskIncrementTick+0x1a6>
                     * at which the task at the head of the delayed list must
                     * be removed from the Blocked state. */
                    /* MISRA Ref 11.5.3 [Void pointer assignment] */
                    /* More details at: https://github.com/FreeRTOS/FreeRTOS-Kernel/blob/main/MISRA.md#rule-115 */
                    /* coverity[misra_c_2012_rule_11_5_violation] */
                    pxTCB = listGET_OWNER_OF_HEAD_ENTRY( pxDelayedTaskList );
     972:	4b60      	ldr	r3, [pc, #384]	@ (af4 <xTaskIncrementTick+0x1ec>)
     974:	681b      	ldr	r3, [r3, #0]
     976:	68db      	ldr	r3, [r3, #12]
     978:	68db      	ldr	r3, [r3, #12]
     97a:	613b      	str	r3, [r7, #16]
                    xItemValue = listGET_LIST_ITEM_VALUE( &( pxTCB->xStateListItem ) );
     97c:	693b      	ldr	r3, [r7, #16]
     97e:	685b      	ldr	r3, [r3, #4]
     980:	60fb      	str	r3, [r7, #12]

                    if( xConstTickCount < xItemValue )
     982:	69ba      	ldr	r2, [r7, #24]
     984:	68fb      	ldr	r3, [r7, #12]
     986:	429a      	cmp	r2, r3
     988:	d203      	bcs.n	992 <xTaskIncrementTick+0x8a>
                        /* It is not time to unblock this item yet, but the
                         * item value is the time at which the task at the head
                         * of the blocked list must be removed from the Blocked
                         * state -  so record the item value in
                         * xNextTaskUnblockTime. */
                        xNextTaskUnblockTime = xItemValue;
     98a:	4a5d      	ldr	r2, [pc, #372]	@ (b00 <xTaskIncrementTick+0x1f8>)
     98c:	68fb      	ldr	r3, [r7, #12]
     98e:	6013      	str	r3, [r2, #0]
                        break;
     990:	e08d      	b.n	aae <xTaskIncrementTick+0x1a6>
                    {
                        mtCOVERAGE_TEST_MARKER();
                    }

                    /* It is time to remove the item from the Blocked state. */
                    listREMOVE_ITEM( &( pxTCB->xStateListItem ) );
     992:	693b      	ldr	r3, [r7, #16]
     994:	695b      	ldr	r3, [r3, #20]
     996:	60bb      	str	r3, [r7, #8]
     998:	693b      	ldr	r3, [r7, #16]
     99a:	689b      	ldr	r3, [r3, #8]
     99c:	693a      	ldr	r2, [r7, #16]
     99e:	68d2      	ldr	r2, [r2, #12]
     9a0:	609a      	str	r2, [r3, #8]
     9a2:	693b      	ldr	r3, [r7, #16]
     9a4:	68db      	ldr	r3, [r3, #12]
     9a6:	693a      	ldr	r2, [r7, #16]
     9a8:	6892      	ldr	r2, [r2, #8]
     9aa:	605a      	str	r2, [r3, #4]
     9ac:	68bb      	ldr	r3, [r7, #8]
     9ae:	685a      	ldr	r2, [r3, #4]
     9b0:	693b      	ldr	r3, [r7, #16]
     9b2:	3304      	adds	r3, #4
     9b4:	429a      	cmp	r2, r3
     9b6:	d103      	bne.n	9c0 <xTaskIncrementTick+0xb8>
     9b8:	693b      	ldr	r3, [r7, #16]
     9ba:	68da      	ldr	r2, [r3, #12]
     9bc:	68bb      	ldr	r3, [r7, #8]
     9be:	605a      	str	r2, [r3, #4]
     9c0:	693b      	ldr	r3, [r7, #16]
     9c2:	2200      	movs	r2, #0
     9c4:	615a      	str	r2, [r3, #20]
     9c6:	68bb      	ldr	r3, [r7, #8]
     9c8:	681b      	ldr	r3, [r3, #0]
     9ca:	1e5a      	subs	r2, r3, #1
     9cc:	68bb      	ldr	r3, [r7, #8]
     9ce:	601a      	str	r2, [r3, #0]

                    /* Is the task waiting on an event also?  If so remove
                     * it from the event list. */
                    if( listLIST_ITEM_CONTAINER( &( pxTCB->xEventListItem ) ) != NULL )
     9d0:	693b      	ldr	r3, [r7, #16]
     9d2:	6a9b      	ldr	r3, [r3, #40]	@ 0x28
     9d4:	2b00      	cmp	r3, #0
     9d6:	d01e      	beq.n	a16 <xTaskIncrementTick+0x10e>
                    {
                        listREMOVE_ITEM( &( pxTCB->xEventListItem ) );
     9d8:	693b      	ldr	r3, [r7, #16]
     9da:	6a9b      	ldr	r3, [r3, #40]	@ 0x28
     9dc:	607b      	str	r3, [r7, #4]
     9de:	693b      	ldr	r3, [r7, #16]
     9e0:	69db      	ldr	r3, [r3, #28]
     9e2:	693a      	ldr	r2, [r7, #16]
     9e4:	6a12      	ldr	r2, [r2, #32]
     9e6:	609a      	str	r2, [r3, #8]
     9e8:	693b      	ldr	r3, [r7, #16]
     9ea:	6a1b      	ldr	r3, [r3, #32]
     9ec:	693a      	ldr	r2, [r7, #16]
     9ee:	69d2      	ldr	r2, [r2, #28]
     9f0:	605a      	str	r2, [r3, #4]
     9f2:	687b      	ldr	r3, [r7, #4]
     9f4:	685a      	ldr	r2, [r3, #4]
     9f6:	693b      	ldr	r3, [r7, #16]
     9f8:	3318      	adds	r3, #24
     9fa:	429a      	cmp	r2, r3
     9fc:	d103      	bne.n	a06 <xTaskIncrementTick+0xfe>
     9fe:	693b      	ldr	r3, [r7, #16]
     a00:	6a1a      	ldr	r2, [r3, #32]
     a02:	687b      	ldr	r3, [r7, #4]
     a04:	605a      	str	r2, [r3, #4]
     a06:	693b      	ldr	r3, [r7, #16]
     a08:	2200      	movs	r2, #0
     a0a:	629a      	str	r2, [r3, #40]	@ 0x28
     a0c:	687b      	ldr	r3, [r7, #4]
     a0e:	681b      	ldr	r3, [r3, #0]
     a10:	1e5a      	subs	r2, r3, #1
     a12:	687b      	ldr	r3, [r7, #4]
     a14:	601a      	str	r2, [r3, #0]
                        mtCOVERAGE_TEST_MARKER();
                    }

                    /* Place the unblocked task into the appropriate ready
                     * list. */
                    prvAddTaskToReadyList( pxTCB );
     a16:	693b      	ldr	r3, [r7, #16]
     a18:	6adb      	ldr	r3, [r3, #44]	@ 0x2c
     a1a:	2201      	movs	r2, #1
     a1c:	409a      	lsls	r2, r3
     a1e:	4b39      	ldr	r3, [pc, #228]	@ (b04 <xTaskIncrementTick+0x1fc>)
     a20:	681b      	ldr	r3, [r3, #0]
     a22:	4313      	orrs	r3, r2
     a24:	4a37      	ldr	r2, [pc, #220]	@ (b04 <xTaskIncrementTick+0x1fc>)
     a26:	6013      	str	r3, [r2, #0]
     a28:	693b      	ldr	r3, [r7, #16]
     a2a:	6ada      	ldr	r2, [r3, #44]	@ 0x2c
     a2c:	4936      	ldr	r1, [pc, #216]	@ (b08 <xTaskIncrementTick+0x200>)
     a2e:	4613      	mov	r3, r2
     a30:	009b      	lsls	r3, r3, #2
     a32:	4413      	add	r3, r2
     a34:	009b      	lsls	r3, r3, #2
     a36:	440b      	add	r3, r1
     a38:	3304      	adds	r3, #4
     a3a:	681b      	ldr	r3, [r3, #0]
     a3c:	603b      	str	r3, [r7, #0]
     a3e:	693b      	ldr	r3, [r7, #16]
     a40:	683a      	ldr	r2, [r7, #0]
     a42:	609a      	str	r2, [r3, #8]
     a44:	683b      	ldr	r3, [r7, #0]
     a46:	689a      	ldr	r2, [r3, #8]
     a48:	693b      	ldr	r3, [r7, #16]
     a4a:	60da      	str	r2, [r3, #12]
     a4c:	683b      	ldr	r3, [r7, #0]
     a4e:	689b      	ldr	r3, [r3, #8]
     a50:	693a      	ldr	r2, [r7, #16]
     a52:	3204      	adds	r2, #4
     a54:	605a      	str	r2, [r3, #4]
     a56:	693b      	ldr	r3, [r7, #16]
     a58:	1d1a      	adds	r2, r3, #4
     a5a:	683b      	ldr	r3, [r7, #0]
     a5c:	609a      	str	r2, [r3, #8]
     a5e:	693b      	ldr	r3, [r7, #16]
     a60:	6ada      	ldr	r2, [r3, #44]	@ 0x2c
     a62:	4613      	mov	r3, r2
     a64:	009b      	lsls	r3, r3, #2
     a66:	4413      	add	r3, r2
     a68:	009b      	lsls	r3, r3, #2
     a6a:	4a27      	ldr	r2, [pc, #156]	@ (b08 <xTaskIncrementTick+0x200>)
     a6c:	441a      	add	r2, r3
     a6e:	693b      	ldr	r3, [r7, #16]
     a70:	615a      	str	r2, [r3, #20]
     a72:	693b      	ldr	r3, [r7, #16]
     a74:	6ada      	ldr	r2, [r3, #44]	@ 0x2c
     a76:	4924      	ldr	r1, [pc, #144]	@ (b08 <xTaskIncrementTick+0x200>)
     a78:	4613      	mov	r3, r2
     a7a:	009b      	lsls	r3, r3, #2
     a7c:	4413      	add	r3, r2
     a7e:	009b      	lsls	r3, r3, #2
     a80:	440b      	add	r3, r1
     a82:	681b      	ldr	r3, [r3, #0]
     a84:	693a      	ldr	r2, [r7, #16]
     a86:	6ad2      	ldr	r2, [r2, #44]	@ 0x2c
     a88:	1c59      	adds	r1, r3, #1
     a8a:	481f      	ldr	r0, [pc, #124]	@ (b08 <xTaskIncrementTick+0x200>)
     a8c:	4613      	mov	r3, r2
     a8e:	009b      	lsls	r3, r3, #2
     a90:	4413      	add	r3, r2
     a92:	009b      	lsls	r3, r3, #2
     a94:	4403      	add	r3, r0
     a96:	6019      	str	r1, [r3, #0]
                             * task.
                             * The case of equal priority tasks sharing
                             * processing time (which happens when both
                             * preemption and time slicing are on) is
                             * handled below.*/
                            if( pxTCB->uxPriority > pxCurrentTCB->uxPriority )
     a98:	693b      	ldr	r3, [r7, #16]
     a9a:	6ada      	ldr	r2, [r3, #44]	@ 0x2c
     a9c:	4b1b      	ldr	r3, [pc, #108]	@ (b0c <xTaskIncrementTick+0x204>)
     a9e:	681b      	ldr	r3, [r3, #0]
     aa0:	6adb      	ldr	r3, [r3, #44]	@ 0x2c
     aa2:	429a      	cmp	r2, r3
     aa4:	f67f af5b 	bls.w	95e <xTaskIncrementTick+0x56>
                            {
                                xSwitchRequired = pdTRUE;
     aa8:	2301      	movs	r3, #1
     aaa:	61fb      	str	r3, [r7, #28]
                if( listLIST_IS_EMPTY( pxDelayedTaskList ) != pdFALSE )
     aac:	e757      	b.n	95e <xTaskIncrementTick+0x56>
         * writer has not explicitly turned time slicing off. */
        #if ( ( configUSE_PREEMPTION == 1 ) && ( configUSE_TIME_SLICING == 1 ) )
        {
            #if ( configNUMBER_OF_CORES == 1 )
            {
                if( listCURRENT_LIST_LENGTH( &( pxReadyTasksLists[ pxCurrentTCB->uxPriority ] ) ) > 1U )
     aae:	4b17      	ldr	r3, [pc, #92]	@ (b0c <xTaskIncrementTick+0x204>)
     ab0:	681b      	ldr	r3, [r3, #0]
     ab2:	6ada      	ldr	r2, [r3, #44]	@ 0x2c
     ab4:	4914      	ldr	r1, [pc, #80]	@ (b08 <xTaskIncrementTick+0x200>)
     ab6:	4613      	mov	r3, r2
     ab8:	009b      	lsls	r3, r3, #2
     aba:	4413      	add	r3, r2
     abc:	009b      	lsls	r3, r3, #2
     abe:	440b      	add	r3, r1
     ac0:	681b      	ldr	r3, [r3, #0]
     ac2:	2b01      	cmp	r3, #1
     ac4:	d901      	bls.n	aca <xTaskIncrementTick+0x1c2>
                {
                    xSwitchRequired = pdTRUE;
     ac6:	2301      	movs	r3, #1
     ac8:	61fb      	str	r3, [r7, #28]
        #if ( configUSE_PREEMPTION == 1 )
        {
            #if ( configNUMBER_OF_CORES == 1 )
            {
                /* For single core the core ID is always 0. */
                if( xYieldPendings[ 0 ] != pdFALSE )
     aca:	4b11      	ldr	r3, [pc, #68]	@ (b10 <xTaskIncrementTick+0x208>)
     acc:	681b      	ldr	r3, [r3, #0]
     ace:	2b00      	cmp	r3, #0
     ad0:	d007      	beq.n	ae2 <xTaskIncrementTick+0x1da>
                {
                    xSwitchRequired = pdTRUE;
     ad2:	2301      	movs	r3, #1
     ad4:	61fb      	str	r3, [r7, #28]
     ad6:	e004      	b.n	ae2 <xTaskIncrementTick+0x1da>
        }
        #endif /* #if ( configUSE_PREEMPTION == 1 ) */
    }
    else
    {
        xPendedTicks += 1U;
     ad8:	4b0e      	ldr	r3, [pc, #56]	@ (b14 <xTaskIncrementTick+0x20c>)
     ada:	681b      	ldr	r3, [r3, #0]
     adc:	3301      	adds	r3, #1
     ade:	4a0d      	ldr	r2, [pc, #52]	@ (b14 <xTaskIncrementTick+0x20c>)
     ae0:	6013      	str	r3, [r2, #0]
        #endif
    }

    traceRETURN_xTaskIncrementTick( xSwitchRequired );

    return xSwitchRequired;
     ae2:	69fb      	ldr	r3, [r7, #28]
}
     ae4:	4618      	mov	r0, r3
     ae6:	3720      	adds	r7, #32
     ae8:	46bd      	mov	sp, r7
     aea:	bd80      	pop	{r7, pc}
     aec:	200000d8 	ldrdcs	r0, [r0], -r8
     af0:	200000b4 	strhcs	r0, [r0], -r4
     af4:	20000094 	mulcs	r0, r4, r0
     af8:	20000098 	mulcs	r0, r8, r0
     afc:	200000c8 	andcs	r0, r0, r8, asr #1
     b00:	200000d0 	ldrdcs	r0, [r0], -r0	@ <UNPREDICTABLE>
     b04:	200000b8 	strhcs	r0, [r0], -r8
     b08:	20000008 	andcs	r0, r0, r8
     b0c:	20000004 	andcs	r0, r0, r4
     b10:	200000c4 	andcs	r0, r0, r4, asr #1
     b14:	200000c0 	andcs	r0, r0, r0, asr #1

00000b18 <vTaskSwitchContext>:
#endif /* configUSE_APPLICATION_TASK_TAG */
/*-----------------------------------------------------------*/

#if ( configNUMBER_OF_CORES == 1 )
    void vTaskSwitchContext( void )
    {
     b18:	b480      	push	{r7}
     b1a:	b085      	sub	sp, #20
     b1c:	af00      	add	r7, sp, #0
        traceENTER_vTaskSwitchContext();

        if( uxSchedulerSuspended != ( UBaseType_t ) 0U )
     b1e:	4b1c      	ldr	r3, [pc, #112]	@ (b90 <vTaskSwitchContext+0x78>)
     b20:	681b      	ldr	r3, [r3, #0]
     b22:	2b00      	cmp	r3, #0
     b24:	d003      	beq.n	b2e <vTaskSwitchContext+0x16>
        {
            /* The scheduler is currently suspended - do not allow a context
             * switch. */
            xYieldPendings[ 0 ] = pdTRUE;
     b26:	4b1b      	ldr	r3, [pc, #108]	@ (b94 <vTaskSwitchContext+0x7c>)
     b28:	2201      	movs	r2, #1
     b2a:	601a      	str	r2, [r3, #0]
            }
            #endif
        }

        traceRETURN_vTaskSwitchContext();
    }
     b2c:	e02b      	b.n	b86 <vTaskSwitchContext+0x6e>
            xYieldPendings[ 0 ] = pdFALSE;
     b2e:	4b19      	ldr	r3, [pc, #100]	@ (b94 <vTaskSwitchContext+0x7c>)
     b30:	2200      	movs	r2, #0
     b32:	601a      	str	r2, [r3, #0]
            taskSELECT_HIGHEST_PRIORITY_TASK();
     b34:	4b18      	ldr	r3, [pc, #96]	@ (b98 <vTaskSwitchContext+0x80>)
     b36:	681b      	ldr	r3, [r3, #0]
     b38:	607b      	str	r3, [r7, #4]
        __asm volatile ( "clz %0, %1" : "=r" ( ucReturn ) : "r" ( ulBitmap ) : "memory" );
     b3a:	687b      	ldr	r3, [r7, #4]
     b3c:	fab3 f383 	clz	r3, r3
     b40:	70fb      	strb	r3, [r7, #3]
        return ucReturn;
     b42:	78fb      	ldrb	r3, [r7, #3]
     b44:	f1c3 031f 	rsb	r3, r3, #31
     b48:	60fb      	str	r3, [r7, #12]
     b4a:	68fa      	ldr	r2, [r7, #12]
     b4c:	4613      	mov	r3, r2
     b4e:	009b      	lsls	r3, r3, #2
     b50:	4413      	add	r3, r2
     b52:	009b      	lsls	r3, r3, #2
     b54:	4a11      	ldr	r2, [pc, #68]	@ (b9c <vTaskSwitchContext+0x84>)
     b56:	4413      	add	r3, r2
     b58:	60bb      	str	r3, [r7, #8]
     b5a:	68bb      	ldr	r3, [r7, #8]
     b5c:	685b      	ldr	r3, [r3, #4]
     b5e:	685a      	ldr	r2, [r3, #4]
     b60:	68bb      	ldr	r3, [r7, #8]
     b62:	605a      	str	r2, [r3, #4]
     b64:	68bb      	ldr	r3, [r7, #8]
     b66:	685a      	ldr	r2, [r3, #4]
     b68:	68bb      	ldr	r3, [r7, #8]
     b6a:	3308      	adds	r3, #8
     b6c:	429a      	cmp	r2, r3
     b6e:	d103      	bne.n	b78 <vTaskSwitchContext+0x60>
     b70:	68bb      	ldr	r3, [r7, #8]
     b72:	68da      	ldr	r2, [r3, #12]
     b74:	68bb      	ldr	r3, [r7, #8]
     b76:	605a      	str	r2, [r3, #4]
     b78:	68bb      	ldr	r3, [r7, #8]
     b7a:	685b      	ldr	r3, [r3, #4]
     b7c:	68db      	ldr	r3, [r3, #12]
     b7e:	4a08      	ldr	r2, [pc, #32]	@ (ba0 <vTaskSwitchContext+0x88>)
     b80:	6013      	str	r3, [r2, #0]
            portTASK_SWITCH_HOOK( pxCurrentTCB );
     b82:	4b07      	ldr	r3, [pc, #28]	@ (ba0 <vTaskSwitchContext+0x88>)
     b84:	681b      	ldr	r3, [r3, #0]
    }
     b86:	bf00      	nop
     b88:	3714      	adds	r7, #20
     b8a:	46bd      	mov	sp, r7
     b8c:	bc80      	pop	{r7}
     b8e:	4770      	bx	lr
     b90:	200000d8 	ldrdcs	r0, [r0], -r8
     b94:	200000c4 	andcs	r0, r0, r4, asr #1
     b98:	200000b8 	strhcs	r0, [r0], -r8
     b9c:	20000008 	andcs	r0, r0, r8
     ba0:	20000004 	andcs	r0, r0, r4

00000ba4 <vTaskPlaceOnEventList>:
#endif /* if ( configNUMBER_OF_CORES > 1 ) */
/*-----------------------------------------------------------*/

void vTaskPlaceOnEventList( List_t * const pxEventList,
                            const TickType_t xTicksToWait )
{
     ba4:	b580      	push	{r7, lr}
     ba6:	b082      	sub	sp, #8
     ba8:	af00      	add	r7, sp, #0
     baa:	6078      	str	r0, [r7, #4]
     bac:	6039      	str	r1, [r7, #0]
     *      xItemValue = ( configMAX_PRIORITIES - uxPriority )
     * Therefore, the event list is sorted in descending priority order.
     *
     * The queue that contains the event list is locked, preventing
     * simultaneous access from interrupts. */
    vListInsert( pxEventList, &( pxCurrentTCB->xEventListItem ) );
     bae:	4b07      	ldr	r3, [pc, #28]	@ (bcc <vTaskPlaceOnEventList+0x28>)
     bb0:	681b      	ldr	r3, [r3, #0]
     bb2:	3318      	adds	r3, #24
     bb4:	4619      	mov	r1, r3
     bb6:	6878      	ldr	r0, [r7, #4]
     bb8:	f001 fbda 	bl	2370 <vListInsert>

    prvAddCurrentTaskToDelayedList( xTicksToWait, pdTRUE );
     bbc:	2101      	movs	r1, #1
     bbe:	6838      	ldr	r0, [r7, #0]
     bc0:	f000 ff26 	bl	1a10 <prvAddCurrentTaskToDelayedList>

    traceRETURN_vTaskPlaceOnEventList();
}
     bc4:	bf00      	nop
     bc6:	3708      	adds	r7, #8
     bc8:	46bd      	mov	sp, r7
     bca:	bd80      	pop	{r7, pc}
     bcc:	20000004 	andcs	r0, r0, r4

00000bd0 <vTaskPlaceOnUnorderedEventList>:
/*-----------------------------------------------------------*/

void vTaskPlaceOnUnorderedEventList( List_t * pxEventList,
                                     const TickType_t xItemValue,
                                     const TickType_t xTicksToWait )
{
     bd0:	b580      	push	{r7, lr}
     bd2:	b086      	sub	sp, #24
     bd4:	af00      	add	r7, sp, #0
     bd6:	60f8      	str	r0, [r7, #12]
     bd8:	60b9      	str	r1, [r7, #8]
     bda:	607a      	str	r2, [r7, #4]
    configASSERT( uxSchedulerSuspended != ( UBaseType_t ) 0U );

    /* Store the item value in the event list item.  It is safe to access the
     * event list item here as interrupts won't access the event list item of a
     * task that is not in the Blocked state. */
    listSET_LIST_ITEM_VALUE( &( pxCurrentTCB->xEventListItem ), xItemValue | taskEVENT_LIST_ITEM_VALUE_IN_USE );
     bdc:	4b17      	ldr	r3, [pc, #92]	@ (c3c <vTaskPlaceOnUnorderedEventList+0x6c>)
     bde:	681b      	ldr	r3, [r3, #0]
     be0:	68ba      	ldr	r2, [r7, #8]
     be2:	f042 4200 	orr.w	r2, r2, #2147483648	@ 0x80000000
     be6:	619a      	str	r2, [r3, #24]
    /* Place the event list item of the TCB at the end of the appropriate event
     * list.  It is safe to access the event list here because it is part of an
     * event group implementation - and interrupts don't access event groups
     * directly (instead they access them indirectly by pending function calls to
     * the task level). */
    listINSERT_END( pxEventList, &( pxCurrentTCB->xEventListItem ) );
     be8:	68fb      	ldr	r3, [r7, #12]
     bea:	685b      	ldr	r3, [r3, #4]
     bec:	617b      	str	r3, [r7, #20]
     bee:	4b13      	ldr	r3, [pc, #76]	@ (c3c <vTaskPlaceOnUnorderedEventList+0x6c>)
     bf0:	681b      	ldr	r3, [r3, #0]
     bf2:	697a      	ldr	r2, [r7, #20]
     bf4:	61da      	str	r2, [r3, #28]
     bf6:	4b11      	ldr	r3, [pc, #68]	@ (c3c <vTaskPlaceOnUnorderedEventList+0x6c>)
     bf8:	681b      	ldr	r3, [r3, #0]
     bfa:	697a      	ldr	r2, [r7, #20]
     bfc:	6892      	ldr	r2, [r2, #8]
     bfe:	621a      	str	r2, [r3, #32]
     c00:	4b0e      	ldr	r3, [pc, #56]	@ (c3c <vTaskPlaceOnUnorderedEventList+0x6c>)
     c02:	681a      	ldr	r2, [r3, #0]
     c04:	697b      	ldr	r3, [r7, #20]
     c06:	689b      	ldr	r3, [r3, #8]
     c08:	3218      	adds	r2, #24
     c0a:	605a      	str	r2, [r3, #4]
     c0c:	4b0b      	ldr	r3, [pc, #44]	@ (c3c <vTaskPlaceOnUnorderedEventList+0x6c>)
     c0e:	681b      	ldr	r3, [r3, #0]
     c10:	f103 0218 	add.w	r2, r3, #24
     c14:	697b      	ldr	r3, [r7, #20]
     c16:	609a      	str	r2, [r3, #8]
     c18:	4b08      	ldr	r3, [pc, #32]	@ (c3c <vTaskPlaceOnUnorderedEventList+0x6c>)
     c1a:	681b      	ldr	r3, [r3, #0]
     c1c:	68fa      	ldr	r2, [r7, #12]
     c1e:	629a      	str	r2, [r3, #40]	@ 0x28
     c20:	68fb      	ldr	r3, [r7, #12]
     c22:	681b      	ldr	r3, [r3, #0]
     c24:	1c5a      	adds	r2, r3, #1
     c26:	68fb      	ldr	r3, [r7, #12]
     c28:	601a      	str	r2, [r3, #0]

    prvAddCurrentTaskToDelayedList( xTicksToWait, pdTRUE );
     c2a:	2101      	movs	r1, #1
     c2c:	6878      	ldr	r0, [r7, #4]
     c2e:	f000 feef 	bl	1a10 <prvAddCurrentTaskToDelayedList>

    traceRETURN_vTaskPlaceOnUnorderedEventList();
}
     c32:	bf00      	nop
     c34:	3718      	adds	r7, #24
     c36:	46bd      	mov	sp, r7
     c38:	bd80      	pop	{r7, pc}
     c3a:	bf00      	nop
     c3c:	20000004 	andcs	r0, r0, r4

00000c40 <xTaskRemoveFromEventList>:

#endif /* configUSE_TIMERS */
/*-----------------------------------------------------------*/

BaseType_t xTaskRemoveFromEventList( const List_t * const pxEventList )
{
     c40:	b480      	push	{r7}
     c42:	b089      	sub	sp, #36	@ 0x24
     c44:	af00      	add	r7, sp, #0
     c46:	6078      	str	r0, [r7, #4]
     * This function assumes that a check has already been made to ensure that
     * pxEventList is not empty. */
    /* MISRA Ref 11.5.3 [Void pointer assignment] */
    /* More details at: https://github.com/FreeRTOS/FreeRTOS-Kernel/blob/main/MISRA.md#rule-115 */
    /* coverity[misra_c_2012_rule_11_5_violation] */
    pxUnblockedTCB = listGET_OWNER_OF_HEAD_ENTRY( pxEventList );
     c48:	687b      	ldr	r3, [r7, #4]
     c4a:	68db      	ldr	r3, [r3, #12]
     c4c:	68db      	ldr	r3, [r3, #12]
     c4e:	61bb      	str	r3, [r7, #24]
    configASSERT( pxUnblockedTCB );
    listREMOVE_ITEM( &( pxUnblockedTCB->xEventListItem ) );
     c50:	69bb      	ldr	r3, [r7, #24]
     c52:	6a9b      	ldr	r3, [r3, #40]	@ 0x28
     c54:	617b      	str	r3, [r7, #20]
     c56:	69bb      	ldr	r3, [r7, #24]
     c58:	69db      	ldr	r3, [r3, #28]
     c5a:	69ba      	ldr	r2, [r7, #24]
     c5c:	6a12      	ldr	r2, [r2, #32]
     c5e:	609a      	str	r2, [r3, #8]
     c60:	69bb      	ldr	r3, [r7, #24]
     c62:	6a1b      	ldr	r3, [r3, #32]
     c64:	69ba      	ldr	r2, [r7, #24]
     c66:	69d2      	ldr	r2, [r2, #28]
     c68:	605a      	str	r2, [r3, #4]
     c6a:	697b      	ldr	r3, [r7, #20]
     c6c:	685a      	ldr	r2, [r3, #4]
     c6e:	69bb      	ldr	r3, [r7, #24]
     c70:	3318      	adds	r3, #24
     c72:	429a      	cmp	r2, r3
     c74:	d103      	bne.n	c7e <xTaskRemoveFromEventList+0x3e>
     c76:	69bb      	ldr	r3, [r7, #24]
     c78:	6a1a      	ldr	r2, [r3, #32]
     c7a:	697b      	ldr	r3, [r7, #20]
     c7c:	605a      	str	r2, [r3, #4]
     c7e:	69bb      	ldr	r3, [r7, #24]
     c80:	2200      	movs	r2, #0
     c82:	629a      	str	r2, [r3, #40]	@ 0x28
     c84:	697b      	ldr	r3, [r7, #20]
     c86:	681b      	ldr	r3, [r3, #0]
     c88:	1e5a      	subs	r2, r3, #1
     c8a:	697b      	ldr	r3, [r7, #20]
     c8c:	601a      	str	r2, [r3, #0]

    if( uxSchedulerSuspended == ( UBaseType_t ) 0U )
     c8e:	4b4b      	ldr	r3, [pc, #300]	@ (dbc <xTaskRemoveFromEventList+0x17c>)
     c90:	681b      	ldr	r3, [r3, #0]
     c92:	2b00      	cmp	r3, #0
     c94:	d160      	bne.n	d58 <xTaskRemoveFromEventList+0x118>
    {
        listREMOVE_ITEM( &( pxUnblockedTCB->xStateListItem ) );
     c96:	69bb      	ldr	r3, [r7, #24]
     c98:	695b      	ldr	r3, [r3, #20]
     c9a:	60fb      	str	r3, [r7, #12]
     c9c:	69bb      	ldr	r3, [r7, #24]
     c9e:	689b      	ldr	r3, [r3, #8]
     ca0:	69ba      	ldr	r2, [r7, #24]
     ca2:	68d2      	ldr	r2, [r2, #12]
     ca4:	609a      	str	r2, [r3, #8]
     ca6:	69bb      	ldr	r3, [r7, #24]
     ca8:	68db      	ldr	r3, [r3, #12]
     caa:	69ba      	ldr	r2, [r7, #24]
     cac:	6892      	ldr	r2, [r2, #8]
     cae:	605a      	str	r2, [r3, #4]
     cb0:	68fb      	ldr	r3, [r7, #12]
     cb2:	685a      	ldr	r2, [r3, #4]
     cb4:	69bb      	ldr	r3, [r7, #24]
     cb6:	3304      	adds	r3, #4
     cb8:	429a      	cmp	r2, r3
     cba:	d103      	bne.n	cc4 <xTaskRemoveFromEventList+0x84>
     cbc:	69bb      	ldr	r3, [r7, #24]
     cbe:	68da      	ldr	r2, [r3, #12]
     cc0:	68fb      	ldr	r3, [r7, #12]
     cc2:	605a      	str	r2, [r3, #4]
     cc4:	69bb      	ldr	r3, [r7, #24]
     cc6:	2200      	movs	r2, #0
     cc8:	615a      	str	r2, [r3, #20]
     cca:	68fb      	ldr	r3, [r7, #12]
     ccc:	681b      	ldr	r3, [r3, #0]
     cce:	1e5a      	subs	r2, r3, #1
     cd0:	68fb      	ldr	r3, [r7, #12]
     cd2:	601a      	str	r2, [r3, #0]
        prvAddTaskToReadyList( pxUnblockedTCB );
     cd4:	69bb      	ldr	r3, [r7, #24]
     cd6:	6adb      	ldr	r3, [r3, #44]	@ 0x2c
     cd8:	2201      	movs	r2, #1
     cda:	409a      	lsls	r2, r3
     cdc:	4b38      	ldr	r3, [pc, #224]	@ (dc0 <xTaskRemoveFromEventList+0x180>)
     cde:	681b      	ldr	r3, [r3, #0]
     ce0:	4313      	orrs	r3, r2
     ce2:	4a37      	ldr	r2, [pc, #220]	@ (dc0 <xTaskRemoveFromEventList+0x180>)
     ce4:	6013      	str	r3, [r2, #0]
     ce6:	69bb      	ldr	r3, [r7, #24]
     ce8:	6ada      	ldr	r2, [r3, #44]	@ 0x2c
     cea:	4936      	ldr	r1, [pc, #216]	@ (dc4 <xTaskRemoveFromEventList+0x184>)
     cec:	4613      	mov	r3, r2
     cee:	009b      	lsls	r3, r3, #2
     cf0:	4413      	add	r3, r2
     cf2:	009b      	lsls	r3, r3, #2
     cf4:	440b      	add	r3, r1
     cf6:	3304      	adds	r3, #4
     cf8:	681b      	ldr	r3, [r3, #0]
     cfa:	60bb      	str	r3, [r7, #8]
     cfc:	69bb      	ldr	r3, [r7, #24]
     cfe:	68ba      	ldr	r2, [r7, #8]
     d00:	609a      	str	r2, [r3, #8]
     d02:	68bb      	ldr	r3, [r7, #8]
     d04:	689a      	ldr	r2, [r3, #8]
     d06:	69bb      	ldr	r3, [r7, #24]
     d08:	60da      	str	r2, [r3, #12]
     d0a:	68bb      	ldr	r3, [r7, #8]
     d0c:	689b      	ldr	r3, [r3, #8]
     d0e:	69ba      	ldr	r2, [r7, #24]
     d10:	3204      	adds	r2, #4
     d12:	605a      	str	r2, [r3, #4]
     d14:	69bb      	ldr	r3, [r7, #24]
     d16:	1d1a      	adds	r2, r3, #4
     d18:	68bb      	ldr	r3, [r7, #8]
     d1a:	609a      	str	r2, [r3, #8]
     d1c:	69bb      	ldr	r3, [r7, #24]
     d1e:	6ada      	ldr	r2, [r3, #44]	@ 0x2c
     d20:	4613      	mov	r3, r2
     d22:	009b      	lsls	r3, r3, #2
     d24:	4413      	add	r3, r2
     d26:	009b      	lsls	r3, r3, #2
     d28:	4a26      	ldr	r2, [pc, #152]	@ (dc4 <xTaskRemoveFromEventList+0x184>)
     d2a:	441a      	add	r2, r3
     d2c:	69bb      	ldr	r3, [r7, #24]
     d2e:	615a      	str	r2, [r3, #20]
     d30:	69bb      	ldr	r3, [r7, #24]
     d32:	6ada      	ldr	r2, [r3, #44]	@ 0x2c
     d34:	4923      	ldr	r1, [pc, #140]	@ (dc4 <xTaskRemoveFromEventList+0x184>)
     d36:	4613      	mov	r3, r2
     d38:	009b      	lsls	r3, r3, #2
     d3a:	4413      	add	r3, r2
     d3c:	009b      	lsls	r3, r3, #2
     d3e:	440b      	add	r3, r1
     d40:	681b      	ldr	r3, [r3, #0]
     d42:	69ba      	ldr	r2, [r7, #24]
     d44:	6ad2      	ldr	r2, [r2, #44]	@ 0x2c
     d46:	1c59      	adds	r1, r3, #1
     d48:	481e      	ldr	r0, [pc, #120]	@ (dc4 <xTaskRemoveFromEventList+0x184>)
     d4a:	4613      	mov	r3, r2
     d4c:	009b      	lsls	r3, r3, #2
     d4e:	4413      	add	r3, r2
     d50:	009b      	lsls	r3, r3, #2
     d52:	4403      	add	r3, r0
     d54:	6019      	str	r1, [r3, #0]
     d56:	e01b      	b.n	d90 <xTaskRemoveFromEventList+0x150>
    }
    else
    {
        /* The delayed and ready lists cannot be accessed, so hold this task
         * pending until the scheduler is resumed. */
        listINSERT_END( &( xPendingReadyList ), &( pxUnblockedTCB->xEventListItem ) );
     d58:	4b1b      	ldr	r3, [pc, #108]	@ (dc8 <xTaskRemoveFromEventList+0x188>)
     d5a:	685b      	ldr	r3, [r3, #4]
     d5c:	613b      	str	r3, [r7, #16]
     d5e:	69bb      	ldr	r3, [r7, #24]
     d60:	693a      	ldr	r2, [r7, #16]
     d62:	61da      	str	r2, [r3, #28]
     d64:	693b      	ldr	r3, [r7, #16]
     d66:	689a      	ldr	r2, [r3, #8]
     d68:	69bb      	ldr	r3, [r7, #24]
     d6a:	621a      	str	r2, [r3, #32]
     d6c:	693b      	ldr	r3, [r7, #16]
     d6e:	689b      	ldr	r3, [r3, #8]
     d70:	69ba      	ldr	r2, [r7, #24]
     d72:	3218      	adds	r2, #24
     d74:	605a      	str	r2, [r3, #4]
     d76:	69bb      	ldr	r3, [r7, #24]
     d78:	f103 0218 	add.w	r2, r3, #24
     d7c:	693b      	ldr	r3, [r7, #16]
     d7e:	609a      	str	r2, [r3, #8]
     d80:	69bb      	ldr	r3, [r7, #24]
     d82:	4a11      	ldr	r2, [pc, #68]	@ (dc8 <xTaskRemoveFromEventList+0x188>)
     d84:	629a      	str	r2, [r3, #40]	@ 0x28
     d86:	4b10      	ldr	r3, [pc, #64]	@ (dc8 <xTaskRemoveFromEventList+0x188>)
     d88:	681b      	ldr	r3, [r3, #0]
     d8a:	3301      	adds	r3, #1
     d8c:	4a0e      	ldr	r2, [pc, #56]	@ (dc8 <xTaskRemoveFromEventList+0x188>)
     d8e:	6013      	str	r3, [r2, #0]
    }

    #if ( configNUMBER_OF_CORES == 1 )
    {
        if( pxUnblockedTCB->uxPriority > pxCurrentTCB->uxPriority )
     d90:	69bb      	ldr	r3, [r7, #24]
     d92:	6ada      	ldr	r2, [r3, #44]	@ 0x2c
     d94:	4b0d      	ldr	r3, [pc, #52]	@ (dcc <xTaskRemoveFromEventList+0x18c>)
     d96:	681b      	ldr	r3, [r3, #0]
     d98:	6adb      	ldr	r3, [r3, #44]	@ 0x2c
     d9a:	429a      	cmp	r2, r3
     d9c:	d905      	bls.n	daa <xTaskRemoveFromEventList+0x16a>
        {
            /* Return true if the task removed from the event list has a higher
             * priority than the calling task.  This allows the calling task to know if
             * it should force a context switch now. */
            xReturn = pdTRUE;
     d9e:	2301      	movs	r3, #1
     da0:	61fb      	str	r3, [r7, #28]

            /* Mark that a yield is pending in case the user is not using the
             * "xHigherPriorityTaskWoken" parameter to an ISR safe FreeRTOS function. */
            xYieldPendings[ 0 ] = pdTRUE;
     da2:	4b0b      	ldr	r3, [pc, #44]	@ (dd0 <xTaskRemoveFromEventList+0x190>)
     da4:	2201      	movs	r2, #1
     da6:	601a      	str	r2, [r3, #0]
     da8:	e001      	b.n	dae <xTaskRemoveFromEventList+0x16e>
        }
        else
        {
            xReturn = pdFALSE;
     daa:	2300      	movs	r3, #0
     dac:	61fb      	str	r3, [r7, #28]
        #endif /* #if ( configUSE_PREEMPTION == 1 ) */
    }
    #endif /* #if ( configNUMBER_OF_CORES == 1 ) */

    traceRETURN_xTaskRemoveFromEventList( xReturn );
    return xReturn;
     dae:	69fb      	ldr	r3, [r7, #28]
}
     db0:	4618      	mov	r0, r3
     db2:	3724      	adds	r7, #36	@ 0x24
     db4:	46bd      	mov	sp, r7
     db6:	bc80      	pop	{r7}
     db8:	4770      	bx	lr
     dba:	bf00      	nop
     dbc:	200000d8 	ldrdcs	r0, [r0], -r8
     dc0:	200000b8 	strhcs	r0, [r0], -r8
     dc4:	20000008 	andcs	r0, r0, r8
     dc8:	2000009c 	mulcs	r0, ip, r0
     dcc:	20000004 	andcs	r0, r0, r4
     dd0:	200000c4 	andcs	r0, r0, r4, asr #1

00000dd4 <vTaskRemoveFromUnorderedEventList>:
/*-----------------------------------------------------------*/

void vTaskRemoveFromUnorderedEventList( ListItem_t * pxEventListItem,
                                        const TickType_t xItemValue )
{
     dd4:	b480      	push	{r7}
     dd6:	b087      	sub	sp, #28
     dd8:	af00      	add	r7, sp, #0
     dda:	6078      	str	r0, [r7, #4]
     ddc:	6039      	str	r1, [r7, #0]
    /* THIS FUNCTION MUST BE CALLED WITH THE SCHEDULER SUSPENDED.  It is used by
     * the event flags implementation. */
    configASSERT( uxSchedulerSuspended != ( UBaseType_t ) 0U );

    /* Store the new item value in the event list. */
    listSET_LIST_ITEM_VALUE( pxEventListItem, xItemValue | taskEVENT_LIST_ITEM_VALUE_IN_USE );
     dde:	683b      	ldr	r3, [r7, #0]
     de0:	f043 4200 	orr.w	r2, r3, #2147483648	@ 0x80000000
     de4:	687b      	ldr	r3, [r7, #4]
     de6:	601a      	str	r2, [r3, #0]
    /* Remove the event list form the event flag.  Interrupts do not access
     * event flags. */
    /* MISRA Ref 11.5.3 [Void pointer assignment] */
    /* More details at: https://github.com/FreeRTOS/FreeRTOS-Kernel/blob/main/MISRA.md#rule-115 */
    /* coverity[misra_c_2012_rule_11_5_violation] */
    pxUnblockedTCB = listGET_LIST_ITEM_OWNER( pxEventListItem );
     de8:	687b      	ldr	r3, [r7, #4]
     dea:	68db      	ldr	r3, [r3, #12]
     dec:	617b      	str	r3, [r7, #20]
    configASSERT( pxUnblockedTCB );
    listREMOVE_ITEM( pxEventListItem );
     dee:	687b      	ldr	r3, [r7, #4]
     df0:	691b      	ldr	r3, [r3, #16]
     df2:	613b      	str	r3, [r7, #16]
     df4:	687b      	ldr	r3, [r7, #4]
     df6:	685b      	ldr	r3, [r3, #4]
     df8:	687a      	ldr	r2, [r7, #4]
     dfa:	6892      	ldr	r2, [r2, #8]
     dfc:	609a      	str	r2, [r3, #8]
     dfe:	687b      	ldr	r3, [r7, #4]
     e00:	689b      	ldr	r3, [r3, #8]
     e02:	687a      	ldr	r2, [r7, #4]
     e04:	6852      	ldr	r2, [r2, #4]
     e06:	605a      	str	r2, [r3, #4]
     e08:	693b      	ldr	r3, [r7, #16]
     e0a:	685b      	ldr	r3, [r3, #4]
     e0c:	687a      	ldr	r2, [r7, #4]
     e0e:	429a      	cmp	r2, r3
     e10:	d103      	bne.n	e1a <vTaskRemoveFromUnorderedEventList+0x46>
     e12:	687b      	ldr	r3, [r7, #4]
     e14:	689a      	ldr	r2, [r3, #8]
     e16:	693b      	ldr	r3, [r7, #16]
     e18:	605a      	str	r2, [r3, #4]
     e1a:	687b      	ldr	r3, [r7, #4]
     e1c:	2200      	movs	r2, #0
     e1e:	611a      	str	r2, [r3, #16]
     e20:	693b      	ldr	r3, [r7, #16]
     e22:	681b      	ldr	r3, [r3, #0]
     e24:	1e5a      	subs	r2, r3, #1
     e26:	693b      	ldr	r3, [r7, #16]
     e28:	601a      	str	r2, [r3, #0]
    #endif

    /* Remove the task from the delayed list and add it to the ready list.  The
     * scheduler is suspended so interrupts will not be accessing the ready
     * lists. */
    listREMOVE_ITEM( &( pxUnblockedTCB->xStateListItem ) );
     e2a:	697b      	ldr	r3, [r7, #20]
     e2c:	695b      	ldr	r3, [r3, #20]
     e2e:	60fb      	str	r3, [r7, #12]
     e30:	697b      	ldr	r3, [r7, #20]
     e32:	689b      	ldr	r3, [r3, #8]
     e34:	697a      	ldr	r2, [r7, #20]
     e36:	68d2      	ldr	r2, [r2, #12]
     e38:	609a      	str	r2, [r3, #8]
     e3a:	697b      	ldr	r3, [r7, #20]
     e3c:	68db      	ldr	r3, [r3, #12]
     e3e:	697a      	ldr	r2, [r7, #20]
     e40:	6892      	ldr	r2, [r2, #8]
     e42:	605a      	str	r2, [r3, #4]
     e44:	68fb      	ldr	r3, [r7, #12]
     e46:	685a      	ldr	r2, [r3, #4]
     e48:	697b      	ldr	r3, [r7, #20]
     e4a:	3304      	adds	r3, #4
     e4c:	429a      	cmp	r2, r3
     e4e:	d103      	bne.n	e58 <vTaskRemoveFromUnorderedEventList+0x84>
     e50:	697b      	ldr	r3, [r7, #20]
     e52:	68da      	ldr	r2, [r3, #12]
     e54:	68fb      	ldr	r3, [r7, #12]
     e56:	605a      	str	r2, [r3, #4]
     e58:	697b      	ldr	r3, [r7, #20]
     e5a:	2200      	movs	r2, #0
     e5c:	615a      	str	r2, [r3, #20]
     e5e:	68fb      	ldr	r3, [r7, #12]
     e60:	681b      	ldr	r3, [r3, #0]
     e62:	1e5a      	subs	r2, r3, #1
     e64:	68fb      	ldr	r3, [r7, #12]
     e66:	601a      	str	r2, [r3, #0]
    prvAddTaskToReadyList( pxUnblockedTCB );
     e68:	697b      	ldr	r3, [r7, #20]
     e6a:	6adb      	ldr	r3, [r3, #44]	@ 0x2c
     e6c:	2201      	movs	r2, #1
     e6e:	409a      	lsls	r2, r3
     e70:	4b25      	ldr	r3, [pc, #148]	@ (f08 <vTaskRemoveFromUnorderedEventList+0x134>)
     e72:	681b      	ldr	r3, [r3, #0]
     e74:	4313      	orrs	r3, r2
     e76:	4a24      	ldr	r2, [pc, #144]	@ (f08 <vTaskRemoveFromUnorderedEventList+0x134>)
     e78:	6013      	str	r3, [r2, #0]
     e7a:	697b      	ldr	r3, [r7, #20]
     e7c:	6ada      	ldr	r2, [r3, #44]	@ 0x2c
     e7e:	4923      	ldr	r1, [pc, #140]	@ (f0c <vTaskRemoveFromUnorderedEventList+0x138>)
     e80:	4613      	mov	r3, r2
     e82:	009b      	lsls	r3, r3, #2
     e84:	4413      	add	r3, r2
     e86:	009b      	lsls	r3, r3, #2
     e88:	440b      	add	r3, r1
     e8a:	3304      	adds	r3, #4
     e8c:	681b      	ldr	r3, [r3, #0]
     e8e:	60bb      	str	r3, [r7, #8]
     e90:	697b      	ldr	r3, [r7, #20]
     e92:	68ba      	ldr	r2, [r7, #8]
     e94:	609a      	str	r2, [r3, #8]
     e96:	68bb      	ldr	r3, [r7, #8]
     e98:	689a      	ldr	r2, [r3, #8]
     e9a:	697b      	ldr	r3, [r7, #20]
     e9c:	60da      	str	r2, [r3, #12]
     e9e:	68bb      	ldr	r3, [r7, #8]
     ea0:	689b      	ldr	r3, [r3, #8]
     ea2:	697a      	ldr	r2, [r7, #20]
     ea4:	3204      	adds	r2, #4
     ea6:	605a      	str	r2, [r3, #4]
     ea8:	697b      	ldr	r3, [r7, #20]
     eaa:	1d1a      	adds	r2, r3, #4
     eac:	68bb      	ldr	r3, [r7, #8]
     eae:	609a      	str	r2, [r3, #8]
     eb0:	697b      	ldr	r3, [r7, #20]
     eb2:	6ada      	ldr	r2, [r3, #44]	@ 0x2c
     eb4:	4613      	mov	r3, r2
     eb6:	009b      	lsls	r3, r3, #2
     eb8:	4413      	add	r3, r2
     eba:	009b      	lsls	r3, r3, #2
     ebc:	4a13      	ldr	r2, [pc, #76]	@ (f0c <vTaskRemoveFromUnorderedEventList+0x138>)
     ebe:	441a      	add	r2, r3
     ec0:	697b      	ldr	r3, [r7, #20]
     ec2:	615a      	str	r2, [r3, #20]
     ec4:	697b      	ldr	r3, [r7, #20]
     ec6:	6ada      	ldr	r2, [r3, #44]	@ 0x2c
     ec8:	4910      	ldr	r1, [pc, #64]	@ (f0c <vTaskRemoveFromUnorderedEventList+0x138>)
     eca:	4613      	mov	r3, r2
     ecc:	009b      	lsls	r3, r3, #2
     ece:	4413      	add	r3, r2
     ed0:	009b      	lsls	r3, r3, #2
     ed2:	440b      	add	r3, r1
     ed4:	681b      	ldr	r3, [r3, #0]
     ed6:	697a      	ldr	r2, [r7, #20]
     ed8:	6ad2      	ldr	r2, [r2, #44]	@ 0x2c
     eda:	1c59      	adds	r1, r3, #1
     edc:	480b      	ldr	r0, [pc, #44]	@ (f0c <vTaskRemoveFromUnorderedEventList+0x138>)
     ede:	4613      	mov	r3, r2
     ee0:	009b      	lsls	r3, r3, #2
     ee2:	4413      	add	r3, r2
     ee4:	009b      	lsls	r3, r3, #2
     ee6:	4403      	add	r3, r0
     ee8:	6019      	str	r1, [r3, #0]

    #if ( configNUMBER_OF_CORES == 1 )
    {
        if( pxUnblockedTCB->uxPriority > pxCurrentTCB->uxPriority )
     eea:	697b      	ldr	r3, [r7, #20]
     eec:	6ada      	ldr	r2, [r3, #44]	@ 0x2c
     eee:	4b08      	ldr	r3, [pc, #32]	@ (f10 <vTaskRemoveFromUnorderedEventList+0x13c>)
     ef0:	681b      	ldr	r3, [r3, #0]
     ef2:	6adb      	ldr	r3, [r3, #44]	@ 0x2c
     ef4:	429a      	cmp	r2, r3
     ef6:	d902      	bls.n	efe <vTaskRemoveFromUnorderedEventList+0x12a>
        {
            /* The unblocked task has a priority above that of the calling task, so
             * a context switch is required.  This function is called with the
             * scheduler suspended so xYieldPending is set so the context switch
             * occurs immediately that the scheduler is resumed (unsuspended). */
            xYieldPendings[ 0 ] = pdTRUE;
     ef8:	4b06      	ldr	r3, [pc, #24]	@ (f14 <vTaskRemoveFromUnorderedEventList+0x140>)
     efa:	2201      	movs	r2, #1
     efc:	601a      	str	r2, [r3, #0]
        #endif
    }
    #endif /* #if ( configNUMBER_OF_CORES == 1 ) */

    traceRETURN_vTaskRemoveFromUnorderedEventList();
}
     efe:	bf00      	nop
     f00:	371c      	adds	r7, #28
     f02:	46bd      	mov	sp, r7
     f04:	bc80      	pop	{r7}
     f06:	4770      	bx	lr
     f08:	200000b8 	strhcs	r0, [r0], -r8
     f0c:	20000008 	andcs	r0, r0, r8
     f10:	20000004 	andcs	r0, r0, r4
     f14:	200000c4 	andcs	r0, r0, r4, asr #1

00000f18 <vTaskSetTimeOutState>:
/*-----------------------------------------------------------*/

void vTaskSetTimeOutState( TimeOut_t * const pxTimeOut )
{
     f18:	b580      	push	{r7, lr}
     f1a:	b082      	sub	sp, #8
     f1c:	af00      	add	r7, sp, #0
     f1e:	6078      	str	r0, [r7, #4]
    traceENTER_vTaskSetTimeOutState( pxTimeOut );

    configASSERT( pxTimeOut );
    taskENTER_CRITICAL();
     f20:	f001 f944 	bl	21ac <vPortEnterCritical>
    {
        pxTimeOut->xOverflowCount = xNumOfOverflows;
     f24:	4b06      	ldr	r3, [pc, #24]	@ (f40 <vTaskSetTimeOutState+0x28>)
     f26:	681a      	ldr	r2, [r3, #0]
     f28:	687b      	ldr	r3, [r7, #4]
     f2a:	601a      	str	r2, [r3, #0]
        pxTimeOut->xTimeOnEntering = xTickCount;
     f2c:	4b05      	ldr	r3, [pc, #20]	@ (f44 <vTaskSetTimeOutState+0x2c>)
     f2e:	681a      	ldr	r2, [r3, #0]
     f30:	687b      	ldr	r3, [r7, #4]
     f32:	605a      	str	r2, [r3, #4]
    }
    taskEXIT_CRITICAL();
     f34:	f001 f954 	bl	21e0 <vPortExitCritical>

    traceRETURN_vTaskSetTimeOutState();
}
     f38:	bf00      	nop
     f3a:	3708      	adds	r7, #8
     f3c:	46bd      	mov	sp, r7
     f3e:	bd80      	pop	{r7, pc}
     f40:	200000c8 	andcs	r0, r0, r8, asr #1
     f44:	200000b4 	strhcs	r0, [r0], -r4

00000f48 <vTaskInternalSetTimeOutState>:
/*-----------------------------------------------------------*/

void vTaskInternalSetTimeOutState( TimeOut_t * const pxTimeOut )
{
     f48:	b480      	push	{r7}
     f4a:	b083      	sub	sp, #12
     f4c:	af00      	add	r7, sp, #0
     f4e:	6078      	str	r0, [r7, #4]
    traceENTER_vTaskInternalSetTimeOutState( pxTimeOut );

    /* For internal use only as it does not use a critical section. */
    pxTimeOut->xOverflowCount = xNumOfOverflows;
     f50:	4b06      	ldr	r3, [pc, #24]	@ (f6c <vTaskInternalSetTimeOutState+0x24>)
     f52:	681a      	ldr	r2, [r3, #0]
     f54:	687b      	ldr	r3, [r7, #4]
     f56:	601a      	str	r2, [r3, #0]
    pxTimeOut->xTimeOnEntering = xTickCount;
     f58:	4b05      	ldr	r3, [pc, #20]	@ (f70 <vTaskInternalSetTimeOutState+0x28>)
     f5a:	681a      	ldr	r2, [r3, #0]
     f5c:	687b      	ldr	r3, [r7, #4]
     f5e:	605a      	str	r2, [r3, #4]

    traceRETURN_vTaskInternalSetTimeOutState();
}
     f60:	bf00      	nop
     f62:	370c      	adds	r7, #12
     f64:	46bd      	mov	sp, r7
     f66:	bc80      	pop	{r7}
     f68:	4770      	bx	lr
     f6a:	bf00      	nop
     f6c:	200000c8 	andcs	r0, r0, r8, asr #1
     f70:	200000b4 	strhcs	r0, [r0], -r4

00000f74 <xTaskCheckForTimeOut>:
/*-----------------------------------------------------------*/

BaseType_t xTaskCheckForTimeOut( TimeOut_t * const pxTimeOut,
                                 TickType_t * const pxTicksToWait )
{
     f74:	b580      	push	{r7, lr}
     f76:	b086      	sub	sp, #24
     f78:	af00      	add	r7, sp, #0
     f7a:	6078      	str	r0, [r7, #4]
     f7c:	6039      	str	r1, [r7, #0]
    traceENTER_xTaskCheckForTimeOut( pxTimeOut, pxTicksToWait );

    configASSERT( pxTimeOut );
    configASSERT( pxTicksToWait );

    taskENTER_CRITICAL();
     f7e:	f001 f915 	bl	21ac <vPortEnterCritical>
    {
        /* Minor optimisation.  The tick count cannot change in this block. */
        const TickType_t xConstTickCount = xTickCount;
     f82:	4b1b      	ldr	r3, [pc, #108]	@ (ff0 <xTaskCheckForTimeOut+0x7c>)
     f84:	681b      	ldr	r3, [r3, #0]
     f86:	613b      	str	r3, [r7, #16]
        const TickType_t xElapsedTime = xConstTickCount - pxTimeOut->xTimeOnEntering;
     f88:	687b      	ldr	r3, [r7, #4]
     f8a:	685b      	ldr	r3, [r3, #4]
     f8c:	693a      	ldr	r2, [r7, #16]
     f8e:	1ad3      	subs	r3, r2, r3
     f90:	60fb      	str	r3, [r7, #12]
                xReturn = pdFALSE;
            }
            else
        #endif

        if( ( xNumOfOverflows != pxTimeOut->xOverflowCount ) && ( xConstTickCount >= pxTimeOut->xTimeOnEntering ) )
     f92:	687b      	ldr	r3, [r7, #4]
     f94:	681a      	ldr	r2, [r3, #0]
     f96:	4b17      	ldr	r3, [pc, #92]	@ (ff4 <xTaskCheckForTimeOut+0x80>)
     f98:	681b      	ldr	r3, [r3, #0]
     f9a:	429a      	cmp	r2, r3
     f9c:	d00a      	beq.n	fb4 <xTaskCheckForTimeOut+0x40>
     f9e:	687b      	ldr	r3, [r7, #4]
     fa0:	685b      	ldr	r3, [r3, #4]
     fa2:	693a      	ldr	r2, [r7, #16]
     fa4:	429a      	cmp	r2, r3
     fa6:	d305      	bcc.n	fb4 <xTaskCheckForTimeOut+0x40>
            /* The tick count is greater than the time at which
             * vTaskSetTimeout() was called, but has also overflowed since
             * vTaskSetTimeOut() was called.  It must have wrapped all the way
             * around and gone past again. This passed since vTaskSetTimeout()
             * was called. */
            xReturn = pdTRUE;
     fa8:	2301      	movs	r3, #1
     faa:	617b      	str	r3, [r7, #20]
            *pxTicksToWait = ( TickType_t ) 0;
     fac:	683b      	ldr	r3, [r7, #0]
     fae:	2200      	movs	r2, #0
     fb0:	601a      	str	r2, [r3, #0]
     fb2:	e015      	b.n	fe0 <xTaskCheckForTimeOut+0x6c>
        }
        else if( xElapsedTime < *pxTicksToWait )
     fb4:	683b      	ldr	r3, [r7, #0]
     fb6:	681b      	ldr	r3, [r3, #0]
     fb8:	68fa      	ldr	r2, [r7, #12]
     fba:	429a      	cmp	r2, r3
     fbc:	d20b      	bcs.n	fd6 <xTaskCheckForTimeOut+0x62>
        {
            /* Not a genuine timeout. Adjust parameters for time remaining. */
            *pxTicksToWait -= xElapsedTime;
     fbe:	683b      	ldr	r3, [r7, #0]
     fc0:	681a      	ldr	r2, [r3, #0]
     fc2:	68fb      	ldr	r3, [r7, #12]
     fc4:	1ad2      	subs	r2, r2, r3
     fc6:	683b      	ldr	r3, [r7, #0]
     fc8:	601a      	str	r2, [r3, #0]
            vTaskInternalSetTimeOutState( pxTimeOut );
     fca:	6878      	ldr	r0, [r7, #4]
     fcc:	f7ff ffbc 	bl	f48 <vTaskInternalSetTimeOutState>
            xReturn = pdFALSE;
     fd0:	2300      	movs	r3, #0
     fd2:	617b      	str	r3, [r7, #20]
     fd4:	e004      	b.n	fe0 <xTaskCheckForTimeOut+0x6c>
        }
        else
        {
            *pxTicksToWait = ( TickType_t ) 0;
     fd6:	683b      	ldr	r3, [r7, #0]
     fd8:	2200      	movs	r2, #0
     fda:	601a      	str	r2, [r3, #0]
            xReturn = pdTRUE;
     fdc:	2301      	movs	r3, #1
     fde:	617b      	str	r3, [r7, #20]
        }
    }
    taskEXIT_CRITICAL();
     fe0:	f001 f8fe 	bl	21e0 <vPortExitCritical>

    traceRETURN_xTaskCheckForTimeOut( xReturn );

    return xReturn;
     fe4:	697b      	ldr	r3, [r7, #20]
}
     fe6:	4618      	mov	r0, r3
     fe8:	3718      	adds	r7, #24
     fea:	46bd      	mov	sp, r7
     fec:	bd80      	pop	{r7, pc}
     fee:	bf00      	nop
     ff0:	200000b4 	strhcs	r0, [r0], -r4
     ff4:	200000c8 	andcs	r0, r0, r8, asr #1

00000ff8 <vTaskMissedYield>:
/*-----------------------------------------------------------*/

void vTaskMissedYield( void )
{
     ff8:	b480      	push	{r7}
     ffa:	af00      	add	r7, sp, #0
    traceENTER_vTaskMissedYield();

    /* Must be called from within a critical section. */
    xYieldPendings[ portGET_CORE_ID() ] = pdTRUE;
     ffc:	4b03      	ldr	r3, [pc, #12]	@ (100c <vTaskMissedYield+0x14>)
     ffe:	2201      	movs	r2, #1
    1000:	601a      	str	r2, [r3, #0]

    traceRETURN_vTaskMissedYield();
}
    1002:	bf00      	nop
    1004:	46bd      	mov	sp, r7
    1006:	bc80      	pop	{r7}
    1008:	4770      	bx	lr
    100a:	bf00      	nop
    100c:	200000c4 	andcs	r0, r0, r4, asr #1

00001010 <prvIdleTask>:
 * void prvIdleTask( void *pvParameters );
 *
 */

static portTASK_FUNCTION( prvIdleTask, pvParameters )
{
    1010:	b580      	push	{r7, lr}
    1012:	b082      	sub	sp, #8
    1014:	af00      	add	r7, sp, #0
    1016:	6078      	str	r0, [r7, #4]

    for( ; configCONTROL_INFINITE_LOOP(); )
    {
        /* See if any tasks have deleted themselves - if so then the idle task
         * is responsible for freeing the deleted task's TCB and stack. */
        prvCheckTasksWaitingTermination();
    1018:	f000 f848 	bl	10ac <prvCheckTasksWaitingTermination>
             * A critical region is not required here as we are just reading from
             * the list, and an occasional incorrect value will not matter.  If
             * the ready list at the idle priority contains one more task than the
             * number of idle tasks, which is equal to the configured numbers of cores
             * then a task other than the idle task is ready to execute. */
            if( listCURRENT_LIST_LENGTH( &( pxReadyTasksLists[ tskIDLE_PRIORITY ] ) ) > ( UBaseType_t ) configNUMBER_OF_CORES )
    101c:	4b06      	ldr	r3, [pc, #24]	@ (1038 <prvIdleTask+0x28>)
    101e:	681b      	ldr	r3, [r3, #0]
    1020:	2b01      	cmp	r3, #1
    1022:	d9f9      	bls.n	1018 <prvIdleTask+0x8>
            {
                taskYIELD();
    1024:	4b05      	ldr	r3, [pc, #20]	@ (103c <prvIdleTask+0x2c>)
    1026:	f04f 5280 	mov.w	r2, #268435456	@ 0x10000000
    102a:	601a      	str	r2, [r3, #0]
    102c:	f3bf 8f4f 	dsb	sy
    1030:	f3bf 8f6f 	isb	sy
        prvCheckTasksWaitingTermination();
    1034:	e7f0      	b.n	1018 <prvIdleTask+0x8>
    1036:	bf00      	nop
    1038:	20000008 	andcs	r0, r0, r8
    103c:	e000ed04 	and	lr, r0, r4, lsl #26

00001040 <prvInitialiseTaskLists>:

#endif /* portUSING_MPU_WRAPPERS */
/*-----------------------------------------------------------*/

static void prvInitialiseTaskLists( void )
{
    1040:	b580      	push	{r7, lr}
    1042:	b082      	sub	sp, #8
    1044:	af00      	add	r7, sp, #0
    UBaseType_t uxPriority;

    for( uxPriority = ( UBaseType_t ) 0U; uxPriority < ( UBaseType_t ) configMAX_PRIORITIES; uxPriority++ )
    1046:	2300      	movs	r3, #0
    1048:	607b      	str	r3, [r7, #4]
    104a:	e00c      	b.n	1066 <prvInitialiseTaskLists+0x26>
    {
        vListInitialise( &( pxReadyTasksLists[ uxPriority ] ) );
    104c:	687a      	ldr	r2, [r7, #4]
    104e:	4613      	mov	r3, r2
    1050:	009b      	lsls	r3, r3, #2
    1052:	4413      	add	r3, r2
    1054:	009b      	lsls	r3, r3, #2
    1056:	4a0f      	ldr	r2, [pc, #60]	@ (1094 <prvInitialiseTaskLists+0x54>)
    1058:	4413      	add	r3, r2
    105a:	4618      	mov	r0, r3
    105c:	f001 f93a 	bl	22d4 <vListInitialise>
    for( uxPriority = ( UBaseType_t ) 0U; uxPriority < ( UBaseType_t ) configMAX_PRIORITIES; uxPriority++ )
    1060:	687b      	ldr	r3, [r7, #4]
    1062:	3301      	adds	r3, #1
    1064:	607b      	str	r3, [r7, #4]
    1066:	687b      	ldr	r3, [r7, #4]
    1068:	2b04      	cmp	r3, #4
    106a:	d9ef      	bls.n	104c <prvInitialiseTaskLists+0xc>
    }

    vListInitialise( &xDelayedTaskList1 );
    106c:	480a      	ldr	r0, [pc, #40]	@ (1098 <prvInitialiseTaskLists+0x58>)
    106e:	f001 f931 	bl	22d4 <vListInitialise>
    vListInitialise( &xDelayedTaskList2 );
    1072:	480a      	ldr	r0, [pc, #40]	@ (109c <prvInitialiseTaskLists+0x5c>)
    1074:	f001 f92e 	bl	22d4 <vListInitialise>
    vListInitialise( &xPendingReadyList );
    1078:	4809      	ldr	r0, [pc, #36]	@ (10a0 <prvInitialiseTaskLists+0x60>)
    107a:	f001 f92b 	bl	22d4 <vListInitialise>
    }
    #endif /* INCLUDE_vTaskSuspend */

    /* Start with pxDelayedTaskList using list1 and the pxOverflowDelayedTaskList
     * using list2. */
    pxDelayedTaskList = &xDelayedTaskList1;
    107e:	4b09      	ldr	r3, [pc, #36]	@ (10a4 <prvInitialiseTaskLists+0x64>)
    1080:	4a05      	ldr	r2, [pc, #20]	@ (1098 <prvInitialiseTaskLists+0x58>)
    1082:	601a      	str	r2, [r3, #0]
    pxOverflowDelayedTaskList = &xDelayedTaskList2;
    1084:	4b08      	ldr	r3, [pc, #32]	@ (10a8 <prvInitialiseTaskLists+0x68>)
    1086:	4a05      	ldr	r2, [pc, #20]	@ (109c <prvInitialiseTaskLists+0x5c>)
    1088:	601a      	str	r2, [r3, #0]
}
    108a:	bf00      	nop
    108c:	3708      	adds	r7, #8
    108e:	46bd      	mov	sp, r7
    1090:	bd80      	pop	{r7, pc}
    1092:	bf00      	nop
    1094:	20000008 	andcs	r0, r0, r8
    1098:	2000006c 	andcs	r0, r0, ip, rrx
    109c:	20000080 	andcs	r0, r0, r0, lsl #1
    10a0:	2000009c 	mulcs	r0, ip, r0
    10a4:	20000094 	mulcs	r0, r4, r0
    10a8:	20000098 	mulcs	r0, r8, r0

000010ac <prvCheckTasksWaitingTermination>:
/*-----------------------------------------------------------*/

static void prvCheckTasksWaitingTermination( void )
{
    10ac:	b480      	push	{r7}
    10ae:	af00      	add	r7, sp, #0
            }
            #endif /* #if( configNUMBER_OF_CORES == 1 ) */
        }
    }
    #endif /* INCLUDE_vTaskDelete */
}
    10b0:	bf00      	nop
    10b2:	46bd      	mov	sp, r7
    10b4:	bc80      	pop	{r7}
    10b6:	4770      	bx	lr

000010b8 <prvResetNextTaskUnblockTime>:

#endif /* INCLUDE_vTaskDelete */
/*-----------------------------------------------------------*/

static void prvResetNextTaskUnblockTime( void )
{
    10b8:	b480      	push	{r7}
    10ba:	af00      	add	r7, sp, #0
    if( listLIST_IS_EMPTY( pxDelayedTaskList ) != pdFALSE )
    10bc:	4b09      	ldr	r3, [pc, #36]	@ (10e4 <prvResetNextTaskUnblockTime+0x2c>)
    10be:	681b      	ldr	r3, [r3, #0]
    10c0:	681b      	ldr	r3, [r3, #0]
    10c2:	2b00      	cmp	r3, #0
    10c4:	d104      	bne.n	10d0 <prvResetNextTaskUnblockTime+0x18>
    {
        /* The new current delayed list is empty.  Set xNextTaskUnblockTime to
         * the maximum possible value so it is  extremely unlikely that the
         * if( xTickCount >= xNextTaskUnblockTime ) test will pass until
         * there is an item in the delayed list. */
        xNextTaskUnblockTime = portMAX_DELAY;
    10c6:	4b08      	ldr	r3, [pc, #32]	@ (10e8 <prvResetNextTaskUnblockTime+0x30>)
    10c8:	f04f 32ff 	mov.w	r2, #4294967295	@ 0xffffffff
    10cc:	601a      	str	r2, [r3, #0]
         * the item at the head of the delayed list.  This is the time at
         * which the task at the head of the delayed list should be removed
         * from the Blocked state. */
        xNextTaskUnblockTime = listGET_ITEM_VALUE_OF_HEAD_ENTRY( pxDelayedTaskList );
    }
}
    10ce:	e005      	b.n	10dc <prvResetNextTaskUnblockTime+0x24>
        xNextTaskUnblockTime = listGET_ITEM_VALUE_OF_HEAD_ENTRY( pxDelayedTaskList );
    10d0:	4b04      	ldr	r3, [pc, #16]	@ (10e4 <prvResetNextTaskUnblockTime+0x2c>)
    10d2:	681b      	ldr	r3, [r3, #0]
    10d4:	68db      	ldr	r3, [r3, #12]
    10d6:	681b      	ldr	r3, [r3, #0]
    10d8:	4a03      	ldr	r2, [pc, #12]	@ (10e8 <prvResetNextTaskUnblockTime+0x30>)
    10da:	6013      	str	r3, [r2, #0]
}
    10dc:	bf00      	nop
    10de:	46bd      	mov	sp, r7
    10e0:	bc80      	pop	{r7}
    10e2:	4770      	bx	lr
    10e4:	20000094 	mulcs	r0, r4, r0
    10e8:	200000d0 	ldrdcs	r0, [r0], -r0	@ <UNPREDICTABLE>

000010ec <xTaskGetCurrentTaskHandle>:

#if ( ( INCLUDE_xTaskGetCurrentTaskHandle == 1 ) || ( configUSE_RECURSIVE_MUTEXES == 1 ) ) || ( configNUMBER_OF_CORES > 1 )

    #if ( configNUMBER_OF_CORES == 1 )
        TaskHandle_t xTaskGetCurrentTaskHandle( void )
        {
    10ec:	b480      	push	{r7}
    10ee:	b083      	sub	sp, #12
    10f0:	af00      	add	r7, sp, #0
            traceENTER_xTaskGetCurrentTaskHandle();

            /* A critical section is not required as this is not called from
             * an interrupt and the current TCB will always be the same for any
             * individual execution thread. */
            xReturn = pxCurrentTCB;
    10f2:	4b04      	ldr	r3, [pc, #16]	@ (1104 <xTaskGetCurrentTaskHandle+0x18>)
    10f4:	681b      	ldr	r3, [r3, #0]
    10f6:	607b      	str	r3, [r7, #4]

            traceRETURN_xTaskGetCurrentTaskHandle( xReturn );

            return xReturn;
    10f8:	687b      	ldr	r3, [r7, #4]
        }
    10fa:	4618      	mov	r0, r3
    10fc:	370c      	adds	r7, #12
    10fe:	46bd      	mov	sp, r7
    1100:	bc80      	pop	{r7}
    1102:	4770      	bx	lr
    1104:	20000004 	andcs	r0, r0, r4

00001108 <xTaskGetCurrentTaskHandleForCore>:
            return xReturn;
        }
    #endif /* #if ( configNUMBER_OF_CORES == 1 ) */

    TaskHandle_t xTaskGetCurrentTaskHandleForCore( BaseType_t xCoreID )
    {
    1108:	b480      	push	{r7}
    110a:	b085      	sub	sp, #20
    110c:	af00      	add	r7, sp, #0
    110e:	6078      	str	r0, [r7, #4]
        TaskHandle_t xReturn = NULL;
    1110:	2300      	movs	r3, #0
    1112:	60fb      	str	r3, [r7, #12]

        traceENTER_xTaskGetCurrentTaskHandleForCore( xCoreID );

        if( taskVALID_CORE_ID( xCoreID ) != pdFALSE )
    1114:	687b      	ldr	r3, [r7, #4]
    1116:	2b00      	cmp	r3, #0
    1118:	db05      	blt.n	1126 <xTaskGetCurrentTaskHandleForCore+0x1e>
    111a:	687b      	ldr	r3, [r7, #4]
    111c:	2b00      	cmp	r3, #0
    111e:	dc02      	bgt.n	1126 <xTaskGetCurrentTaskHandleForCore+0x1e>
        {
            #if ( configNUMBER_OF_CORES == 1 )
                xReturn = pxCurrentTCB;
    1120:	4b04      	ldr	r3, [pc, #16]	@ (1134 <xTaskGetCurrentTaskHandleForCore+0x2c>)
    1122:	681b      	ldr	r3, [r3, #0]
    1124:	60fb      	str	r3, [r7, #12]
            #endif /* #if ( configNUMBER_OF_CORES == 1 ) */
        }

        traceRETURN_xTaskGetCurrentTaskHandleForCore( xReturn );

        return xReturn;
    1126:	68fb      	ldr	r3, [r7, #12]
    }
    1128:	4618      	mov	r0, r3
    112a:	3714      	adds	r7, #20
    112c:	46bd      	mov	sp, r7
    112e:	bc80      	pop	{r7}
    1130:	4770      	bx	lr
    1132:	bf00      	nop
    1134:	20000004 	andcs	r0, r0, r4

00001138 <uxTaskResetEventItemValue>:

#endif /* ( ( configGENERATE_RUN_TIME_STATS == 1 ) && ( configUSE_STATS_FORMATTING_FUNCTIONS > 0 ) ) */
/*-----------------------------------------------------------*/

TickType_t uxTaskResetEventItemValue( void )
{
    1138:	b480      	push	{r7}
    113a:	b083      	sub	sp, #12
    113c:	af00      	add	r7, sp, #0
    TickType_t uxReturn;

    traceENTER_uxTaskResetEventItemValue();

    uxReturn = listGET_LIST_ITEM_VALUE( &( pxCurrentTCB->xEventListItem ) );
    113e:	4b09      	ldr	r3, [pc, #36]	@ (1164 <uxTaskResetEventItemValue+0x2c>)
    1140:	681b      	ldr	r3, [r3, #0]
    1142:	699b      	ldr	r3, [r3, #24]
    1144:	607b      	str	r3, [r7, #4]

    /* Reset the event list item to its normal value - so it can be used with
     * queues and semaphores. */
    listSET_LIST_ITEM_VALUE( &( pxCurrentTCB->xEventListItem ), ( ( TickType_t ) configMAX_PRIORITIES - ( TickType_t ) pxCurrentTCB->uxPriority ) );
    1146:	4b07      	ldr	r3, [pc, #28]	@ (1164 <uxTaskResetEventItemValue+0x2c>)
    1148:	681b      	ldr	r3, [r3, #0]
    114a:	6ada      	ldr	r2, [r3, #44]	@ 0x2c
    114c:	4b05      	ldr	r3, [pc, #20]	@ (1164 <uxTaskResetEventItemValue+0x2c>)
    114e:	681b      	ldr	r3, [r3, #0]
    1150:	f1c2 0205 	rsb	r2, r2, #5
    1154:	619a      	str	r2, [r3, #24]

    traceRETURN_uxTaskResetEventItemValue( uxReturn );

    return uxReturn;
    1156:	687b      	ldr	r3, [r7, #4]
}
    1158:	4618      	mov	r0, r3
    115a:	370c      	adds	r7, #12
    115c:	46bd      	mov	sp, r7
    115e:	bc80      	pop	{r7}
    1160:	4770      	bx	lr
    1162:	bf00      	nop
    1164:	20000004 	andcs	r0, r0, r4

00001168 <ulTaskGenericNotifyTake>:
#if ( configUSE_TASK_NOTIFICATIONS == 1 )

    uint32_t ulTaskGenericNotifyTake( UBaseType_t uxIndexToWaitOn,
                                      BaseType_t xClearCountOnExit,
                                      TickType_t xTicksToWait )
    {
    1168:	b580      	push	{r7, lr}
    116a:	b088      	sub	sp, #32
    116c:	af00      	add	r7, sp, #0
    116e:	60f8      	str	r0, [r7, #12]
    1170:	60b9      	str	r1, [r7, #8]
    1172:	607a      	str	r2, [r7, #4]
        uint32_t ulReturn;
        BaseType_t xAlreadyYielded, xShouldBlock = pdFALSE;
    1174:	2300      	movs	r3, #0
    1176:	61fb      	str	r3, [r7, #28]

        configASSERT( uxIndexToWaitOn < configTASK_NOTIFICATION_ARRAY_ENTRIES );

        /* If the notification count is zero, and if we are willing to wait for a
         * notification, then block the task and wait. */
        if( ( pxCurrentTCB->ulNotifiedValue[ uxIndexToWaitOn ] == 0U ) && ( xTicksToWait > ( TickType_t ) 0 ) )
    1178:	4b35      	ldr	r3, [pc, #212]	@ (1250 <ulTaskGenericNotifyTake+0xe8>)
    117a:	681a      	ldr	r2, [r3, #0]
    117c:	68fb      	ldr	r3, [r7, #12]
    117e:	3310      	adds	r3, #16
    1180:	009b      	lsls	r3, r3, #2
    1182:	4413      	add	r3, r2
    1184:	685b      	ldr	r3, [r3, #4]
    1186:	2b00      	cmp	r3, #0
    1188:	d132      	bne.n	11f0 <ulTaskGenericNotifyTake+0x88>
    118a:	687b      	ldr	r3, [r7, #4]
    118c:	2b00      	cmp	r3, #0
    118e:	d02f      	beq.n	11f0 <ulTaskGenericNotifyTake+0x88>
        {
            /* We suspend the scheduler here as prvAddCurrentTaskToDelayedList is a
             * non-deterministic operation. */
            vTaskSuspendAll();
    1190:	f7ff fa5c 	bl	64c <vTaskSuspendAll>
            {
                /* We MUST enter a critical section to atomically check if a notification
                 * has occurred and set the flag to indicate that we are waiting for
                 * a notification. If we do not do so, a notification sent from an ISR
                 * will get lost. */
                taskENTER_CRITICAL();
    1194:	f001 f80a 	bl	21ac <vPortEnterCritical>
                {
                    /* Only block if the notification count is not already non-zero. */
                    if( pxCurrentTCB->ulNotifiedValue[ uxIndexToWaitOn ] == 0U )
    1198:	4b2d      	ldr	r3, [pc, #180]	@ (1250 <ulTaskGenericNotifyTake+0xe8>)
    119a:	681a      	ldr	r2, [r3, #0]
    119c:	68fb      	ldr	r3, [r7, #12]
    119e:	3310      	adds	r3, #16
    11a0:	009b      	lsls	r3, r3, #2
    11a2:	4413      	add	r3, r2
    11a4:	685b      	ldr	r3, [r3, #4]
    11a6:	2b00      	cmp	r3, #0
    11a8:	d108      	bne.n	11bc <ulTaskGenericNotifyTake+0x54>
                    {
                        /* Mark this task as waiting for a notification. */
                        pxCurrentTCB->ucNotifyState[ uxIndexToWaitOn ] = taskWAITING_NOTIFICATION;
    11aa:	4b29      	ldr	r3, [pc, #164]	@ (1250 <ulTaskGenericNotifyTake+0xe8>)
    11ac:	681a      	ldr	r2, [r3, #0]
    11ae:	68fb      	ldr	r3, [r7, #12]
    11b0:	4413      	add	r3, r2
    11b2:	3348      	adds	r3, #72	@ 0x48
    11b4:	2201      	movs	r2, #1
    11b6:	701a      	strb	r2, [r3, #0]

                        /* Arrange to wait for a notification. */
                        xShouldBlock = pdTRUE;
    11b8:	2301      	movs	r3, #1
    11ba:	61fb      	str	r3, [r7, #28]
                    else
                    {
                        mtCOVERAGE_TEST_MARKER();
                    }
                }
                taskEXIT_CRITICAL();
    11bc:	f001 f810 	bl	21e0 <vPortExitCritical>

                /* We are now out of the critical section but the scheduler is still
                 * suspended, so we are safe to do non-deterministic operations such
                 * as prvAddCurrentTaskToDelayedList. */
                if( xShouldBlock == pdTRUE )
    11c0:	69fb      	ldr	r3, [r7, #28]
    11c2:	2b01      	cmp	r3, #1
    11c4:	d103      	bne.n	11ce <ulTaskGenericNotifyTake+0x66>
                {
                    traceTASK_NOTIFY_TAKE_BLOCK( uxIndexToWaitOn );
                    prvAddCurrentTaskToDelayedList( xTicksToWait, pdTRUE );
    11c6:	2101      	movs	r1, #1
    11c8:	6878      	ldr	r0, [r7, #4]
    11ca:	f000 fc21 	bl	1a10 <prvAddCurrentTaskToDelayedList>
                else
                {
                    mtCOVERAGE_TEST_MARKER();
                }
            }
            xAlreadyYielded = xTaskResumeAll();
    11ce:	f7ff fa4b 	bl	668 <xTaskResumeAll>
    11d2:	61b8      	str	r0, [r7, #24]

            /* Force a reschedule if xTaskResumeAll has not already done so. */
            if( ( xShouldBlock == pdTRUE ) && ( xAlreadyYielded == pdFALSE ) )
    11d4:	69fb      	ldr	r3, [r7, #28]
    11d6:	2b01      	cmp	r3, #1
    11d8:	d10a      	bne.n	11f0 <ulTaskGenericNotifyTake+0x88>
    11da:	69bb      	ldr	r3, [r7, #24]
    11dc:	2b00      	cmp	r3, #0
    11de:	d107      	bne.n	11f0 <ulTaskGenericNotifyTake+0x88>
            {
                taskYIELD_WITHIN_API();
    11e0:	4b1c      	ldr	r3, [pc, #112]	@ (1254 <ulTaskGenericNotifyTake+0xec>)
    11e2:	f04f 5280 	mov.w	r2, #268435456	@ 0x10000000
    11e6:	601a      	str	r2, [r3, #0]
    11e8:	f3bf 8f4f 	dsb	sy
    11ec:	f3bf 8f6f 	isb	sy
            {
                mtCOVERAGE_TEST_MARKER();
            }
        }

        taskENTER_CRITICAL();
    11f0:	f000 ffdc 	bl	21ac <vPortEnterCritical>
        {
            traceTASK_NOTIFY_TAKE( uxIndexToWaitOn );
            ulReturn = pxCurrentTCB->ulNotifiedValue[ uxIndexToWaitOn ];
    11f4:	4b16      	ldr	r3, [pc, #88]	@ (1250 <ulTaskGenericNotifyTake+0xe8>)
    11f6:	681a      	ldr	r2, [r3, #0]
    11f8:	68fb      	ldr	r3, [r7, #12]
    11fa:	3310      	adds	r3, #16
    11fc:	009b      	lsls	r3, r3, #2
    11fe:	4413      	add	r3, r2
    1200:	685b      	ldr	r3, [r3, #4]
    1202:	617b      	str	r3, [r7, #20]

            if( ulReturn != 0U )
    1204:	697b      	ldr	r3, [r7, #20]
    1206:	2b00      	cmp	r3, #0
    1208:	d014      	beq.n	1234 <ulTaskGenericNotifyTake+0xcc>
            {
                if( xClearCountOnExit != pdFALSE )
    120a:	68bb      	ldr	r3, [r7, #8]
    120c:	2b00      	cmp	r3, #0
    120e:	d008      	beq.n	1222 <ulTaskGenericNotifyTake+0xba>
                {
                    pxCurrentTCB->ulNotifiedValue[ uxIndexToWaitOn ] = ( uint32_t ) 0U;
    1210:	4b0f      	ldr	r3, [pc, #60]	@ (1250 <ulTaskGenericNotifyTake+0xe8>)
    1212:	681a      	ldr	r2, [r3, #0]
    1214:	68fb      	ldr	r3, [r7, #12]
    1216:	3310      	adds	r3, #16
    1218:	009b      	lsls	r3, r3, #2
    121a:	4413      	add	r3, r2
    121c:	2200      	movs	r2, #0
    121e:	605a      	str	r2, [r3, #4]
    1220:	e008      	b.n	1234 <ulTaskGenericNotifyTake+0xcc>
                }
                else
                {
                    pxCurrentTCB->ulNotifiedValue[ uxIndexToWaitOn ] = ulReturn - ( uint32_t ) 1;
    1222:	4b0b      	ldr	r3, [pc, #44]	@ (1250 <ulTaskGenericNotifyTake+0xe8>)
    1224:	6819      	ldr	r1, [r3, #0]
    1226:	697b      	ldr	r3, [r7, #20]
    1228:	1e5a      	subs	r2, r3, #1
    122a:	68fb      	ldr	r3, [r7, #12]
    122c:	3310      	adds	r3, #16
    122e:	009b      	lsls	r3, r3, #2
    1230:	440b      	add	r3, r1
    1232:	605a      	str	r2, [r3, #4]
            else
            {
                mtCOVERAGE_TEST_MARKER();
            }

            pxCurrentTCB->ucNotifyState[ uxIndexToWaitOn ] = taskNOT_WAITING_NOTIFICATION;
    1234:	4b06      	ldr	r3, [pc, #24]	@ (1250 <ulTaskGenericNotifyTake+0xe8>)
    1236:	681a      	ldr	r2, [r3, #0]
    1238:	68fb      	ldr	r3, [r7, #12]
    123a:	4413      	add	r3, r2
    123c:	3348      	adds	r3, #72	@ 0x48
    123e:	2200      	movs	r2, #0
    1240:	701a      	strb	r2, [r3, #0]
        }
        taskEXIT_CRITICAL();
    1242:	f000 ffcd 	bl	21e0 <vPortExitCritical>

        traceRETURN_ulTaskGenericNotifyTake( ulReturn );

        return ulReturn;
    1246:	697b      	ldr	r3, [r7, #20]
    }
    1248:	4618      	mov	r0, r3
    124a:	3720      	adds	r7, #32
    124c:	46bd      	mov	sp, r7
    124e:	bd80      	pop	{r7, pc}
    1250:	20000004 	andcs	r0, r0, r4
    1254:	e000ed04 	and	lr, r0, r4, lsl #26

00001258 <xTaskGenericNotifyWait>:
    BaseType_t xTaskGenericNotifyWait( UBaseType_t uxIndexToWaitOn,
                                       uint32_t ulBitsToClearOnEntry,
                                       uint32_t ulBitsToClearOnExit,
                                       uint32_t * pulNotificationValue,
                                       TickType_t xTicksToWait )
    {
    1258:	b580      	push	{r7, lr}
    125a:	b088      	sub	sp, #32
    125c:	af00      	add	r7, sp, #0
    125e:	60f8      	str	r0, [r7, #12]
    1260:	60b9      	str	r1, [r7, #8]
    1262:	607a      	str	r2, [r7, #4]
    1264:	603b      	str	r3, [r7, #0]
        BaseType_t xReturn, xAlreadyYielded, xShouldBlock = pdFALSE;
    1266:	2300      	movs	r3, #0
    1268:	61bb      	str	r3, [r7, #24]

        configASSERT( uxIndexToWaitOn < configTASK_NOTIFICATION_ARRAY_ENTRIES );

        /* If the task hasn't received a notification, and if we are willing to wait
         * for it, then block the task and wait. */
        if( ( pxCurrentTCB->ucNotifyState[ uxIndexToWaitOn ] != taskNOTIFICATION_RECEIVED ) && ( xTicksToWait > ( TickType_t ) 0 ) )
    126a:	4b42      	ldr	r3, [pc, #264]	@ (1374 <xTaskGenericNotifyWait+0x11c>)
    126c:	681a      	ldr	r2, [r3, #0]
    126e:	68fb      	ldr	r3, [r7, #12]
    1270:	4413      	add	r3, r2
    1272:	3348      	adds	r3, #72	@ 0x48
    1274:	781b      	ldrb	r3, [r3, #0]
    1276:	b2db      	uxtb	r3, r3
    1278:	2b02      	cmp	r3, #2
    127a:	d041      	beq.n	1300 <xTaskGenericNotifyWait+0xa8>
    127c:	6abb      	ldr	r3, [r7, #40]	@ 0x28
    127e:	2b00      	cmp	r3, #0
    1280:	d03e      	beq.n	1300 <xTaskGenericNotifyWait+0xa8>
        {
            /* We suspend the scheduler here as prvAddCurrentTaskToDelayedList is a
             * non-deterministic operation. */
            vTaskSuspendAll();
    1282:	f7ff f9e3 	bl	64c <vTaskSuspendAll>
            {
                /* We MUST enter a critical section to atomically check and update the
                 * task notification value. If we do not do so, a notification from
                 * an ISR will get lost. */
                taskENTER_CRITICAL();
    1286:	f000 ff91 	bl	21ac <vPortEnterCritical>
                {
                    /* Only block if a notification is not already pending. */
                    if( pxCurrentTCB->ucNotifyState[ uxIndexToWaitOn ] != taskNOTIFICATION_RECEIVED )
    128a:	4b3a      	ldr	r3, [pc, #232]	@ (1374 <xTaskGenericNotifyWait+0x11c>)
    128c:	681a      	ldr	r2, [r3, #0]
    128e:	68fb      	ldr	r3, [r7, #12]
    1290:	4413      	add	r3, r2
    1292:	3348      	adds	r3, #72	@ 0x48
    1294:	781b      	ldrb	r3, [r3, #0]
    1296:	b2db      	uxtb	r3, r3
    1298:	2b02      	cmp	r3, #2
    129a:	d017      	beq.n	12cc <xTaskGenericNotifyWait+0x74>
                    {
                        /* Clear bits in the task's notification value as bits may get
                         * set by the notifying task or interrupt. This can be used
                         * to clear the value to zero. */
                        pxCurrentTCB->ulNotifiedValue[ uxIndexToWaitOn ] &= ~ulBitsToClearOnEntry;
    129c:	4b35      	ldr	r3, [pc, #212]	@ (1374 <xTaskGenericNotifyWait+0x11c>)
    129e:	681a      	ldr	r2, [r3, #0]
    12a0:	68fb      	ldr	r3, [r7, #12]
    12a2:	3310      	adds	r3, #16
    12a4:	009b      	lsls	r3, r3, #2
    12a6:	4413      	add	r3, r2
    12a8:	6859      	ldr	r1, [r3, #4]
    12aa:	68bb      	ldr	r3, [r7, #8]
    12ac:	43db      	mvns	r3, r3
    12ae:	4019      	ands	r1, r3
    12b0:	68fb      	ldr	r3, [r7, #12]
    12b2:	3310      	adds	r3, #16
    12b4:	009b      	lsls	r3, r3, #2
    12b6:	4413      	add	r3, r2
    12b8:	6059      	str	r1, [r3, #4]

                        /* Mark this task as waiting for a notification. */
                        pxCurrentTCB->ucNotifyState[ uxIndexToWaitOn ] = taskWAITING_NOTIFICATION;
    12ba:	4b2e      	ldr	r3, [pc, #184]	@ (1374 <xTaskGenericNotifyWait+0x11c>)
    12bc:	681a      	ldr	r2, [r3, #0]
    12be:	68fb      	ldr	r3, [r7, #12]
    12c0:	4413      	add	r3, r2
    12c2:	3348      	adds	r3, #72	@ 0x48
    12c4:	2201      	movs	r2, #1
    12c6:	701a      	strb	r2, [r3, #0]

                        /* Arrange to wait for a notification. */
                        xShouldBlock = pdTRUE;
    12c8:	2301      	movs	r3, #1
    12ca:	61bb      	str	r3, [r7, #24]
                    else
                    {
                        mtCOVERAGE_TEST_MARKER();
                    }
                }
                taskEXIT_CRITICAL();
    12cc:	f000 ff88 	bl	21e0 <vPortExitCritical>

                /* We are now out of the critical section but the scheduler is still
                 * suspended, so we are safe to do non-deterministic operations such
                 * as prvAddCurrentTaskToDelayedList. */
                if( xShouldBlock == pdTRUE )
    12d0:	69bb      	ldr	r3, [r7, #24]
    12d2:	2b01      	cmp	r3, #1
    12d4:	d103      	bne.n	12de <xTaskGenericNotifyWait+0x86>
                {
                    traceTASK_NOTIFY_WAIT_BLOCK( uxIndexToWaitOn );
                    prvAddCurrentTaskToDelayedList( xTicksToWait, pdTRUE );
    12d6:	2101      	movs	r1, #1
    12d8:	6ab8      	ldr	r0, [r7, #40]	@ 0x28
    12da:	f000 fb99 	bl	1a10 <prvAddCurrentTaskToDelayedList>
                else
                {
                    mtCOVERAGE_TEST_MARKER();
                }
            }
            xAlreadyYielded = xTaskResumeAll();
    12de:	f7ff f9c3 	bl	668 <xTaskResumeAll>
    12e2:	6178      	str	r0, [r7, #20]

            /* Force a reschedule if xTaskResumeAll has not already done so. */
            if( ( xShouldBlock == pdTRUE ) && ( xAlreadyYielded == pdFALSE ) )
    12e4:	69bb      	ldr	r3, [r7, #24]
    12e6:	2b01      	cmp	r3, #1
    12e8:	d10a      	bne.n	1300 <xTaskGenericNotifyWait+0xa8>
    12ea:	697b      	ldr	r3, [r7, #20]
    12ec:	2b00      	cmp	r3, #0
    12ee:	d107      	bne.n	1300 <xTaskGenericNotifyWait+0xa8>
            {
                taskYIELD_WITHIN_API();
    12f0:	4b21      	ldr	r3, [pc, #132]	@ (1378 <xTaskGenericNotifyWait+0x120>)
    12f2:	f04f 5280 	mov.w	r2, #268435456	@ 0x10000000
    12f6:	601a      	str	r2, [r3, #0]
    12f8:	f3bf 8f4f 	dsb	sy
    12fc:	f3bf 8f6f 	isb	sy
            {
                mtCOVERAGE_TEST_MARKER();
            }
        }

        taskENTER_CRITICAL();
    1300:	f000 ff54 	bl	21ac <vPortEnterCritical>
        {
            traceTASK_NOTIFY_WAIT( uxIndexToWaitOn );

            if( pulNotificationValue != NULL )
    1304:	683b      	ldr	r3, [r7, #0]
    1306:	2b00      	cmp	r3, #0
    1308:	d008      	beq.n	131c <xTaskGenericNotifyWait+0xc4>
            {
                /* Output the current notification value, which may or may not
                 * have changed. */
                *pulNotificationValue = pxCurrentTCB->ulNotifiedValue[ uxIndexToWaitOn ];
    130a:	4b1a      	ldr	r3, [pc, #104]	@ (1374 <xTaskGenericNotifyWait+0x11c>)
    130c:	681a      	ldr	r2, [r3, #0]
    130e:	68fb      	ldr	r3, [r7, #12]
    1310:	3310      	adds	r3, #16
    1312:	009b      	lsls	r3, r3, #2
    1314:	4413      	add	r3, r2
    1316:	685a      	ldr	r2, [r3, #4]
    1318:	683b      	ldr	r3, [r7, #0]
    131a:	601a      	str	r2, [r3, #0]

            /* If ucNotifyValue is set then either the task never entered the
             * blocked state (because a notification was already pending) or the
             * task unblocked because of a notification.  Otherwise the task
             * unblocked because of a timeout. */
            if( pxCurrentTCB->ucNotifyState[ uxIndexToWaitOn ] != taskNOTIFICATION_RECEIVED )
    131c:	4b15      	ldr	r3, [pc, #84]	@ (1374 <xTaskGenericNotifyWait+0x11c>)
    131e:	681a      	ldr	r2, [r3, #0]
    1320:	68fb      	ldr	r3, [r7, #12]
    1322:	4413      	add	r3, r2
    1324:	3348      	adds	r3, #72	@ 0x48
    1326:	781b      	ldrb	r3, [r3, #0]
    1328:	b2db      	uxtb	r3, r3
    132a:	2b02      	cmp	r3, #2
    132c:	d002      	beq.n	1334 <xTaskGenericNotifyWait+0xdc>
            {
                /* A notification was not received. */
                xReturn = pdFALSE;
    132e:	2300      	movs	r3, #0
    1330:	61fb      	str	r3, [r7, #28]
    1332:	e010      	b.n	1356 <xTaskGenericNotifyWait+0xfe>
            }
            else
            {
                /* A notification was already pending or a notification was
                 * received while the task was waiting. */
                pxCurrentTCB->ulNotifiedValue[ uxIndexToWaitOn ] &= ~ulBitsToClearOnExit;
    1334:	4b0f      	ldr	r3, [pc, #60]	@ (1374 <xTaskGenericNotifyWait+0x11c>)
    1336:	681a      	ldr	r2, [r3, #0]
    1338:	68fb      	ldr	r3, [r7, #12]
    133a:	3310      	adds	r3, #16
    133c:	009b      	lsls	r3, r3, #2
    133e:	4413      	add	r3, r2
    1340:	6859      	ldr	r1, [r3, #4]
    1342:	687b      	ldr	r3, [r7, #4]
    1344:	43db      	mvns	r3, r3
    1346:	4019      	ands	r1, r3
    1348:	68fb      	ldr	r3, [r7, #12]
    134a:	3310      	adds	r3, #16
    134c:	009b      	lsls	r3, r3, #2
    134e:	4413      	add	r3, r2
    1350:	6059      	str	r1, [r3, #4]
                xReturn = pdTRUE;
    1352:	2301      	movs	r3, #1
    1354:	61fb      	str	r3, [r7, #28]
            }

            pxCurrentTCB->ucNotifyState[ uxIndexToWaitOn ] = taskNOT_WAITING_NOTIFICATION;
    1356:	4b07      	ldr	r3, [pc, #28]	@ (1374 <xTaskGenericNotifyWait+0x11c>)
    1358:	681a      	ldr	r2, [r3, #0]
    135a:	68fb      	ldr	r3, [r7, #12]
    135c:	4413      	add	r3, r2
    135e:	3348      	adds	r3, #72	@ 0x48
    1360:	2200      	movs	r2, #0
    1362:	701a      	strb	r2, [r3, #0]
        }
        taskEXIT_CRITICAL();
    1364:	f000 ff3c 	bl	21e0 <vPortExitCritical>

        traceRETURN_xTaskGenericNotifyWait( xReturn );

        return xReturn;
    1368:	69fb      	ldr	r3, [r7, #28]
    }
    136a:	4618      	mov	r0, r3
    136c:	3720      	adds	r7, #32
    136e:	46bd      	mov	sp, r7
    1370:	bd80      	pop	{r7, pc}
    1372:	bf00      	nop
    1374:	20000004 	andcs	r0, r0, r4
    1378:	e000ed04 	and	lr, r0, r4, lsl #26

0000137c <xTaskGenericNotify>:
    BaseType_t xTaskGenericNotify( TaskHandle_t xTaskToNotify,
                                   UBaseType_t uxIndexToNotify,
                                   uint32_t ulValue,
                                   eNotifyAction eAction,
                                   uint32_t * pulPreviousNotificationValue )
    {
    137c:	b580      	push	{r7, lr}
    137e:	b08a      	sub	sp, #40	@ 0x28
    1380:	af00      	add	r7, sp, #0
    1382:	60f8      	str	r0, [r7, #12]
    1384:	60b9      	str	r1, [r7, #8]
    1386:	607a      	str	r2, [r7, #4]
    1388:	70fb      	strb	r3, [r7, #3]
        TCB_t * pxTCB;
        BaseType_t xReturn = pdPASS;
    138a:	2301      	movs	r3, #1
    138c:	627b      	str	r3, [r7, #36]	@ 0x24

        traceENTER_xTaskGenericNotify( xTaskToNotify, uxIndexToNotify, ulValue, eAction, pulPreviousNotificationValue );

        configASSERT( uxIndexToNotify < configTASK_NOTIFICATION_ARRAY_ENTRIES );
        configASSERT( xTaskToNotify );
        pxTCB = xTaskToNotify;
    138e:	68fb      	ldr	r3, [r7, #12]
    1390:	623b      	str	r3, [r7, #32]

        taskENTER_CRITICAL();
    1392:	f000 ff0b 	bl	21ac <vPortEnterCritical>
        {
            if( pulPreviousNotificationValue != NULL )
    1396:	6b3b      	ldr	r3, [r7, #48]	@ 0x30
    1398:	2b00      	cmp	r3, #0
    139a:	d007      	beq.n	13ac <xTaskGenericNotify+0x30>
            {
                *pulPreviousNotificationValue = pxTCB->ulNotifiedValue[ uxIndexToNotify ];
    139c:	6a3a      	ldr	r2, [r7, #32]
    139e:	68bb      	ldr	r3, [r7, #8]
    13a0:	3310      	adds	r3, #16
    13a2:	009b      	lsls	r3, r3, #2
    13a4:	4413      	add	r3, r2
    13a6:	685a      	ldr	r2, [r3, #4]
    13a8:	6b3b      	ldr	r3, [r7, #48]	@ 0x30
    13aa:	601a      	str	r2, [r3, #0]
            }

            ucOriginalNotifyState = pxTCB->ucNotifyState[ uxIndexToNotify ];
    13ac:	6a3a      	ldr	r2, [r7, #32]
    13ae:	68bb      	ldr	r3, [r7, #8]
    13b0:	4413      	add	r3, r2
    13b2:	3348      	adds	r3, #72	@ 0x48
    13b4:	781b      	ldrb	r3, [r3, #0]
    13b6:	77fb      	strb	r3, [r7, #31]

            pxTCB->ucNotifyState[ uxIndexToNotify ] = taskNOTIFICATION_RECEIVED;
    13b8:	6a3a      	ldr	r2, [r7, #32]
    13ba:	68bb      	ldr	r3, [r7, #8]
    13bc:	4413      	add	r3, r2
    13be:	3348      	adds	r3, #72	@ 0x48
    13c0:	2202      	movs	r2, #2
    13c2:	701a      	strb	r2, [r3, #0]

            switch( eAction )
    13c4:	78fb      	ldrb	r3, [r7, #3]
    13c6:	2b04      	cmp	r3, #4
    13c8:	d83f      	bhi.n	144a <xTaskGenericNotify+0xce>
    13ca:	a201      	add	r2, pc, #4	@ (adr r2, 13d0 <xTaskGenericNotify+0x54>)
    13cc:	f852 f023 	ldr.w	pc, [r2, r3, lsl #2]
    13d0:	0000144b 	andeq	r1, r0, fp, asr #8
    13d4:	000013e5 	andeq	r1, r0, r5, ror #7
    13d8:	00001403 	andeq	r1, r0, r3, lsl #8
    13dc:	0000141f 	andeq	r1, r0, pc, lsl r4
    13e0:	0000142f 	andeq	r1, r0, pc, lsr #8
            {
                case eSetBits:
                    pxTCB->ulNotifiedValue[ uxIndexToNotify ] |= ulValue;
    13e4:	6a3a      	ldr	r2, [r7, #32]
    13e6:	68bb      	ldr	r3, [r7, #8]
    13e8:	3310      	adds	r3, #16
    13ea:	009b      	lsls	r3, r3, #2
    13ec:	4413      	add	r3, r2
    13ee:	685a      	ldr	r2, [r3, #4]
    13f0:	687b      	ldr	r3, [r7, #4]
    13f2:	431a      	orrs	r2, r3
    13f4:	6a39      	ldr	r1, [r7, #32]
    13f6:	68bb      	ldr	r3, [r7, #8]
    13f8:	3310      	adds	r3, #16
    13fa:	009b      	lsls	r3, r3, #2
    13fc:	440b      	add	r3, r1
    13fe:	605a      	str	r2, [r3, #4]
                    break;
    1400:	e024      	b.n	144c <xTaskGenericNotify+0xd0>

                case eIncrement:
                    ( pxTCB->ulNotifiedValue[ uxIndexToNotify ] )++;
    1402:	6a3a      	ldr	r2, [r7, #32]
    1404:	68bb      	ldr	r3, [r7, #8]
    1406:	3310      	adds	r3, #16
    1408:	009b      	lsls	r3, r3, #2
    140a:	4413      	add	r3, r2
    140c:	685b      	ldr	r3, [r3, #4]
    140e:	1c5a      	adds	r2, r3, #1
    1410:	6a39      	ldr	r1, [r7, #32]
    1412:	68bb      	ldr	r3, [r7, #8]
    1414:	3310      	adds	r3, #16
    1416:	009b      	lsls	r3, r3, #2
    1418:	440b      	add	r3, r1
    141a:	605a      	str	r2, [r3, #4]
                    break;
    141c:	e016      	b.n	144c <xTaskGenericNotify+0xd0>

                case eSetValueWithOverwrite:
                    pxTCB->ulNotifiedValue[ uxIndexToNotify ] = ulValue;
    141e:	6a3a      	ldr	r2, [r7, #32]
    1420:	68bb      	ldr	r3, [r7, #8]
    1422:	3310      	adds	r3, #16
    1424:	009b      	lsls	r3, r3, #2
    1426:	4413      	add	r3, r2
    1428:	687a      	ldr	r2, [r7, #4]
    142a:	605a      	str	r2, [r3, #4]
                    break;
    142c:	e00e      	b.n	144c <xTaskGenericNotify+0xd0>

                case eSetValueWithoutOverwrite:

                    if( ucOriginalNotifyState != taskNOTIFICATION_RECEIVED )
    142e:	7ffb      	ldrb	r3, [r7, #31]
    1430:	2b02      	cmp	r3, #2
    1432:	d007      	beq.n	1444 <xTaskGenericNotify+0xc8>
                    {
                        pxTCB->ulNotifiedValue[ uxIndexToNotify ] = ulValue;
    1434:	6a3a      	ldr	r2, [r7, #32]
    1436:	68bb      	ldr	r3, [r7, #8]
    1438:	3310      	adds	r3, #16
    143a:	009b      	lsls	r3, r3, #2
    143c:	4413      	add	r3, r2
    143e:	687a      	ldr	r2, [r7, #4]
    1440:	605a      	str	r2, [r3, #4]
                    {
                        /* The value could not be written to the task. */
                        xReturn = pdFAIL;
                    }

                    break;
    1442:	e003      	b.n	144c <xTaskGenericNotify+0xd0>
                        xReturn = pdFAIL;
    1444:	2300      	movs	r3, #0
    1446:	627b      	str	r3, [r7, #36]	@ 0x24
                    break;
    1448:	e000      	b.n	144c <xTaskGenericNotify+0xd0>
                    /* Should not get here if all enums are handled.
                     * Artificially force an assert by testing a value the
                     * compiler can't assume is const. */
                    configASSERT( xTickCount == ( TickType_t ) 0 );

                    break;
    144a:	bf00      	nop

            traceTASK_NOTIFY( uxIndexToNotify );

            /* If the task is in the blocked state specifically to wait for a
             * notification then unblock it now. */
            if( ucOriginalNotifyState == taskWAITING_NOTIFICATION )
    144c:	7ffb      	ldrb	r3, [r7, #31]
    144e:	2b01      	cmp	r3, #1
    1450:	d16e      	bne.n	1530 <xTaskGenericNotify+0x1b4>
            {
                listREMOVE_ITEM( &( pxTCB->xStateListItem ) );
    1452:	6a3b      	ldr	r3, [r7, #32]
    1454:	695b      	ldr	r3, [r3, #20]
    1456:	61bb      	str	r3, [r7, #24]
    1458:	6a3b      	ldr	r3, [r7, #32]
    145a:	689b      	ldr	r3, [r3, #8]
    145c:	6a3a      	ldr	r2, [r7, #32]
    145e:	68d2      	ldr	r2, [r2, #12]
    1460:	609a      	str	r2, [r3, #8]
    1462:	6a3b      	ldr	r3, [r7, #32]
    1464:	68db      	ldr	r3, [r3, #12]
    1466:	6a3a      	ldr	r2, [r7, #32]
    1468:	6892      	ldr	r2, [r2, #8]
    146a:	605a      	str	r2, [r3, #4]
    146c:	69bb      	ldr	r3, [r7, #24]
    146e:	685a      	ldr	r2, [r3, #4]
    1470:	6a3b      	ldr	r3, [r7, #32]
    1472:	3304      	adds	r3, #4
    1474:	429a      	cmp	r2, r3
    1476:	d103      	bne.n	1480 <xTaskGenericNotify+0x104>
    1478:	6a3b      	ldr	r3, [r7, #32]
    147a:	68da      	ldr	r2, [r3, #12]
    147c:	69bb      	ldr	r3, [r7, #24]
    147e:	605a      	str	r2, [r3, #4]
    1480:	6a3b      	ldr	r3, [r7, #32]
    1482:	2200      	movs	r2, #0
    1484:	615a      	str	r2, [r3, #20]
    1486:	69bb      	ldr	r3, [r7, #24]
    1488:	681b      	ldr	r3, [r3, #0]
    148a:	1e5a      	subs	r2, r3, #1
    148c:	69bb      	ldr	r3, [r7, #24]
    148e:	601a      	str	r2, [r3, #0]
                prvAddTaskToReadyList( pxTCB );
    1490:	6a3b      	ldr	r3, [r7, #32]
    1492:	6adb      	ldr	r3, [r3, #44]	@ 0x2c
    1494:	2201      	movs	r2, #1
    1496:	409a      	lsls	r2, r3
    1498:	4b29      	ldr	r3, [pc, #164]	@ (1540 <xTaskGenericNotify+0x1c4>)
    149a:	681b      	ldr	r3, [r3, #0]
    149c:	4313      	orrs	r3, r2
    149e:	4a28      	ldr	r2, [pc, #160]	@ (1540 <xTaskGenericNotify+0x1c4>)
    14a0:	6013      	str	r3, [r2, #0]
    14a2:	6a3b      	ldr	r3, [r7, #32]
    14a4:	6ada      	ldr	r2, [r3, #44]	@ 0x2c
    14a6:	4927      	ldr	r1, [pc, #156]	@ (1544 <xTaskGenericNotify+0x1c8>)
    14a8:	4613      	mov	r3, r2
    14aa:	009b      	lsls	r3, r3, #2
    14ac:	4413      	add	r3, r2
    14ae:	009b      	lsls	r3, r3, #2
    14b0:	440b      	add	r3, r1
    14b2:	3304      	adds	r3, #4
    14b4:	681b      	ldr	r3, [r3, #0]
    14b6:	617b      	str	r3, [r7, #20]
    14b8:	6a3b      	ldr	r3, [r7, #32]
    14ba:	697a      	ldr	r2, [r7, #20]
    14bc:	609a      	str	r2, [r3, #8]
    14be:	697b      	ldr	r3, [r7, #20]
    14c0:	689a      	ldr	r2, [r3, #8]
    14c2:	6a3b      	ldr	r3, [r7, #32]
    14c4:	60da      	str	r2, [r3, #12]
    14c6:	697b      	ldr	r3, [r7, #20]
    14c8:	689b      	ldr	r3, [r3, #8]
    14ca:	6a3a      	ldr	r2, [r7, #32]
    14cc:	3204      	adds	r2, #4
    14ce:	605a      	str	r2, [r3, #4]
    14d0:	6a3b      	ldr	r3, [r7, #32]
    14d2:	1d1a      	adds	r2, r3, #4
    14d4:	697b      	ldr	r3, [r7, #20]
    14d6:	609a      	str	r2, [r3, #8]
    14d8:	6a3b      	ldr	r3, [r7, #32]
    14da:	6ada      	ldr	r2, [r3, #44]	@ 0x2c
    14dc:	4613      	mov	r3, r2
    14de:	009b      	lsls	r3, r3, #2
    14e0:	4413      	add	r3, r2
    14e2:	009b      	lsls	r3, r3, #2
    14e4:	4a17      	ldr	r2, [pc, #92]	@ (1544 <xTaskGenericNotify+0x1c8>)
    14e6:	441a      	add	r2, r3
    14e8:	6a3b      	ldr	r3, [r7, #32]
    14ea:	615a      	str	r2, [r3, #20]
    14ec:	6a3b      	ldr	r3, [r7, #32]
    14ee:	6ada      	ldr	r2, [r3, #44]	@ 0x2c
    14f0:	4914      	ldr	r1, [pc, #80]	@ (1544 <xTaskGenericNotify+0x1c8>)
    14f2:	4613      	mov	r3, r2
    14f4:	009b      	lsls	r3, r3, #2
    14f6:	4413      	add	r3, r2
    14f8:	009b      	lsls	r3, r3, #2
    14fa:	440b      	add	r3, r1
    14fc:	681b      	ldr	r3, [r3, #0]
    14fe:	6a3a      	ldr	r2, [r7, #32]
    1500:	6ad2      	ldr	r2, [r2, #44]	@ 0x2c
    1502:	1c59      	adds	r1, r3, #1
    1504:	480f      	ldr	r0, [pc, #60]	@ (1544 <xTaskGenericNotify+0x1c8>)
    1506:	4613      	mov	r3, r2
    1508:	009b      	lsls	r3, r3, #2
    150a:	4413      	add	r3, r2
    150c:	009b      	lsls	r3, r3, #2
    150e:	4403      	add	r3, r0
    1510:	6019      	str	r1, [r3, #0]
                }
                #endif

                /* Check if the notified task has a priority above the currently
                 * executing task. */
                taskYIELD_ANY_CORE_IF_USING_PREEMPTION( pxTCB );
    1512:	4b0d      	ldr	r3, [pc, #52]	@ (1548 <xTaskGenericNotify+0x1cc>)
    1514:	681b      	ldr	r3, [r3, #0]
    1516:	6ada      	ldr	r2, [r3, #44]	@ 0x2c
    1518:	6a3b      	ldr	r3, [r7, #32]
    151a:	6adb      	ldr	r3, [r3, #44]	@ 0x2c
    151c:	429a      	cmp	r2, r3
    151e:	d207      	bcs.n	1530 <xTaskGenericNotify+0x1b4>
    1520:	4b0a      	ldr	r3, [pc, #40]	@ (154c <xTaskGenericNotify+0x1d0>)
    1522:	f04f 5280 	mov.w	r2, #268435456	@ 0x10000000
    1526:	601a      	str	r2, [r3, #0]
    1528:	f3bf 8f4f 	dsb	sy
    152c:	f3bf 8f6f 	isb	sy
            else
            {
                mtCOVERAGE_TEST_MARKER();
            }
        }
        taskEXIT_CRITICAL();
    1530:	f000 fe56 	bl	21e0 <vPortExitCritical>

        traceRETURN_xTaskGenericNotify( xReturn );

        return xReturn;
    1534:	6a7b      	ldr	r3, [r7, #36]	@ 0x24
    }
    1536:	4618      	mov	r0, r3
    1538:	3728      	adds	r7, #40	@ 0x28
    153a:	46bd      	mov	sp, r7
    153c:	bd80      	pop	{r7, pc}
    153e:	bf00      	nop
    1540:	200000b8 	strhcs	r0, [r0], -r8
    1544:	20000008 	andcs	r0, r0, r8
    1548:	20000004 	andcs	r0, r0, r4
    154c:	e000ed04 	and	lr, r0, r4, lsl #26

00001550 <xTaskGenericNotifyFromISR>:
                                          UBaseType_t uxIndexToNotify,
                                          uint32_t ulValue,
                                          eNotifyAction eAction,
                                          uint32_t * pulPreviousNotificationValue,
                                          BaseType_t * pxHigherPriorityTaskWoken )
    {
    1550:	b480      	push	{r7}
    1552:	b08f      	sub	sp, #60	@ 0x3c
    1554:	af00      	add	r7, sp, #0
    1556:	60f8      	str	r0, [r7, #12]
    1558:	60b9      	str	r1, [r7, #8]
    155a:	607a      	str	r2, [r7, #4]
    155c:	70fb      	strb	r3, [r7, #3]
        TCB_t * pxTCB;
        uint8_t ucOriginalNotifyState;
        BaseType_t xReturn = pdPASS;
    155e:	2301      	movs	r3, #1
    1560:	637b      	str	r3, [r7, #52]	@ 0x34
         * simple as possible.  More information (albeit Cortex-M specific) is
         * provided on the following link:
         * https://www.FreeRTOS.org/RTOS-Cortex-M3-M4.html */
        portASSERT_IF_INTERRUPT_PRIORITY_INVALID();

        pxTCB = xTaskToNotify;
    1562:	68fb      	ldr	r3, [r7, #12]
    1564:	633b      	str	r3, [r7, #48]	@ 0x30

portFORCE_INLINE static uint32_t ulPortRaiseBASEPRI( void )
{
    uint32_t ulOriginalBASEPRI, ulNewBASEPRI;

    __asm volatile
    1566:	f3ef 8211 	mrs	r2, BASEPRI
    156a:	f04f 0301 	mov.w	r3, #1
    156e:	f383 8811 	msr	BASEPRI, r3
    1572:	f3bf 8f6f 	isb	sy
    1576:	f3bf 8f4f 	dsb	sy
    157a:	61ba      	str	r2, [r7, #24]
    157c:	617b      	str	r3, [r7, #20]
        : "=r" ( ulOriginalBASEPRI ), "=r" ( ulNewBASEPRI ) : "i" ( configMAX_SYSCALL_INTERRUPT_PRIORITY ) : "memory"
    );

    /* This return will not be reached but is necessary to prevent compiler
     * warnings. */
    return ulOriginalBASEPRI;
    157e:	69bb      	ldr	r3, [r7, #24]

        /* MISRA Ref 4.7.1 [Return value shall be checked] */
        /* More details at: https://github.com/FreeRTOS/FreeRTOS-Kernel/blob/main/MISRA.md#dir-47 */
        /* coverity[misra_c_2012_directive_4_7_violation] */
        uxSavedInterruptStatus = ( UBaseType_t ) taskENTER_CRITICAL_FROM_ISR();
    1580:	62fb      	str	r3, [r7, #44]	@ 0x2c
        {
            if( pulPreviousNotificationValue != NULL )
    1582:	6c3b      	ldr	r3, [r7, #64]	@ 0x40
    1584:	2b00      	cmp	r3, #0
    1586:	d007      	beq.n	1598 <xTaskGenericNotifyFromISR+0x48>
            {
                *pulPreviousNotificationValue = pxTCB->ulNotifiedValue[ uxIndexToNotify ];
    1588:	6b3a      	ldr	r2, [r7, #48]	@ 0x30
    158a:	68bb      	ldr	r3, [r7, #8]
    158c:	3310      	adds	r3, #16
    158e:	009b      	lsls	r3, r3, #2
    1590:	4413      	add	r3, r2
    1592:	685a      	ldr	r2, [r3, #4]
    1594:	6c3b      	ldr	r3, [r7, #64]	@ 0x40
    1596:	601a      	str	r2, [r3, #0]
            }

            ucOriginalNotifyState = pxTCB->ucNotifyState[ uxIndexToNotify ];
    1598:	6b3a      	ldr	r2, [r7, #48]	@ 0x30
    159a:	68bb      	ldr	r3, [r7, #8]
    159c:	4413      	add	r3, r2
    159e:	3348      	adds	r3, #72	@ 0x48
    15a0:	781b      	ldrb	r3, [r3, #0]
    15a2:	f887 302b 	strb.w	r3, [r7, #43]	@ 0x2b
            pxTCB->ucNotifyState[ uxIndexToNotify ] = taskNOTIFICATION_RECEIVED;
    15a6:	6b3a      	ldr	r2, [r7, #48]	@ 0x30
    15a8:	68bb      	ldr	r3, [r7, #8]
    15aa:	4413      	add	r3, r2
    15ac:	3348      	adds	r3, #72	@ 0x48
    15ae:	2202      	movs	r2, #2
    15b0:	701a      	strb	r2, [r3, #0]

            switch( eAction )
    15b2:	78fb      	ldrb	r3, [r7, #3]
    15b4:	2b04      	cmp	r3, #4
    15b6:	d841      	bhi.n	163c <xTaskGenericNotifyFromISR+0xec>
    15b8:	a201      	add	r2, pc, #4	@ (adr r2, 15c0 <xTaskGenericNotifyFromISR+0x70>)
    15ba:	f852 f023 	ldr.w	pc, [r2, r3, lsl #2]
    15be:	bf00      	nop
    15c0:	0000163d 	andeq	r1, r0, sp, lsr r6
    15c4:	000015d5 	ldrdeq	r1, [r0], -r5
    15c8:	000015f3 	strdeq	r1, [r0], -r3
    15cc:	0000160f 	andeq	r1, r0, pc, lsl #12
    15d0:	0000161f 	andeq	r1, r0, pc, lsl r6
            {
                case eSetBits:
                    pxTCB->ulNotifiedValue[ uxIndexToNotify ] |= ulValue;
    15d4:	6b3a      	ldr	r2, [r7, #48]	@ 0x30
    15d6:	68bb      	ldr	r3, [r7, #8]
    15d8:	3310      	adds	r3, #16
    15da:	009b      	lsls	r3, r3, #2
    15dc:	4413      	add	r3, r2
    15de:	685a      	ldr	r2, [r3, #4]
    15e0:	687b      	ldr	r3, [r7, #4]
    15e2:	431a      	orrs	r2, r3
    15e4:	6b39      	ldr	r1, [r7, #48]	@ 0x30
    15e6:	68bb      	ldr	r3, [r7, #8]
    15e8:	3310      	adds	r3, #16
    15ea:	009b      	lsls	r3, r3, #2
    15ec:	440b      	add	r3, r1
    15ee:	605a      	str	r2, [r3, #4]
                    break;
    15f0:	e025      	b.n	163e <xTaskGenericNotifyFromISR+0xee>

                case eIncrement:
                    ( pxTCB->ulNotifiedValue[ uxIndexToNotify ] )++;
    15f2:	6b3a      	ldr	r2, [r7, #48]	@ 0x30
    15f4:	68bb      	ldr	r3, [r7, #8]
    15f6:	3310      	adds	r3, #16
    15f8:	009b      	lsls	r3, r3, #2
    15fa:	4413      	add	r3, r2
    15fc:	685b      	ldr	r3, [r3, #4]
    15fe:	1c5a      	adds	r2, r3, #1
    1600:	6b39      	ldr	r1, [r7, #48]	@ 0x30
    1602:	68bb      	ldr	r3, [r7, #8]
    1604:	3310      	adds	r3, #16
    1606:	009b      	lsls	r3, r3, #2
    1608:	440b      	add	r3, r1
    160a:	605a      	str	r2, [r3, #4]
                    break;
    160c:	e017      	b.n	163e <xTaskGenericNotifyFromISR+0xee>

                case eSetValueWithOverwrite:
                    pxTCB->ulNotifiedValue[ uxIndexToNotify ] = ulValue;
    160e:	6b3a      	ldr	r2, [r7, #48]	@ 0x30
    1610:	68bb      	ldr	r3, [r7, #8]
    1612:	3310      	adds	r3, #16
    1614:	009b      	lsls	r3, r3, #2
    1616:	4413      	add	r3, r2
    1618:	687a      	ldr	r2, [r7, #4]
    161a:	605a      	str	r2, [r3, #4]
                    break;
    161c:	e00f      	b.n	163e <xTaskGenericNotifyFromISR+0xee>

                case eSetValueWithoutOverwrite:

                    if( ucOriginalNotifyState != taskNOTIFICATION_RECEIVED )
    161e:	f897 302b 	ldrb.w	r3, [r7, #43]	@ 0x2b
    1622:	2b02      	cmp	r3, #2
    1624:	d007      	beq.n	1636 <xTaskGenericNotifyFromISR+0xe6>
                    {
                        pxTCB->ulNotifiedValue[ uxIndexToNotify ] = ulValue;
    1626:	6b3a      	ldr	r2, [r7, #48]	@ 0x30
    1628:	68bb      	ldr	r3, [r7, #8]
    162a:	3310      	adds	r3, #16
    162c:	009b      	lsls	r3, r3, #2
    162e:	4413      	add	r3, r2
    1630:	687a      	ldr	r2, [r7, #4]
    1632:	605a      	str	r2, [r3, #4]
                    {
                        /* The value could not be written to the task. */
                        xReturn = pdFAIL;
                    }

                    break;
    1634:	e003      	b.n	163e <xTaskGenericNotifyFromISR+0xee>
                        xReturn = pdFAIL;
    1636:	2300      	movs	r3, #0
    1638:	637b      	str	r3, [r7, #52]	@ 0x34
                    break;
    163a:	e000      	b.n	163e <xTaskGenericNotifyFromISR+0xee>

                    /* Should not get here if all enums are handled.
                     * Artificially force an assert by testing a value the
                     * compiler can't assume is const. */
                    configASSERT( xTickCount == ( TickType_t ) 0 );
                    break;
    163c:	bf00      	nop

            traceTASK_NOTIFY_FROM_ISR( uxIndexToNotify );

            /* If the task is in the blocked state specifically to wait for a
             * notification then unblock it now. */
            if( ucOriginalNotifyState == taskWAITING_NOTIFICATION )
    163e:	f897 302b 	ldrb.w	r3, [r7, #43]	@ 0x2b
    1642:	2b01      	cmp	r3, #1
    1644:	f040 8091 	bne.w	176a <xTaskGenericNotifyFromISR+0x21a>
            {
                /* The task should not have been on an event list. */
                configASSERT( listLIST_ITEM_CONTAINER( &( pxTCB->xEventListItem ) ) == NULL );

                if( uxSchedulerSuspended == ( UBaseType_t ) 0U )
    1648:	4b4e      	ldr	r3, [pc, #312]	@ (1784 <xTaskGenericNotifyFromISR+0x234>)
    164a:	681b      	ldr	r3, [r3, #0]
    164c:	2b00      	cmp	r3, #0
    164e:	d160      	bne.n	1712 <xTaskGenericNotifyFromISR+0x1c2>
                {
                    listREMOVE_ITEM( &( pxTCB->xStateListItem ) );
    1650:	6b3b      	ldr	r3, [r7, #48]	@ 0x30
    1652:	695b      	ldr	r3, [r3, #20]
    1654:	623b      	str	r3, [r7, #32]
    1656:	6b3b      	ldr	r3, [r7, #48]	@ 0x30
    1658:	689b      	ldr	r3, [r3, #8]
    165a:	6b3a      	ldr	r2, [r7, #48]	@ 0x30
    165c:	68d2      	ldr	r2, [r2, #12]
    165e:	609a      	str	r2, [r3, #8]
    1660:	6b3b      	ldr	r3, [r7, #48]	@ 0x30
    1662:	68db      	ldr	r3, [r3, #12]
    1664:	6b3a      	ldr	r2, [r7, #48]	@ 0x30
    1666:	6892      	ldr	r2, [r2, #8]
    1668:	605a      	str	r2, [r3, #4]
    166a:	6a3b      	ldr	r3, [r7, #32]
    166c:	685a      	ldr	r2, [r3, #4]
    166e:	6b3b      	ldr	r3, [r7, #48]	@ 0x30
    1670:	3304      	adds	r3, #4
    1672:	429a      	cmp	r2, r3
    1674:	d103      	bne.n	167e <xTaskGenericNotifyFromISR+0x12e>
    1676:	6b3b      	ldr	r3, [r7, #48]	@ 0x30
    1678:	68da      	ldr	r2, [r3, #12]
    167a:	6a3b      	ldr	r3, [r7, #32]
    167c:	605a      	str	r2, [r3, #4]
    167e:	6b3b      	ldr	r3, [r7, #48]	@ 0x30
    1680:	2200      	movs	r2, #0
    1682:	615a      	str	r2, [r3, #20]
    1684:	6a3b      	ldr	r3, [r7, #32]
    1686:	681b      	ldr	r3, [r3, #0]
    1688:	1e5a      	subs	r2, r3, #1
    168a:	6a3b      	ldr	r3, [r7, #32]
    168c:	601a      	str	r2, [r3, #0]
                    prvAddTaskToReadyList( pxTCB );
    168e:	6b3b      	ldr	r3, [r7, #48]	@ 0x30
    1690:	6adb      	ldr	r3, [r3, #44]	@ 0x2c
    1692:	2201      	movs	r2, #1
    1694:	409a      	lsls	r2, r3
    1696:	4b3c      	ldr	r3, [pc, #240]	@ (1788 <xTaskGenericNotifyFromISR+0x238>)
    1698:	681b      	ldr	r3, [r3, #0]
    169a:	4313      	orrs	r3, r2
    169c:	4a3a      	ldr	r2, [pc, #232]	@ (1788 <xTaskGenericNotifyFromISR+0x238>)
    169e:	6013      	str	r3, [r2, #0]
    16a0:	6b3b      	ldr	r3, [r7, #48]	@ 0x30
    16a2:	6ada      	ldr	r2, [r3, #44]	@ 0x2c
    16a4:	4939      	ldr	r1, [pc, #228]	@ (178c <xTaskGenericNotifyFromISR+0x23c>)
    16a6:	4613      	mov	r3, r2
    16a8:	009b      	lsls	r3, r3, #2
    16aa:	4413      	add	r3, r2
    16ac:	009b      	lsls	r3, r3, #2
    16ae:	440b      	add	r3, r1
    16b0:	3304      	adds	r3, #4
    16b2:	681b      	ldr	r3, [r3, #0]
    16b4:	61fb      	str	r3, [r7, #28]
    16b6:	6b3b      	ldr	r3, [r7, #48]	@ 0x30
    16b8:	69fa      	ldr	r2, [r7, #28]
    16ba:	609a      	str	r2, [r3, #8]
    16bc:	69fb      	ldr	r3, [r7, #28]
    16be:	689a      	ldr	r2, [r3, #8]
    16c0:	6b3b      	ldr	r3, [r7, #48]	@ 0x30
    16c2:	60da      	str	r2, [r3, #12]
    16c4:	69fb      	ldr	r3, [r7, #28]
    16c6:	689b      	ldr	r3, [r3, #8]
    16c8:	6b3a      	ldr	r2, [r7, #48]	@ 0x30
    16ca:	3204      	adds	r2, #4
    16cc:	605a      	str	r2, [r3, #4]
    16ce:	6b3b      	ldr	r3, [r7, #48]	@ 0x30
    16d0:	1d1a      	adds	r2, r3, #4
    16d2:	69fb      	ldr	r3, [r7, #28]
    16d4:	609a      	str	r2, [r3, #8]
    16d6:	6b3b      	ldr	r3, [r7, #48]	@ 0x30
    16d8:	6ada      	ldr	r2, [r3, #44]	@ 0x2c
    16da:	4613      	mov	r3, r2
    16dc:	009b      	lsls	r3, r3, #2
    16de:	4413      	add	r3, r2
    16e0:	009b      	lsls	r3, r3, #2
    16e2:	4a2a      	ldr	r2, [pc, #168]	@ (178c <xTaskGenericNotifyFromISR+0x23c>)
    16e4:	441a      	add	r2, r3
    16e6:	6b3b      	ldr	r3, [r7, #48]	@ 0x30
    16e8:	615a      	str	r2, [r3, #20]
    16ea:	6b3b      	ldr	r3, [r7, #48]	@ 0x30
    16ec:	6ada      	ldr	r2, [r3, #44]	@ 0x2c
    16ee:	4927      	ldr	r1, [pc, #156]	@ (178c <xTaskGenericNotifyFromISR+0x23c>)
    16f0:	4613      	mov	r3, r2
    16f2:	009b      	lsls	r3, r3, #2
    16f4:	4413      	add	r3, r2
    16f6:	009b      	lsls	r3, r3, #2
    16f8:	440b      	add	r3, r1
    16fa:	681b      	ldr	r3, [r3, #0]
    16fc:	6b3a      	ldr	r2, [r7, #48]	@ 0x30
    16fe:	6ad2      	ldr	r2, [r2, #44]	@ 0x2c
    1700:	1c59      	adds	r1, r3, #1
    1702:	4822      	ldr	r0, [pc, #136]	@ (178c <xTaskGenericNotifyFromISR+0x23c>)
    1704:	4613      	mov	r3, r2
    1706:	009b      	lsls	r3, r3, #2
    1708:	4413      	add	r3, r2
    170a:	009b      	lsls	r3, r3, #2
    170c:	4403      	add	r3, r0
    170e:	6019      	str	r1, [r3, #0]
    1710:	e01b      	b.n	174a <xTaskGenericNotifyFromISR+0x1fa>
                }
                else
                {
                    /* The delayed and ready lists cannot be accessed, so hold
                     * this task pending until the scheduler is resumed. */
                    listINSERT_END( &( xPendingReadyList ), &( pxTCB->xEventListItem ) );
    1712:	4b1f      	ldr	r3, [pc, #124]	@ (1790 <xTaskGenericNotifyFromISR+0x240>)
    1714:	685b      	ldr	r3, [r3, #4]
    1716:	627b      	str	r3, [r7, #36]	@ 0x24
    1718:	6b3b      	ldr	r3, [r7, #48]	@ 0x30
    171a:	6a7a      	ldr	r2, [r7, #36]	@ 0x24
    171c:	61da      	str	r2, [r3, #28]
    171e:	6a7b      	ldr	r3, [r7, #36]	@ 0x24
    1720:	689a      	ldr	r2, [r3, #8]
    1722:	6b3b      	ldr	r3, [r7, #48]	@ 0x30
    1724:	621a      	str	r2, [r3, #32]
    1726:	6a7b      	ldr	r3, [r7, #36]	@ 0x24
    1728:	689b      	ldr	r3, [r3, #8]
    172a:	6b3a      	ldr	r2, [r7, #48]	@ 0x30
    172c:	3218      	adds	r2, #24
    172e:	605a      	str	r2, [r3, #4]
    1730:	6b3b      	ldr	r3, [r7, #48]	@ 0x30
    1732:	f103 0218 	add.w	r2, r3, #24
    1736:	6a7b      	ldr	r3, [r7, #36]	@ 0x24
    1738:	609a      	str	r2, [r3, #8]
    173a:	6b3b      	ldr	r3, [r7, #48]	@ 0x30
    173c:	4a14      	ldr	r2, [pc, #80]	@ (1790 <xTaskGenericNotifyFromISR+0x240>)
    173e:	629a      	str	r2, [r3, #40]	@ 0x28
    1740:	4b13      	ldr	r3, [pc, #76]	@ (1790 <xTaskGenericNotifyFromISR+0x240>)
    1742:	681b      	ldr	r3, [r3, #0]
    1744:	3301      	adds	r3, #1
    1746:	4a12      	ldr	r2, [pc, #72]	@ (1790 <xTaskGenericNotifyFromISR+0x240>)
    1748:	6013      	str	r3, [r2, #0]
                }

                #if ( configNUMBER_OF_CORES == 1 )
                {
                    if( pxTCB->uxPriority > pxCurrentTCB->uxPriority )
    174a:	6b3b      	ldr	r3, [r7, #48]	@ 0x30
    174c:	6ada      	ldr	r2, [r3, #44]	@ 0x2c
    174e:	4b11      	ldr	r3, [pc, #68]	@ (1794 <xTaskGenericNotifyFromISR+0x244>)
    1750:	681b      	ldr	r3, [r3, #0]
    1752:	6adb      	ldr	r3, [r3, #44]	@ 0x2c
    1754:	429a      	cmp	r2, r3
    1756:	d908      	bls.n	176a <xTaskGenericNotifyFromISR+0x21a>
                    {
                        /* The notified task has a priority above the currently
                         * executing task so a yield is required. */
                        if( pxHigherPriorityTaskWoken != NULL )
    1758:	6c7b      	ldr	r3, [r7, #68]	@ 0x44
    175a:	2b00      	cmp	r3, #0
    175c:	d002      	beq.n	1764 <xTaskGenericNotifyFromISR+0x214>
                        {
                            *pxHigherPriorityTaskWoken = pdTRUE;
    175e:	6c7b      	ldr	r3, [r7, #68]	@ 0x44
    1760:	2201      	movs	r2, #1
    1762:	601a      	str	r2, [r3, #0]
                        }

                        /* Mark that a yield is pending in case the user is not
                         * using the "xHigherPriorityTaskWoken" parameter to an ISR
                         * safe FreeRTOS function. */
                        xYieldPendings[ 0 ] = pdTRUE;
    1764:	4b0c      	ldr	r3, [pc, #48]	@ (1798 <xTaskGenericNotifyFromISR+0x248>)
    1766:	2201      	movs	r2, #1
    1768:	601a      	str	r2, [r3, #0]
    176a:	6afb      	ldr	r3, [r7, #44]	@ 0x2c
    176c:	613b      	str	r3, [r7, #16]
}
/*-----------------------------------------------------------*/

portFORCE_INLINE static void vPortSetBASEPRI( uint32_t ulNewMaskValue )
{
    __asm volatile
    176e:	693b      	ldr	r3, [r7, #16]
    1770:	f383 8811 	msr	BASEPRI, r3
    (
        "   msr basepri, %0 " ::"r" ( ulNewMaskValue ) : "memory"
    );
}
    1774:	bf00      	nop
        }
        taskEXIT_CRITICAL_FROM_ISR( uxSavedInterruptStatus );

        traceRETURN_xTaskGenericNotifyFromISR( xReturn );

        return xReturn;
    1776:	6b7b      	ldr	r3, [r7, #52]	@ 0x34
    }
    1778:	4618      	mov	r0, r3
    177a:	373c      	adds	r7, #60	@ 0x3c
    177c:	46bd      	mov	sp, r7
    177e:	bc80      	pop	{r7}
    1780:	4770      	bx	lr
    1782:	bf00      	nop
    1784:	200000d8 	ldrdcs	r0, [r0], -r8
    1788:	200000b8 	strhcs	r0, [r0], -r8
    178c:	20000008 	andcs	r0, r0, r8
    1790:	2000009c 	mulcs	r0, ip, r0
    1794:	20000004 	andcs	r0, r0, r4
    1798:	200000c4 	andcs	r0, r0, r4, asr #1

0000179c <vTaskGenericNotifyGiveFromISR>:
#if ( configUSE_TASK_NOTIFICATIONS == 1 )

    void vTaskGenericNotifyGiveFromISR( TaskHandle_t xTaskToNotify,
                                        UBaseType_t uxIndexToNotify,
                                        BaseType_t * pxHigherPriorityTaskWoken )
    {
    179c:	b480      	push	{r7}
    179e:	b08f      	sub	sp, #60	@ 0x3c
    17a0:	af00      	add	r7, sp, #0
    17a2:	60f8      	str	r0, [r7, #12]
    17a4:	60b9      	str	r1, [r7, #8]
    17a6:	607a      	str	r2, [r7, #4]
         * simple as possible.  More information (albeit Cortex-M specific) is
         * provided on the following link:
         * https://www.FreeRTOS.org/RTOS-Cortex-M3-M4.html */
        portASSERT_IF_INTERRUPT_PRIORITY_INVALID();

        pxTCB = xTaskToNotify;
    17a8:	68fb      	ldr	r3, [r7, #12]
    17aa:	637b      	str	r3, [r7, #52]	@ 0x34
    __asm volatile
    17ac:	f3ef 8211 	mrs	r2, BASEPRI
    17b0:	f04f 0301 	mov.w	r3, #1
    17b4:	f383 8811 	msr	BASEPRI, r3
    17b8:	f3bf 8f6f 	isb	sy
    17bc:	f3bf 8f4f 	dsb	sy
    17c0:	61fa      	str	r2, [r7, #28]
    17c2:	61bb      	str	r3, [r7, #24]
    return ulOriginalBASEPRI;
    17c4:	69fb      	ldr	r3, [r7, #28]

        /* MISRA Ref 4.7.1 [Return value shall be checked] */
        /* More details at: https://github.com/FreeRTOS/FreeRTOS-Kernel/blob/main/MISRA.md#dir-47 */
        /* coverity[misra_c_2012_directive_4_7_violation] */
        uxSavedInterruptStatus = ( UBaseType_t ) taskENTER_CRITICAL_FROM_ISR();
    17c6:	633b      	str	r3, [r7, #48]	@ 0x30
        {
            ucOriginalNotifyState = pxTCB->ucNotifyState[ uxIndexToNotify ];
    17c8:	6b7a      	ldr	r2, [r7, #52]	@ 0x34
    17ca:	68bb      	ldr	r3, [r7, #8]
    17cc:	4413      	add	r3, r2
    17ce:	3348      	adds	r3, #72	@ 0x48
    17d0:	781b      	ldrb	r3, [r3, #0]
    17d2:	f887 302f 	strb.w	r3, [r7, #47]	@ 0x2f
            pxTCB->ucNotifyState[ uxIndexToNotify ] = taskNOTIFICATION_RECEIVED;
    17d6:	6b7a      	ldr	r2, [r7, #52]	@ 0x34
    17d8:	68bb      	ldr	r3, [r7, #8]
    17da:	4413      	add	r3, r2
    17dc:	3348      	adds	r3, #72	@ 0x48
    17de:	2202      	movs	r2, #2
    17e0:	701a      	strb	r2, [r3, #0]

            /* 'Giving' is equivalent to incrementing a count in a counting
             * semaphore. */
            ( pxTCB->ulNotifiedValue[ uxIndexToNotify ] )++;
    17e2:	6b7a      	ldr	r2, [r7, #52]	@ 0x34
    17e4:	68bb      	ldr	r3, [r7, #8]
    17e6:	3310      	adds	r3, #16
    17e8:	009b      	lsls	r3, r3, #2
    17ea:	4413      	add	r3, r2
    17ec:	685b      	ldr	r3, [r3, #4]
    17ee:	1c5a      	adds	r2, r3, #1
    17f0:	6b79      	ldr	r1, [r7, #52]	@ 0x34
    17f2:	68bb      	ldr	r3, [r7, #8]
    17f4:	3310      	adds	r3, #16
    17f6:	009b      	lsls	r3, r3, #2
    17f8:	440b      	add	r3, r1
    17fa:	605a      	str	r2, [r3, #4]

            traceTASK_NOTIFY_GIVE_FROM_ISR( uxIndexToNotify );

            /* If the task is in the blocked state specifically to wait for a
             * notification then unblock it now. */
            if( ucOriginalNotifyState == taskWAITING_NOTIFICATION )
    17fc:	f897 302f 	ldrb.w	r3, [r7, #47]	@ 0x2f
    1800:	2b01      	cmp	r3, #1
    1802:	f040 8091 	bne.w	1928 <vTaskGenericNotifyGiveFromISR+0x18c>
            {
                /* The task should not have been on an event list. */
                configASSERT( listLIST_ITEM_CONTAINER( &( pxTCB->xEventListItem ) ) == NULL );

                if( uxSchedulerSuspended == ( UBaseType_t ) 0U )
    1806:	4b4e      	ldr	r3, [pc, #312]	@ (1940 <vTaskGenericNotifyGiveFromISR+0x1a4>)
    1808:	681b      	ldr	r3, [r3, #0]
    180a:	2b00      	cmp	r3, #0
    180c:	d160      	bne.n	18d0 <vTaskGenericNotifyGiveFromISR+0x134>
                {
                    listREMOVE_ITEM( &( pxTCB->xStateListItem ) );
    180e:	6b7b      	ldr	r3, [r7, #52]	@ 0x34
    1810:	695b      	ldr	r3, [r3, #20]
    1812:	627b      	str	r3, [r7, #36]	@ 0x24
    1814:	6b7b      	ldr	r3, [r7, #52]	@ 0x34
    1816:	689b      	ldr	r3, [r3, #8]
    1818:	6b7a      	ldr	r2, [r7, #52]	@ 0x34
    181a:	68d2      	ldr	r2, [r2, #12]
    181c:	609a      	str	r2, [r3, #8]
    181e:	6b7b      	ldr	r3, [r7, #52]	@ 0x34
    1820:	68db      	ldr	r3, [r3, #12]
    1822:	6b7a      	ldr	r2, [r7, #52]	@ 0x34
    1824:	6892      	ldr	r2, [r2, #8]
    1826:	605a      	str	r2, [r3, #4]
    1828:	6a7b      	ldr	r3, [r7, #36]	@ 0x24
    182a:	685a      	ldr	r2, [r3, #4]
    182c:	6b7b      	ldr	r3, [r7, #52]	@ 0x34
    182e:	3304      	adds	r3, #4
    1830:	429a      	cmp	r2, r3
    1832:	d103      	bne.n	183c <vTaskGenericNotifyGiveFromISR+0xa0>
    1834:	6b7b      	ldr	r3, [r7, #52]	@ 0x34
    1836:	68da      	ldr	r2, [r3, #12]
    1838:	6a7b      	ldr	r3, [r7, #36]	@ 0x24
    183a:	605a      	str	r2, [r3, #4]
    183c:	6b7b      	ldr	r3, [r7, #52]	@ 0x34
    183e:	2200      	movs	r2, #0
    1840:	615a      	str	r2, [r3, #20]
    1842:	6a7b      	ldr	r3, [r7, #36]	@ 0x24
    1844:	681b      	ldr	r3, [r3, #0]
    1846:	1e5a      	subs	r2, r3, #1
    1848:	6a7b      	ldr	r3, [r7, #36]	@ 0x24
    184a:	601a      	str	r2, [r3, #0]
                    prvAddTaskToReadyList( pxTCB );
    184c:	6b7b      	ldr	r3, [r7, #52]	@ 0x34
    184e:	6adb      	ldr	r3, [r3, #44]	@ 0x2c
    1850:	2201      	movs	r2, #1
    1852:	409a      	lsls	r2, r3
    1854:	4b3b      	ldr	r3, [pc, #236]	@ (1944 <vTaskGenericNotifyGiveFromISR+0x1a8>)
    1856:	681b      	ldr	r3, [r3, #0]
    1858:	4313      	orrs	r3, r2
    185a:	4a3a      	ldr	r2, [pc, #232]	@ (1944 <vTaskGenericNotifyGiveFromISR+0x1a8>)
    185c:	6013      	str	r3, [r2, #0]
    185e:	6b7b      	ldr	r3, [r7, #52]	@ 0x34
    1860:	6ada      	ldr	r2, [r3, #44]	@ 0x2c
    1862:	4939      	ldr	r1, [pc, #228]	@ (1948 <vTaskGenericNotifyGiveFromISR+0x1ac>)
    1864:	4613      	mov	r3, r2
    1866:	009b      	lsls	r3, r3, #2
    1868:	4413      	add	r3, r2
    186a:	009b      	lsls	r3, r3, #2
    186c:	440b      	add	r3, r1
    186e:	3304      	adds	r3, #4
    1870:	681b      	ldr	r3, [r3, #0]
    1872:	623b      	str	r3, [r7, #32]
    1874:	6b7b      	ldr	r3, [r7, #52]	@ 0x34
    1876:	6a3a      	ldr	r2, [r7, #32]
    1878:	609a      	str	r2, [r3, #8]
    187a:	6a3b      	ldr	r3, [r7, #32]
    187c:	689a      	ldr	r2, [r3, #8]
    187e:	6b7b      	ldr	r3, [r7, #52]	@ 0x34
    1880:	60da      	str	r2, [r3, #12]
    1882:	6a3b      	ldr	r3, [r7, #32]
    1884:	689b      	ldr	r3, [r3, #8]
    1886:	6b7a      	ldr	r2, [r7, #52]	@ 0x34
    1888:	3204      	adds	r2, #4
    188a:	605a      	str	r2, [r3, #4]
    188c:	6b7b      	ldr	r3, [r7, #52]	@ 0x34
    188e:	1d1a      	adds	r2, r3, #4
    1890:	6a3b      	ldr	r3, [r7, #32]
    1892:	609a      	str	r2, [r3, #8]
    1894:	6b7b      	ldr	r3, [r7, #52]	@ 0x34
    1896:	6ada      	ldr	r2, [r3, #44]	@ 0x2c
    1898:	4613      	mov	r3, r2
    189a:	009b      	lsls	r3, r3, #2
    189c:	4413      	add	r3, r2
    189e:	009b      	lsls	r3, r3, #2
    18a0:	4a29      	ldr	r2, [pc, #164]	@ (1948 <vTaskGenericNotifyGiveFromISR+0x1ac>)
    18a2:	441a      	add	r2, r3
    18a4:	6b7b      	ldr	r3, [r7, #52]	@ 0x34
    18a6:	615a      	str	r2, [r3, #20]
    18a8:	6b7b      	ldr	r3, [r7, #52]	@ 0x34
    18aa:	6ada      	ldr	r2, [r3, #44]	@ 0x2c
    18ac:	4926      	ldr	r1, [pc, #152]	@ (1948 <vTaskGenericNotifyGiveFromISR+0x1ac>)
    18ae:	4613      	mov	r3, r2
    18b0:	009b      	lsls	r3, r3, #2
    18b2:	4413      	add	r3, r2
    18b4:	009b      	lsls	r3, r3, #2
    18b6:	440b      	add	r3, r1
    18b8:	681b      	ldr	r3, [r3, #0]
    18ba:	6b7a      	ldr	r2, [r7, #52]	@ 0x34
    18bc:	6ad2      	ldr	r2, [r2, #44]	@ 0x2c
    18be:	1c59      	adds	r1, r3, #1
    18c0:	4821      	ldr	r0, [pc, #132]	@ (1948 <vTaskGenericNotifyGiveFromISR+0x1ac>)
    18c2:	4613      	mov	r3, r2
    18c4:	009b      	lsls	r3, r3, #2
    18c6:	4413      	add	r3, r2
    18c8:	009b      	lsls	r3, r3, #2
    18ca:	4403      	add	r3, r0
    18cc:	6019      	str	r1, [r3, #0]
    18ce:	e01b      	b.n	1908 <vTaskGenericNotifyGiveFromISR+0x16c>
                }
                else
                {
                    /* The delayed and ready lists cannot be accessed, so hold
                     * this task pending until the scheduler is resumed. */
                    listINSERT_END( &( xPendingReadyList ), &( pxTCB->xEventListItem ) );
    18d0:	4b1e      	ldr	r3, [pc, #120]	@ (194c <vTaskGenericNotifyGiveFromISR+0x1b0>)
    18d2:	685b      	ldr	r3, [r3, #4]
    18d4:	62bb      	str	r3, [r7, #40]	@ 0x28
    18d6:	6b7b      	ldr	r3, [r7, #52]	@ 0x34
    18d8:	6aba      	ldr	r2, [r7, #40]	@ 0x28
    18da:	61da      	str	r2, [r3, #28]
    18dc:	6abb      	ldr	r3, [r7, #40]	@ 0x28
    18de:	689a      	ldr	r2, [r3, #8]
    18e0:	6b7b      	ldr	r3, [r7, #52]	@ 0x34
    18e2:	621a      	str	r2, [r3, #32]
    18e4:	6abb      	ldr	r3, [r7, #40]	@ 0x28
    18e6:	689b      	ldr	r3, [r3, #8]
    18e8:	6b7a      	ldr	r2, [r7, #52]	@ 0x34
    18ea:	3218      	adds	r2, #24
    18ec:	605a      	str	r2, [r3, #4]
    18ee:	6b7b      	ldr	r3, [r7, #52]	@ 0x34
    18f0:	f103 0218 	add.w	r2, r3, #24
    18f4:	6abb      	ldr	r3, [r7, #40]	@ 0x28
    18f6:	609a      	str	r2, [r3, #8]
    18f8:	6b7b      	ldr	r3, [r7, #52]	@ 0x34
    18fa:	4a14      	ldr	r2, [pc, #80]	@ (194c <vTaskGenericNotifyGiveFromISR+0x1b0>)
    18fc:	629a      	str	r2, [r3, #40]	@ 0x28
    18fe:	4b13      	ldr	r3, [pc, #76]	@ (194c <vTaskGenericNotifyGiveFromISR+0x1b0>)
    1900:	681b      	ldr	r3, [r3, #0]
    1902:	3301      	adds	r3, #1
    1904:	4a11      	ldr	r2, [pc, #68]	@ (194c <vTaskGenericNotifyGiveFromISR+0x1b0>)
    1906:	6013      	str	r3, [r2, #0]
                }

                #if ( configNUMBER_OF_CORES == 1 )
                {
                    if( pxTCB->uxPriority > pxCurrentTCB->uxPriority )
    1908:	6b7b      	ldr	r3, [r7, #52]	@ 0x34
    190a:	6ada      	ldr	r2, [r3, #44]	@ 0x2c
    190c:	4b10      	ldr	r3, [pc, #64]	@ (1950 <vTaskGenericNotifyGiveFromISR+0x1b4>)
    190e:	681b      	ldr	r3, [r3, #0]
    1910:	6adb      	ldr	r3, [r3, #44]	@ 0x2c
    1912:	429a      	cmp	r2, r3
    1914:	d908      	bls.n	1928 <vTaskGenericNotifyGiveFromISR+0x18c>
                    {
                        /* The notified task has a priority above the currently
                         * executing task so a yield is required. */
                        if( pxHigherPriorityTaskWoken != NULL )
    1916:	687b      	ldr	r3, [r7, #4]
    1918:	2b00      	cmp	r3, #0
    191a:	d002      	beq.n	1922 <vTaskGenericNotifyGiveFromISR+0x186>
                        {
                            *pxHigherPriorityTaskWoken = pdTRUE;
    191c:	687b      	ldr	r3, [r7, #4]
    191e:	2201      	movs	r2, #1
    1920:	601a      	str	r2, [r3, #0]
                        }

                        /* Mark that a yield is pending in case the user is not
                         * using the "xHigherPriorityTaskWoken" parameter in an ISR
                         * safe FreeRTOS function. */
                        xYieldPendings[ 0 ] = pdTRUE;
    1922:	4b0c      	ldr	r3, [pc, #48]	@ (1954 <vTaskGenericNotifyGiveFromISR+0x1b8>)
    1924:	2201      	movs	r2, #1
    1926:	601a      	str	r2, [r3, #0]
    1928:	6b3b      	ldr	r3, [r7, #48]	@ 0x30
    192a:	617b      	str	r3, [r7, #20]
    __asm volatile
    192c:	697b      	ldr	r3, [r7, #20]
    192e:	f383 8811 	msr	BASEPRI, r3
}
    1932:	bf00      	nop
            }
        }
        taskEXIT_CRITICAL_FROM_ISR( uxSavedInterruptStatus );

        traceRETURN_vTaskGenericNotifyGiveFromISR();
    }
    1934:	bf00      	nop
    1936:	373c      	adds	r7, #60	@ 0x3c
    1938:	46bd      	mov	sp, r7
    193a:	bc80      	pop	{r7}
    193c:	4770      	bx	lr
    193e:	bf00      	nop
    1940:	200000d8 	ldrdcs	r0, [r0], -r8
    1944:	200000b8 	strhcs	r0, [r0], -r8
    1948:	20000008 	andcs	r0, r0, r8
    194c:	2000009c 	mulcs	r0, ip, r0
    1950:	20000004 	andcs	r0, r0, r4
    1954:	200000c4 	andcs	r0, r0, r4, asr #1

00001958 <xTaskGenericNotifyStateClear>:

#if ( configUSE_TASK_NOTIFICATIONS == 1 )

    BaseType_t xTaskGenericNotifyStateClear( TaskHandle_t xTask,
                                             UBaseType_t uxIndexToClear )
    {
    1958:	b580      	push	{r7, lr}
    195a:	b084      	sub	sp, #16
    195c:	af00      	add	r7, sp, #0
    195e:	6078      	str	r0, [r7, #4]
    1960:	6039      	str	r1, [r7, #0]

        configASSERT( uxIndexToClear < configTASK_NOTIFICATION_ARRAY_ENTRIES );

        /* If null is passed in here then it is the calling task that is having
         * its notification state cleared. */
        pxTCB = prvGetTCBFromHandle( xTask );
    1962:	687b      	ldr	r3, [r7, #4]
    1964:	2b00      	cmp	r3, #0
    1966:	d102      	bne.n	196e <xTaskGenericNotifyStateClear+0x16>
    1968:	4b10      	ldr	r3, [pc, #64]	@ (19ac <xTaskGenericNotifyStateClear+0x54>)
    196a:	681b      	ldr	r3, [r3, #0]
    196c:	e000      	b.n	1970 <xTaskGenericNotifyStateClear+0x18>
    196e:	687b      	ldr	r3, [r7, #4]
    1970:	60bb      	str	r3, [r7, #8]
        configASSERT( pxTCB != NULL );

        taskENTER_CRITICAL();
    1972:	f000 fc1b 	bl	21ac <vPortEnterCritical>
        {
            if( pxTCB->ucNotifyState[ uxIndexToClear ] == taskNOTIFICATION_RECEIVED )
    1976:	68ba      	ldr	r2, [r7, #8]
    1978:	683b      	ldr	r3, [r7, #0]
    197a:	4413      	add	r3, r2
    197c:	3348      	adds	r3, #72	@ 0x48
    197e:	781b      	ldrb	r3, [r3, #0]
    1980:	b2db      	uxtb	r3, r3
    1982:	2b02      	cmp	r3, #2
    1984:	d108      	bne.n	1998 <xTaskGenericNotifyStateClear+0x40>
            {
                pxTCB->ucNotifyState[ uxIndexToClear ] = taskNOT_WAITING_NOTIFICATION;
    1986:	68ba      	ldr	r2, [r7, #8]
    1988:	683b      	ldr	r3, [r7, #0]
    198a:	4413      	add	r3, r2
    198c:	3348      	adds	r3, #72	@ 0x48
    198e:	2200      	movs	r2, #0
    1990:	701a      	strb	r2, [r3, #0]
                xReturn = pdPASS;
    1992:	2301      	movs	r3, #1
    1994:	60fb      	str	r3, [r7, #12]
    1996:	e001      	b.n	199c <xTaskGenericNotifyStateClear+0x44>
            }
            else
            {
                xReturn = pdFAIL;
    1998:	2300      	movs	r3, #0
    199a:	60fb      	str	r3, [r7, #12]
            }
        }
        taskEXIT_CRITICAL();
    199c:	f000 fc20 	bl	21e0 <vPortExitCritical>

        traceRETURN_xTaskGenericNotifyStateClear( xReturn );

        return xReturn;
    19a0:	68fb      	ldr	r3, [r7, #12]
    }
    19a2:	4618      	mov	r0, r3
    19a4:	3710      	adds	r7, #16
    19a6:	46bd      	mov	sp, r7
    19a8:	bd80      	pop	{r7, pc}
    19aa:	bf00      	nop
    19ac:	20000004 	andcs	r0, r0, r4

000019b0 <ulTaskGenericNotifyValueClear>:
#if ( configUSE_TASK_NOTIFICATIONS == 1 )

    uint32_t ulTaskGenericNotifyValueClear( TaskHandle_t xTask,
                                            UBaseType_t uxIndexToClear,
                                            uint32_t ulBitsToClear )
    {
    19b0:	b580      	push	{r7, lr}
    19b2:	b086      	sub	sp, #24
    19b4:	af00      	add	r7, sp, #0
    19b6:	60f8      	str	r0, [r7, #12]
    19b8:	60b9      	str	r1, [r7, #8]
    19ba:	607a      	str	r2, [r7, #4]

        configASSERT( uxIndexToClear < configTASK_NOTIFICATION_ARRAY_ENTRIES );

        /* If null is passed in here then it is the calling task that is having
         * its notification state cleared. */
        pxTCB = prvGetTCBFromHandle( xTask );
    19bc:	68fb      	ldr	r3, [r7, #12]
    19be:	2b00      	cmp	r3, #0
    19c0:	d102      	bne.n	19c8 <ulTaskGenericNotifyValueClear+0x18>
    19c2:	4b12      	ldr	r3, [pc, #72]	@ (1a0c <ulTaskGenericNotifyValueClear+0x5c>)
    19c4:	681b      	ldr	r3, [r3, #0]
    19c6:	e000      	b.n	19ca <ulTaskGenericNotifyValueClear+0x1a>
    19c8:	68fb      	ldr	r3, [r7, #12]
    19ca:	617b      	str	r3, [r7, #20]
        configASSERT( pxTCB != NULL );

        taskENTER_CRITICAL();
    19cc:	f000 fbee 	bl	21ac <vPortEnterCritical>
        {
            /* Return the notification as it was before the bits were cleared,
             * then clear the bit mask. */
            ulReturn = pxTCB->ulNotifiedValue[ uxIndexToClear ];
    19d0:	697a      	ldr	r2, [r7, #20]
    19d2:	68bb      	ldr	r3, [r7, #8]
    19d4:	3310      	adds	r3, #16
    19d6:	009b      	lsls	r3, r3, #2
    19d8:	4413      	add	r3, r2
    19da:	685b      	ldr	r3, [r3, #4]
    19dc:	613b      	str	r3, [r7, #16]
            pxTCB->ulNotifiedValue[ uxIndexToClear ] &= ~ulBitsToClear;
    19de:	697a      	ldr	r2, [r7, #20]
    19e0:	68bb      	ldr	r3, [r7, #8]
    19e2:	3310      	adds	r3, #16
    19e4:	009b      	lsls	r3, r3, #2
    19e6:	4413      	add	r3, r2
    19e8:	685a      	ldr	r2, [r3, #4]
    19ea:	687b      	ldr	r3, [r7, #4]
    19ec:	43db      	mvns	r3, r3
    19ee:	401a      	ands	r2, r3
    19f0:	6979      	ldr	r1, [r7, #20]
    19f2:	68bb      	ldr	r3, [r7, #8]
    19f4:	3310      	adds	r3, #16
    19f6:	009b      	lsls	r3, r3, #2
    19f8:	440b      	add	r3, r1
    19fa:	605a      	str	r2, [r3, #4]
        }
        taskEXIT_CRITICAL();
    19fc:	f000 fbf0 	bl	21e0 <vPortExitCritical>

        traceRETURN_ulTaskGenericNotifyValueClear( ulReturn );

        return ulReturn;
    1a00:	693b      	ldr	r3, [r7, #16]
    }
    1a02:	4618      	mov	r0, r3
    1a04:	3718      	adds	r7, #24
    1a06:	46bd      	mov	sp, r7
    1a08:	bd80      	pop	{r7, pc}
    1a0a:	bf00      	nop
    1a0c:	20000004 	andcs	r0, r0, r4

00001a10 <prvAddCurrentTaskToDelayedList>:
#endif /* if ( ( configGENERATE_RUN_TIME_STATS == 1 ) && ( INCLUDE_xTaskGetIdleTaskHandle == 1 ) ) */
/*-----------------------------------------------------------*/

static void prvAddCurrentTaskToDelayedList( TickType_t xTicksToWait,
                                            const BaseType_t xCanBlockIndefinitely )
{
    1a10:	b580      	push	{r7, lr}
    1a12:	b086      	sub	sp, #24
    1a14:	af00      	add	r7, sp, #0
    1a16:	6078      	str	r0, [r7, #4]
    1a18:	6039      	str	r1, [r7, #0]
    TickType_t xTimeToWake;
    const TickType_t xConstTickCount = xTickCount;
    1a1a:	4b22      	ldr	r3, [pc, #136]	@ (1aa4 <prvAddCurrentTaskToDelayedList+0x94>)
    1a1c:	681b      	ldr	r3, [r3, #0]
    1a1e:	617b      	str	r3, [r7, #20]
    List_t * const pxDelayedList = pxDelayedTaskList;
    1a20:	4b21      	ldr	r3, [pc, #132]	@ (1aa8 <prvAddCurrentTaskToDelayedList+0x98>)
    1a22:	681b      	ldr	r3, [r3, #0]
    1a24:	613b      	str	r3, [r7, #16]
    List_t * const pxOverflowDelayedList = pxOverflowDelayedTaskList;
    1a26:	4b21      	ldr	r3, [pc, #132]	@ (1aac <prvAddCurrentTaskToDelayedList+0x9c>)
    1a28:	681b      	ldr	r3, [r3, #0]
    1a2a:	60fb      	str	r3, [r7, #12]
    }
    #endif

    /* Remove the task from the ready list before adding it to the blocked list
     * as the same list item is used for both lists. */
    if( uxListRemove( &( pxCurrentTCB->xStateListItem ) ) == ( UBaseType_t ) 0 )
    1a2c:	4b20      	ldr	r3, [pc, #128]	@ (1ab0 <prvAddCurrentTaskToDelayedList+0xa0>)
    1a2e:	681b      	ldr	r3, [r3, #0]
    1a30:	3304      	adds	r3, #4
    1a32:	4618      	mov	r0, r3
    1a34:	f000 fcd4 	bl	23e0 <uxListRemove>
    1a38:	4603      	mov	r3, r0
    1a3a:	2b00      	cmp	r3, #0
    1a3c:	d10b      	bne.n	1a56 <prvAddCurrentTaskToDelayedList+0x46>
    {
        /* The current task must be in a ready list, so there is no need to
         * check, and the port reset macro can be called directly. */
        portRESET_READY_PRIORITY( pxCurrentTCB->uxPriority, uxTopReadyPriority );
    1a3e:	4b1c      	ldr	r3, [pc, #112]	@ (1ab0 <prvAddCurrentTaskToDelayedList+0xa0>)
    1a40:	681b      	ldr	r3, [r3, #0]
    1a42:	6adb      	ldr	r3, [r3, #44]	@ 0x2c
    1a44:	2201      	movs	r2, #1
    1a46:	fa02 f303 	lsl.w	r3, r2, r3
    1a4a:	43da      	mvns	r2, r3
    1a4c:	4b19      	ldr	r3, [pc, #100]	@ (1ab4 <prvAddCurrentTaskToDelayedList+0xa4>)
    1a4e:	681b      	ldr	r3, [r3, #0]
    1a50:	4013      	ands	r3, r2
    1a52:	4a18      	ldr	r2, [pc, #96]	@ (1ab4 <prvAddCurrentTaskToDelayedList+0xa4>)
    1a54:	6013      	str	r3, [r2, #0]
    #else /* INCLUDE_vTaskSuspend */
    {
        /* Calculate the time at which the task should be woken if the event
         * does not occur.  This may overflow but this doesn't matter, the kernel
         * will manage it correctly. */
        xTimeToWake = xConstTickCount + xTicksToWait;
    1a56:	697a      	ldr	r2, [r7, #20]
    1a58:	687b      	ldr	r3, [r7, #4]
    1a5a:	4413      	add	r3, r2
    1a5c:	60bb      	str	r3, [r7, #8]

        /* The list item will be inserted in wake time order. */
        listSET_LIST_ITEM_VALUE( &( pxCurrentTCB->xStateListItem ), xTimeToWake );
    1a5e:	4b14      	ldr	r3, [pc, #80]	@ (1ab0 <prvAddCurrentTaskToDelayedList+0xa0>)
    1a60:	681b      	ldr	r3, [r3, #0]
    1a62:	68ba      	ldr	r2, [r7, #8]
    1a64:	605a      	str	r2, [r3, #4]

        if( xTimeToWake < xConstTickCount )
    1a66:	68ba      	ldr	r2, [r7, #8]
    1a68:	697b      	ldr	r3, [r7, #20]
    1a6a:	429a      	cmp	r2, r3
    1a6c:	d207      	bcs.n	1a7e <prvAddCurrentTaskToDelayedList+0x6e>
        {
            traceMOVED_TASK_TO_OVERFLOW_DELAYED_LIST();
            /* Wake time has overflowed.  Place this item in the overflow list. */
            vListInsert( pxOverflowDelayedList, &( pxCurrentTCB->xStateListItem ) );
    1a6e:	4b10      	ldr	r3, [pc, #64]	@ (1ab0 <prvAddCurrentTaskToDelayedList+0xa0>)
    1a70:	681b      	ldr	r3, [r3, #0]
    1a72:	3304      	adds	r3, #4
    1a74:	4619      	mov	r1, r3
    1a76:	68f8      	ldr	r0, [r7, #12]
    1a78:	f000 fc7a 	bl	2370 <vListInsert>

        /* Avoid compiler warning when INCLUDE_vTaskSuspend is not 1. */
        ( void ) xCanBlockIndefinitely;
    }
    #endif /* INCLUDE_vTaskSuspend */
}
    1a7c:	e00e      	b.n	1a9c <prvAddCurrentTaskToDelayedList+0x8c>
            vListInsert( pxDelayedList, &( pxCurrentTCB->xStateListItem ) );
    1a7e:	4b0c      	ldr	r3, [pc, #48]	@ (1ab0 <prvAddCurrentTaskToDelayedList+0xa0>)
    1a80:	681b      	ldr	r3, [r3, #0]
    1a82:	3304      	adds	r3, #4
    1a84:	4619      	mov	r1, r3
    1a86:	6938      	ldr	r0, [r7, #16]
    1a88:	f000 fc72 	bl	2370 <vListInsert>
            if( xTimeToWake < xNextTaskUnblockTime )
    1a8c:	4b0a      	ldr	r3, [pc, #40]	@ (1ab8 <prvAddCurrentTaskToDelayedList+0xa8>)
    1a8e:	681b      	ldr	r3, [r3, #0]
    1a90:	68ba      	ldr	r2, [r7, #8]
    1a92:	429a      	cmp	r2, r3
    1a94:	d202      	bcs.n	1a9c <prvAddCurrentTaskToDelayedList+0x8c>
                xNextTaskUnblockTime = xTimeToWake;
    1a96:	4a08      	ldr	r2, [pc, #32]	@ (1ab8 <prvAddCurrentTaskToDelayedList+0xa8>)
    1a98:	68bb      	ldr	r3, [r7, #8]
    1a9a:	6013      	str	r3, [r2, #0]
}
    1a9c:	bf00      	nop
    1a9e:	3718      	adds	r7, #24
    1aa0:	46bd      	mov	sp, r7
    1aa2:	bd80      	pop	{r7, pc}
    1aa4:	200000b4 	strhcs	r0, [r0], -r4
    1aa8:	20000094 	mulcs	r0, r4, r0
    1aac:	20000098 	mulcs	r0, r8, r0
    1ab0:	20000004 	andcs	r0, r0, r4
    1ab4:	200000b8 	strhcs	r0, [r0], -r8
    1ab8:	200000d0 	ldrdcs	r0, [r0], -r0	@ <UNPREDICTABLE>

00001abc <vTaskResetState>:
 * Reset the state in this file. This state is normally initialized at start up.
 * This function must be called by the application before restarting the
 * scheduler.
 */
void vTaskResetState( void )
{
    1abc:	b480      	push	{r7}
    1abe:	b083      	sub	sp, #12
    1ac0:	af00      	add	r7, sp, #0
    BaseType_t xCoreID;

    /* Task control block. */
    #if ( configNUMBER_OF_CORES == 1 )
    {
        pxCurrentTCB = NULL;
    1ac2:	4b18      	ldr	r3, [pc, #96]	@ (1b24 <vTaskResetState+0x68>)
    1ac4:	2200      	movs	r2, #0
    1ac6:	601a      	str	r2, [r3, #0]
        FreeRTOS_errno = 0;
    }
    #endif /* #if ( configUSE_POSIX_ERRNO == 1 ) */

    /* Other file private variables. */
    uxCurrentNumberOfTasks = ( UBaseType_t ) 0U;
    1ac8:	4b17      	ldr	r3, [pc, #92]	@ (1b28 <vTaskResetState+0x6c>)
    1aca:	2200      	movs	r2, #0
    1acc:	601a      	str	r2, [r3, #0]
    xTickCount = ( TickType_t ) configINITIAL_TICK_COUNT;
    1ace:	4b17      	ldr	r3, [pc, #92]	@ (1b2c <vTaskResetState+0x70>)
    1ad0:	2200      	movs	r2, #0
    1ad2:	601a      	str	r2, [r3, #0]
    uxTopReadyPriority = tskIDLE_PRIORITY;
    1ad4:	4b16      	ldr	r3, [pc, #88]	@ (1b30 <vTaskResetState+0x74>)
    1ad6:	2200      	movs	r2, #0
    1ad8:	601a      	str	r2, [r3, #0]
    xSchedulerRunning = pdFALSE;
    1ada:	4b16      	ldr	r3, [pc, #88]	@ (1b34 <vTaskResetState+0x78>)
    1adc:	2200      	movs	r2, #0
    1ade:	601a      	str	r2, [r3, #0]
    xPendedTicks = ( TickType_t ) 0U;
    1ae0:	4b15      	ldr	r3, [pc, #84]	@ (1b38 <vTaskResetState+0x7c>)
    1ae2:	2200      	movs	r2, #0
    1ae4:	601a      	str	r2, [r3, #0]

    for( xCoreID = 0; xCoreID < configNUMBER_OF_CORES; xCoreID++ )
    1ae6:	2300      	movs	r3, #0
    1ae8:	607b      	str	r3, [r7, #4]
    1aea:	e007      	b.n	1afc <vTaskResetState+0x40>
    {
        xYieldPendings[ xCoreID ] = pdFALSE;
    1aec:	4a13      	ldr	r2, [pc, #76]	@ (1b3c <vTaskResetState+0x80>)
    1aee:	687b      	ldr	r3, [r7, #4]
    1af0:	2100      	movs	r1, #0
    1af2:	f842 1023 	str.w	r1, [r2, r3, lsl #2]
    for( xCoreID = 0; xCoreID < configNUMBER_OF_CORES; xCoreID++ )
    1af6:	687b      	ldr	r3, [r7, #4]
    1af8:	3301      	adds	r3, #1
    1afa:	607b      	str	r3, [r7, #4]
    1afc:	687b      	ldr	r3, [r7, #4]
    1afe:	2b00      	cmp	r3, #0
    1b00:	ddf4      	ble.n	1aec <vTaskResetState+0x30>
    }

    xNumOfOverflows = ( BaseType_t ) 0;
    1b02:	4b0f      	ldr	r3, [pc, #60]	@ (1b40 <vTaskResetState+0x84>)
    1b04:	2200      	movs	r2, #0
    1b06:	601a      	str	r2, [r3, #0]
    uxTaskNumber = ( UBaseType_t ) 0U;
    1b08:	4b0e      	ldr	r3, [pc, #56]	@ (1b44 <vTaskResetState+0x88>)
    1b0a:	2200      	movs	r2, #0
    1b0c:	601a      	str	r2, [r3, #0]
    xNextTaskUnblockTime = ( TickType_t ) 0U;
    1b0e:	4b0e      	ldr	r3, [pc, #56]	@ (1b48 <vTaskResetState+0x8c>)
    1b10:	2200      	movs	r2, #0
    1b12:	601a      	str	r2, [r3, #0]

    uxSchedulerSuspended = ( UBaseType_t ) 0U;
    1b14:	4b0d      	ldr	r3, [pc, #52]	@ (1b4c <vTaskResetState+0x90>)
    1b16:	2200      	movs	r2, #0
    1b18:	601a      	str	r2, [r3, #0]
            ulTaskSwitchedInTime[ xCoreID ] = 0U;
            ulTotalRunTime[ xCoreID ] = 0U;
        }
    }
    #endif /* #if ( configGENERATE_RUN_TIME_STATS == 1 ) */
}
    1b1a:	bf00      	nop
    1b1c:	370c      	adds	r7, #12
    1b1e:	46bd      	mov	sp, r7
    1b20:	bc80      	pop	{r7}
    1b22:	4770      	bx	lr
    1b24:	20000004 	andcs	r0, r0, r4
    1b28:	200000b0 	strhcs	r0, [r0], -r0	@ <UNPREDICTABLE>
    1b2c:	200000b4 	strhcs	r0, [r0], -r4
    1b30:	200000b8 	strhcs	r0, [r0], -r8
    1b34:	200000bc 	strhcs	r0, [r0], -ip
    1b38:	200000c0 	andcs	r0, r0, r0, asr #1
    1b3c:	200000c4 	andcs	r0, r0, r4, asr #1
    1b40:	200000c8 	andcs	r0, r0, r8, asr #1
    1b44:	200000cc 	andcs	r0, r0, ip, asr #1
    1b48:	200000d0 	ldrdcs	r0, [r0], -r0	@ <UNPREDICTABLE>
    1b4c:	200000d8 	ldrdcs	r0, [r0], -r8

00001b50 <pvPortMalloc>:
PRIVILEGED_DATA static size_t xNumberOfSuccessfulFrees = ( size_t ) 0U;

/*-----------------------------------------------------------*/

void * pvPortMalloc( size_t xWantedSize )
{
    1b50:	b580      	push	{r7, lr}
    1b52:	b088      	sub	sp, #32
    1b54:	af00      	add	r7, sp, #0
    1b56:	6078      	str	r0, [r7, #4]
    BlockLink_t * pxBlock;
    BlockLink_t * pxPreviousBlock;
    BlockLink_t * pxNewBlockLink;
    void * pvReturn = NULL;
    1b58:	2300      	movs	r3, #0
    1b5a:	617b      	str	r3, [r7, #20]
    size_t xAdditionalRequiredSize;
    size_t xAllocatedBlockSize = 0;
    1b5c:	2300      	movs	r3, #0
    1b5e:	613b      	str	r3, [r7, #16]

    if( xWantedSize > 0 )
    1b60:	687b      	ldr	r3, [r7, #4]
    1b62:	2b00      	cmp	r3, #0
    1b64:	d022      	beq.n	1bac <pvPortMalloc+0x5c>
    {
        /* The wanted size must be increased so it can contain a BlockLink_t
         * structure in addition to the requested amount of bytes. */
        if( heapADD_WILL_OVERFLOW( xWantedSize, xHeapStructSize ) == 0 )
    1b66:	2308      	movs	r3, #8
    1b68:	43db      	mvns	r3, r3
    1b6a:	687a      	ldr	r2, [r7, #4]
    1b6c:	429a      	cmp	r2, r3
    1b6e:	d81b      	bhi.n	1ba8 <pvPortMalloc+0x58>
        {
            xWantedSize += xHeapStructSize;
    1b70:	2208      	movs	r2, #8
    1b72:	687b      	ldr	r3, [r7, #4]
    1b74:	4413      	add	r3, r2
    1b76:	607b      	str	r3, [r7, #4]

            /* Ensure that blocks are always aligned to the required number
             * of bytes. */
            if( ( xWantedSize & portBYTE_ALIGNMENT_MASK ) != 0x00 )
    1b78:	687b      	ldr	r3, [r7, #4]
    1b7a:	f003 0307 	and.w	r3, r3, #7
    1b7e:	2b00      	cmp	r3, #0
    1b80:	d014      	beq.n	1bac <pvPortMalloc+0x5c>
            {
                /* Byte alignment required. */
                xAdditionalRequiredSize = portBYTE_ALIGNMENT - ( xWantedSize & portBYTE_ALIGNMENT_MASK );
    1b82:	687b      	ldr	r3, [r7, #4]
    1b84:	f003 0307 	and.w	r3, r3, #7
    1b88:	f1c3 0308 	rsb	r3, r3, #8
    1b8c:	60fb      	str	r3, [r7, #12]

                if( heapADD_WILL_OVERFLOW( xWantedSize, xAdditionalRequiredSize ) == 0 )
    1b8e:	68fb      	ldr	r3, [r7, #12]
    1b90:	43db      	mvns	r3, r3
    1b92:	687a      	ldr	r2, [r7, #4]
    1b94:	429a      	cmp	r2, r3
    1b96:	d804      	bhi.n	1ba2 <pvPortMalloc+0x52>
                {
                    xWantedSize += xAdditionalRequiredSize;
    1b98:	687a      	ldr	r2, [r7, #4]
    1b9a:	68fb      	ldr	r3, [r7, #12]
    1b9c:	4413      	add	r3, r2
    1b9e:	607b      	str	r3, [r7, #4]
    1ba0:	e004      	b.n	1bac <pvPortMalloc+0x5c>
                }
                else
                {
                    xWantedSize = 0;
    1ba2:	2300      	movs	r3, #0
    1ba4:	607b      	str	r3, [r7, #4]
    1ba6:	e001      	b.n	1bac <pvPortMalloc+0x5c>
                mtCOVERAGE_TEST_MARKER();
            }
        }
        else
        {
            xWantedSize = 0;
    1ba8:	2300      	movs	r3, #0
    1baa:	607b      	str	r3, [r7, #4]
    else
    {
        mtCOVERAGE_TEST_MARKER();
    }

    vTaskSuspendAll();
    1bac:	f7fe fd4e 	bl	64c <vTaskSuspendAll>
    {
        /* If this is the first call to malloc then the heap will require
         * initialisation to setup the list of free blocks. */
        if( pxEnd == NULL )
    1bb0:	4b3b      	ldr	r3, [pc, #236]	@ (1ca0 <pvPortMalloc+0x150>)
    1bb2:	681b      	ldr	r3, [r3, #0]
    1bb4:	2b00      	cmp	r3, #0
    1bb6:	d101      	bne.n	1bbc <pvPortMalloc+0x6c>
        {
            prvHeapInit();
    1bb8:	f000 f90e 	bl	1dd8 <prvHeapInit>

        /* Check the block size we are trying to allocate is not so large that the
         * top bit is set.  The top bit of the block size member of the BlockLink_t
         * structure is used to determine who owns the block - the application or
         * the kernel, so it must be free. */
        if( heapBLOCK_SIZE_IS_VALID( xWantedSize ) != 0 )
    1bbc:	687b      	ldr	r3, [r7, #4]
    1bbe:	2b00      	cmp	r3, #0
    1bc0:	db67      	blt.n	1c92 <pvPortMalloc+0x142>
        {
            if( ( xWantedSize > 0 ) && ( xWantedSize <= xFreeBytesRemaining ) )
    1bc2:	687b      	ldr	r3, [r7, #4]
    1bc4:	2b00      	cmp	r3, #0
    1bc6:	d064      	beq.n	1c92 <pvPortMalloc+0x142>
    1bc8:	4b36      	ldr	r3, [pc, #216]	@ (1ca4 <pvPortMalloc+0x154>)
    1bca:	681b      	ldr	r3, [r3, #0]
    1bcc:	687a      	ldr	r2, [r7, #4]
    1bce:	429a      	cmp	r2, r3
    1bd0:	d85f      	bhi.n	1c92 <pvPortMalloc+0x142>
            {
                /* Traverse the list from the start (lowest address) block until
                 * one of adequate size is found. */
                pxPreviousBlock = &xStart;
    1bd2:	4b35      	ldr	r3, [pc, #212]	@ (1ca8 <pvPortMalloc+0x158>)
    1bd4:	61bb      	str	r3, [r7, #24]
                pxBlock = heapPROTECT_BLOCK_POINTER( xStart.pxNextFreeBlock );
    1bd6:	4b34      	ldr	r3, [pc, #208]	@ (1ca8 <pvPortMalloc+0x158>)
    1bd8:	681b      	ldr	r3, [r3, #0]
    1bda:	61fb      	str	r3, [r7, #28]
                heapVALIDATE_BLOCK_POINTER( pxBlock );

                while( ( pxBlock->xBlockSize < xWantedSize ) && ( pxBlock->pxNextFreeBlock != heapPROTECT_BLOCK_POINTER( NULL ) ) )
    1bdc:	e004      	b.n	1be8 <pvPortMalloc+0x98>
                {
                    pxPreviousBlock = pxBlock;
    1bde:	69fb      	ldr	r3, [r7, #28]
    1be0:	61bb      	str	r3, [r7, #24]
                    pxBlock = heapPROTECT_BLOCK_POINTER( pxBlock->pxNextFreeBlock );
    1be2:	69fb      	ldr	r3, [r7, #28]
    1be4:	681b      	ldr	r3, [r3, #0]
    1be6:	61fb      	str	r3, [r7, #28]
                while( ( pxBlock->xBlockSize < xWantedSize ) && ( pxBlock->pxNextFreeBlock != heapPROTECT_BLOCK_POINTER( NULL ) ) )
    1be8:	69fb      	ldr	r3, [r7, #28]
    1bea:	685b      	ldr	r3, [r3, #4]
    1bec:	687a      	ldr	r2, [r7, #4]
    1bee:	429a      	cmp	r2, r3
    1bf0:	d903      	bls.n	1bfa <pvPortMalloc+0xaa>
    1bf2:	69fb      	ldr	r3, [r7, #28]
    1bf4:	681b      	ldr	r3, [r3, #0]
    1bf6:	2b00      	cmp	r3, #0
    1bf8:	d1f1      	bne.n	1bde <pvPortMalloc+0x8e>
                    heapVALIDATE_BLOCK_POINTER( pxBlock );
                }

                /* If the end marker was reached then a block of adequate size
                 * was not found. */
                if( pxBlock != pxEnd )
    1bfa:	4b29      	ldr	r3, [pc, #164]	@ (1ca0 <pvPortMalloc+0x150>)
    1bfc:	681b      	ldr	r3, [r3, #0]
    1bfe:	69fa      	ldr	r2, [r7, #28]
    1c00:	429a      	cmp	r2, r3
    1c02:	d046      	beq.n	1c92 <pvPortMalloc+0x142>
                {
                    /* Return the memory space pointed to - jumping over the
                     * BlockLink_t structure at its start. */
                    pvReturn = ( void * ) ( ( ( uint8_t * ) heapPROTECT_BLOCK_POINTER( pxPreviousBlock->pxNextFreeBlock ) ) + xHeapStructSize );
    1c04:	69bb      	ldr	r3, [r7, #24]
    1c06:	681b      	ldr	r3, [r3, #0]
    1c08:	2208      	movs	r2, #8
    1c0a:	4413      	add	r3, r2
    1c0c:	617b      	str	r3, [r7, #20]
                    heapVALIDATE_BLOCK_POINTER( pvReturn );

                    /* This block is being returned for use so must be taken out
                     * of the list of free blocks. */
                    pxPreviousBlock->pxNextFreeBlock = pxBlock->pxNextFreeBlock;
    1c0e:	69fb      	ldr	r3, [r7, #28]
    1c10:	681a      	ldr	r2, [r3, #0]
    1c12:	69bb      	ldr	r3, [r7, #24]
    1c14:	601a      	str	r2, [r3, #0]

                    /* If the block is larger than required it can be split into
                     * two. */
                    configASSERT( heapSUBTRACT_WILL_UNDERFLOW( pxBlock->xBlockSize, xWantedSize ) == 0 );

                    if( ( pxBlock->xBlockSize - xWantedSize ) > heapMINIMUM_BLOCK_SIZE )
    1c16:	69fb      	ldr	r3, [r7, #28]
    1c18:	685a      	ldr	r2, [r3, #4]
    1c1a:	687b      	ldr	r3, [r7, #4]
    1c1c:	1ad2      	subs	r2, r2, r3
    1c1e:	2308      	movs	r3, #8
    1c20:	005b      	lsls	r3, r3, #1
    1c22:	429a      	cmp	r2, r3
    1c24:	d913      	bls.n	1c4e <pvPortMalloc+0xfe>
                    {
                        /* This block is to be split into two.  Create a new
                         * block following the number of bytes requested. The void
                         * cast is used to prevent byte alignment warnings from the
                         * compiler. */
                        pxNewBlockLink = ( void * ) ( ( ( uint8_t * ) pxBlock ) + xWantedSize );
    1c26:	69fa      	ldr	r2, [r7, #28]
    1c28:	687b      	ldr	r3, [r7, #4]
    1c2a:	4413      	add	r3, r2
    1c2c:	60bb      	str	r3, [r7, #8]
                        configASSERT( ( ( ( size_t ) pxNewBlockLink ) & portBYTE_ALIGNMENT_MASK ) == 0 );

                        /* Calculate the sizes of two blocks split from the
                         * single block. */
                        pxNewBlockLink->xBlockSize = pxBlock->xBlockSize - xWantedSize;
    1c2e:	69fb      	ldr	r3, [r7, #28]
    1c30:	685a      	ldr	r2, [r3, #4]
    1c32:	687b      	ldr	r3, [r7, #4]
    1c34:	1ad2      	subs	r2, r2, r3
    1c36:	68bb      	ldr	r3, [r7, #8]
    1c38:	605a      	str	r2, [r3, #4]
                        pxBlock->xBlockSize = xWantedSize;
    1c3a:	69fb      	ldr	r3, [r7, #28]
    1c3c:	687a      	ldr	r2, [r7, #4]
    1c3e:	605a      	str	r2, [r3, #4]

                        /* Insert the new block into the list of free blocks. */
                        pxNewBlockLink->pxNextFreeBlock = pxPreviousBlock->pxNextFreeBlock;
    1c40:	69bb      	ldr	r3, [r7, #24]
    1c42:	681a      	ldr	r2, [r3, #0]
    1c44:	68bb      	ldr	r3, [r7, #8]
    1c46:	601a      	str	r2, [r3, #0]
                        pxPreviousBlock->pxNextFreeBlock = heapPROTECT_BLOCK_POINTER( pxNewBlockLink );
    1c48:	69bb      	ldr	r3, [r7, #24]
    1c4a:	68ba      	ldr	r2, [r7, #8]
    1c4c:	601a      	str	r2, [r3, #0]
                    else
                    {
                        mtCOVERAGE_TEST_MARKER();
                    }

                    xFreeBytesRemaining -= pxBlock->xBlockSize;
    1c4e:	4b15      	ldr	r3, [pc, #84]	@ (1ca4 <pvPortMalloc+0x154>)
    1c50:	681a      	ldr	r2, [r3, #0]
    1c52:	69fb      	ldr	r3, [r7, #28]
    1c54:	685b      	ldr	r3, [r3, #4]
    1c56:	1ad3      	subs	r3, r2, r3
    1c58:	4a12      	ldr	r2, [pc, #72]	@ (1ca4 <pvPortMalloc+0x154>)
    1c5a:	6013      	str	r3, [r2, #0]

                    if( xFreeBytesRemaining < xMinimumEverFreeBytesRemaining )
    1c5c:	4b11      	ldr	r3, [pc, #68]	@ (1ca4 <pvPortMalloc+0x154>)
    1c5e:	681a      	ldr	r2, [r3, #0]
    1c60:	4b12      	ldr	r3, [pc, #72]	@ (1cac <pvPortMalloc+0x15c>)
    1c62:	681b      	ldr	r3, [r3, #0]
    1c64:	429a      	cmp	r2, r3
    1c66:	d203      	bcs.n	1c70 <pvPortMalloc+0x120>
                    {
                        xMinimumEverFreeBytesRemaining = xFreeBytesRemaining;
    1c68:	4b0e      	ldr	r3, [pc, #56]	@ (1ca4 <pvPortMalloc+0x154>)
    1c6a:	681b      	ldr	r3, [r3, #0]
    1c6c:	4a0f      	ldr	r2, [pc, #60]	@ (1cac <pvPortMalloc+0x15c>)
    1c6e:	6013      	str	r3, [r2, #0]
                    else
                    {
                        mtCOVERAGE_TEST_MARKER();
                    }

                    xAllocatedBlockSize = pxBlock->xBlockSize;
    1c70:	69fb      	ldr	r3, [r7, #28]
    1c72:	685b      	ldr	r3, [r3, #4]
    1c74:	613b      	str	r3, [r7, #16]

                    /* The block is being returned - it is allocated and owned
                     * by the application and has no "next" block. */
                    heapALLOCATE_BLOCK( pxBlock );
    1c76:	69fb      	ldr	r3, [r7, #28]
    1c78:	685b      	ldr	r3, [r3, #4]
    1c7a:	f043 4200 	orr.w	r2, r3, #2147483648	@ 0x80000000
    1c7e:	69fb      	ldr	r3, [r7, #28]
    1c80:	605a      	str	r2, [r3, #4]
                    pxBlock->pxNextFreeBlock = heapPROTECT_BLOCK_POINTER( NULL );
    1c82:	69fb      	ldr	r3, [r7, #28]
    1c84:	2200      	movs	r2, #0
    1c86:	601a      	str	r2, [r3, #0]
                    xNumberOfSuccessfulAllocations++;
    1c88:	4b09      	ldr	r3, [pc, #36]	@ (1cb0 <pvPortMalloc+0x160>)
    1c8a:	681b      	ldr	r3, [r3, #0]
    1c8c:	3301      	adds	r3, #1
    1c8e:	4a08      	ldr	r2, [pc, #32]	@ (1cb0 <pvPortMalloc+0x160>)
    1c90:	6013      	str	r3, [r2, #0]
        traceMALLOC( pvReturn, xAllocatedBlockSize );

        /* Prevent compiler warnings when trace macros are not used. */
        ( void ) xAllocatedBlockSize;
    }
    ( void ) xTaskResumeAll();
    1c92:	f7fe fce9 	bl	668 <xTaskResumeAll>
        }
    }
    #endif /* if ( configUSE_MALLOC_FAILED_HOOK == 1 ) */

    configASSERT( ( ( ( size_t ) pvReturn ) & ( size_t ) portBYTE_ALIGNMENT_MASK ) == 0 );
    return pvReturn;
    1c96:	697b      	ldr	r3, [r7, #20]
}
    1c98:	4618      	mov	r0, r3
    1c9a:	3720      	adds	r7, #32
    1c9c:	46bd      	mov	sp, r7
    1c9e:	bd80      	pop	{r7, pc}
    1ca0:	200010e4 	andcs	r1, r0, r4, ror #1
    1ca4:	200010e8 	andcs	r1, r0, r8, ror #1
    1ca8:	200010dc 	ldrdcs	r1, [r0], -ip
    1cac:	200010ec 	andcs	r1, r0, ip, ror #1
    1cb0:	200010f0 	strdcs	r1, [r0], -r0

00001cb4 <vPortFree>:
/*-----------------------------------------------------------*/

void vPortFree( void * pv )
{
    1cb4:	b580      	push	{r7, lr}
    1cb6:	b084      	sub	sp, #16
    1cb8:	af00      	add	r7, sp, #0
    1cba:	6078      	str	r0, [r7, #4]
    uint8_t * puc = ( uint8_t * ) pv;
    1cbc:	687b      	ldr	r3, [r7, #4]
    1cbe:	60fb      	str	r3, [r7, #12]
    BlockLink_t * pxLink;

    if( pv != NULL )
    1cc0:	687b      	ldr	r3, [r7, #4]
    1cc2:	2b00      	cmp	r3, #0
    1cc4:	d027      	beq.n	1d16 <vPortFree+0x62>
    {
        /* The memory being freed will have an BlockLink_t structure immediately
         * before it. */
        puc -= xHeapStructSize;
    1cc6:	2308      	movs	r3, #8
    1cc8:	425b      	negs	r3, r3
    1cca:	68fa      	ldr	r2, [r7, #12]
    1ccc:	4413      	add	r3, r2
    1cce:	60fb      	str	r3, [r7, #12]

        /* This casting is to keep the compiler from issuing warnings. */
        pxLink = ( void * ) puc;
    1cd0:	68fb      	ldr	r3, [r7, #12]
    1cd2:	60bb      	str	r3, [r7, #8]

        heapVALIDATE_BLOCK_POINTER( pxLink );
        configASSERT( heapBLOCK_IS_ALLOCATED( pxLink ) != 0 );
        configASSERT( pxLink->pxNextFreeBlock == heapPROTECT_BLOCK_POINTER( NULL ) );

        if( heapBLOCK_IS_ALLOCATED( pxLink ) != 0 )
    1cd4:	68bb      	ldr	r3, [r7, #8]
    1cd6:	685b      	ldr	r3, [r3, #4]
    1cd8:	2b00      	cmp	r3, #0
    1cda:	da1c      	bge.n	1d16 <vPortFree+0x62>
        {
            if( pxLink->pxNextFreeBlock == heapPROTECT_BLOCK_POINTER( NULL ) )
    1cdc:	68bb      	ldr	r3, [r7, #8]
    1cde:	681b      	ldr	r3, [r3, #0]
    1ce0:	2b00      	cmp	r3, #0
    1ce2:	d118      	bne.n	1d16 <vPortFree+0x62>
            {
                /* The block is being returned to the heap - it is no longer
                 * allocated. */
                heapFREE_BLOCK( pxLink );
    1ce4:	68bb      	ldr	r3, [r7, #8]
    1ce6:	685b      	ldr	r3, [r3, #4]
    1ce8:	f023 4200 	bic.w	r2, r3, #2147483648	@ 0x80000000
    1cec:	68bb      	ldr	r3, [r7, #8]
    1cee:	605a      	str	r2, [r3, #4]
                        ( void ) memset( puc + xHeapStructSize, 0, pxLink->xBlockSize - xHeapStructSize );
                    }
                }
                #endif

                vTaskSuspendAll();
    1cf0:	f7fe fcac 	bl	64c <vTaskSuspendAll>
                {
                    /* Add this block to the list of free blocks. */
                    xFreeBytesRemaining += pxLink->xBlockSize;
    1cf4:	68bb      	ldr	r3, [r7, #8]
    1cf6:	685a      	ldr	r2, [r3, #4]
    1cf8:	4b09      	ldr	r3, [pc, #36]	@ (1d20 <vPortFree+0x6c>)
    1cfa:	681b      	ldr	r3, [r3, #0]
    1cfc:	4413      	add	r3, r2
    1cfe:	4a08      	ldr	r2, [pc, #32]	@ (1d20 <vPortFree+0x6c>)
    1d00:	6013      	str	r3, [r2, #0]
                    traceFREE( pv, pxLink->xBlockSize );
                    prvInsertBlockIntoFreeList( ( ( BlockLink_t * ) pxLink ) );
    1d02:	68b8      	ldr	r0, [r7, #8]
    1d04:	f000 f8c2 	bl	1e8c <prvInsertBlockIntoFreeList>
                    xNumberOfSuccessfulFrees++;
    1d08:	4b06      	ldr	r3, [pc, #24]	@ (1d24 <vPortFree+0x70>)
    1d0a:	681b      	ldr	r3, [r3, #0]
    1d0c:	3301      	adds	r3, #1
    1d0e:	4a05      	ldr	r2, [pc, #20]	@ (1d24 <vPortFree+0x70>)
    1d10:	6013      	str	r3, [r2, #0]
                }
                ( void ) xTaskResumeAll();
    1d12:	f7fe fca9 	bl	668 <xTaskResumeAll>
        else
        {
            mtCOVERAGE_TEST_MARKER();
        }
    }
}
    1d16:	bf00      	nop
    1d18:	3710      	adds	r7, #16
    1d1a:	46bd      	mov	sp, r7
    1d1c:	bd80      	pop	{r7, pc}
    1d1e:	bf00      	nop
    1d20:	200010e8 	andcs	r1, r0, r8, ror #1
    1d24:	200010f4 	strdcs	r1, [r0], -r4

00001d28 <xPortGetFreeHeapSize>:
/*-----------------------------------------------------------*/

size_t xPortGetFreeHeapSize( void )
{
    1d28:	b480      	push	{r7}
    1d2a:	af00      	add	r7, sp, #0
    return xFreeBytesRemaining;
    1d2c:	4b02      	ldr	r3, [pc, #8]	@ (1d38 <xPortGetFreeHeapSize+0x10>)
    1d2e:	681b      	ldr	r3, [r3, #0]
}
    1d30:	4618      	mov	r0, r3
    1d32:	46bd      	mov	sp, r7
    1d34:	bc80      	pop	{r7}
    1d36:	4770      	bx	lr
    1d38:	200010e8 	andcs	r1, r0, r8, ror #1

00001d3c <xPortGetMinimumEverFreeHeapSize>:
/*-----------------------------------------------------------*/

size_t xPortGetMinimumEverFreeHeapSize( void )
{
    1d3c:	b480      	push	{r7}
    1d3e:	af00      	add	r7, sp, #0
    return xMinimumEverFreeBytesRemaining;
    1d40:	4b02      	ldr	r3, [pc, #8]	@ (1d4c <xPortGetMinimumEverFreeHeapSize+0x10>)
    1d42:	681b      	ldr	r3, [r3, #0]
}
    1d44:	4618      	mov	r0, r3
    1d46:	46bd      	mov	sp, r7
    1d48:	bc80      	pop	{r7}
    1d4a:	4770      	bx	lr
    1d4c:	200010ec 	andcs	r1, r0, ip, ror #1

00001d50 <xPortResetHeapMinimumEverFreeHeapSize>:
/*-----------------------------------------------------------*/

void xPortResetHeapMinimumEverFreeHeapSize( void )
{
    1d50:	b480      	push	{r7}
    1d52:	af00      	add	r7, sp, #0
    xMinimumEverFreeBytesRemaining = xFreeBytesRemaining;
    1d54:	4b03      	ldr	r3, [pc, #12]	@ (1d64 <xPortResetHeapMinimumEverFreeHeapSize+0x14>)
    1d56:	681b      	ldr	r3, [r3, #0]
    1d58:	4a03      	ldr	r2, [pc, #12]	@ (1d68 <xPortResetHeapMinimumEverFreeHeapSize+0x18>)
    1d5a:	6013      	str	r3, [r2, #0]
}
    1d5c:	bf00      	nop
    1d5e:	46bd      	mov	sp, r7
    1d60:	bc80      	pop	{r7}
    1d62:	4770      	bx	lr
    1d64:	200010e8 	andcs	r1, r0, r8, ror #1
    1d68:	200010ec 	andcs	r1, r0, ip, ror #1

00001d6c <vPortInitialiseBlocks>:
/*-----------------------------------------------------------*/

void vPortInitialiseBlocks( void )
{
    1d6c:	b480      	push	{r7}
    1d6e:	af00      	add	r7, sp, #0
    /* This just exists to keep the linker quiet. */
}
    1d70:	bf00      	nop
    1d72:	46bd      	mov	sp, r7
    1d74:	bc80      	pop	{r7}
    1d76:	4770      	bx	lr

00001d78 <pvPortCalloc>:
/*-----------------------------------------------------------*/

void * pvPortCalloc( size_t xNum,
                     size_t xSize )
{
    1d78:	b580      	push	{r7, lr}
    1d7a:	b084      	sub	sp, #16
    1d7c:	af00      	add	r7, sp, #0
    1d7e:	6078      	str	r0, [r7, #4]
    1d80:	6039      	str	r1, [r7, #0]
    void * pv = NULL;
    1d82:	2300      	movs	r3, #0
    1d84:	60fb      	str	r3, [r7, #12]

    if( heapMULTIPLY_WILL_OVERFLOW( xNum, xSize ) == 0 )
    1d86:	687b      	ldr	r3, [r7, #4]
    1d88:	2b00      	cmp	r3, #0
    1d8a:	d009      	beq.n	1da0 <pvPortCalloc+0x28>
    1d8c:	f04f 32ff 	mov.w	r2, #4294967295	@ 0xffffffff
    1d90:	687b      	ldr	r3, [r7, #4]
    1d92:	fbb2 f3f3 	udiv	r3, r2, r3
    1d96:	683a      	ldr	r2, [r7, #0]
    1d98:	429a      	cmp	r2, r3
    1d9a:	d901      	bls.n	1da0 <pvPortCalloc+0x28>
    1d9c:	2301      	movs	r3, #1
    1d9e:	e000      	b.n	1da2 <pvPortCalloc+0x2a>
    1da0:	2300      	movs	r3, #0
    1da2:	2b00      	cmp	r3, #0
    1da4:	d113      	bne.n	1dce <pvPortCalloc+0x56>
    {
        pv = pvPortMalloc( xNum * xSize );
    1da6:	687b      	ldr	r3, [r7, #4]
    1da8:	683a      	ldr	r2, [r7, #0]
    1daa:	fb02 f303 	mul.w	r3, r2, r3
    1dae:	4618      	mov	r0, r3
    1db0:	f7ff fece 	bl	1b50 <pvPortMalloc>
    1db4:	60f8      	str	r0, [r7, #12]

        if( pv != NULL )
    1db6:	68fb      	ldr	r3, [r7, #12]
    1db8:	2b00      	cmp	r3, #0
    1dba:	d008      	beq.n	1dce <pvPortCalloc+0x56>
        {
            ( void ) memset( pv, 0, xNum * xSize );
    1dbc:	687b      	ldr	r3, [r7, #4]
    1dbe:	683a      	ldr	r2, [r7, #0]
    1dc0:	fb02 f303 	mul.w	r3, r2, r3
    1dc4:	461a      	mov	r2, r3
    1dc6:	2100      	movs	r1, #0
    1dc8:	68f8      	ldr	r0, [r7, #12]
    1dca:	f000 f935 	bl	2038 <memset>
        }
    }

    return pv;
    1dce:	68fb      	ldr	r3, [r7, #12]
}
    1dd0:	4618      	mov	r0, r3
    1dd2:	3710      	adds	r7, #16
    1dd4:	46bd      	mov	sp, r7
    1dd6:	bd80      	pop	{r7, pc}

00001dd8 <prvHeapInit>:
/*-----------------------------------------------------------*/

static void prvHeapInit( void ) /* PRIVILEGED_FUNCTION */
{
    1dd8:	b480      	push	{r7}
    1dda:	b085      	sub	sp, #20
    1ddc:	af00      	add	r7, sp, #0
    BlockLink_t * pxFirstFreeBlock;
    portPOINTER_SIZE_TYPE uxStartAddress, uxEndAddress;
    size_t xTotalHeapSize = configTOTAL_HEAP_SIZE;
    1dde:	f44f 5380 	mov.w	r3, #4096	@ 0x1000
    1de2:	60bb      	str	r3, [r7, #8]

    /* Ensure the heap starts on a correctly aligned boundary. */
    uxStartAddress = ( portPOINTER_SIZE_TYPE ) ucHeap;
    1de4:	4b24      	ldr	r3, [pc, #144]	@ (1e78 <prvHeapInit+0xa0>)
    1de6:	60fb      	str	r3, [r7, #12]

    if( ( uxStartAddress & portBYTE_ALIGNMENT_MASK ) != 0 )
    1de8:	68fb      	ldr	r3, [r7, #12]
    1dea:	f003 0307 	and.w	r3, r3, #7
    1dee:	2b00      	cmp	r3, #0
    1df0:	d00c      	beq.n	1e0c <prvHeapInit+0x34>
    {
        uxStartAddress += ( portBYTE_ALIGNMENT - 1 );
    1df2:	68fb      	ldr	r3, [r7, #12]
    1df4:	3307      	adds	r3, #7
    1df6:	60fb      	str	r3, [r7, #12]
        uxStartAddress &= ~( ( portPOINTER_SIZE_TYPE ) portBYTE_ALIGNMENT_MASK );
    1df8:	68fb      	ldr	r3, [r7, #12]
    1dfa:	f023 0307 	bic.w	r3, r3, #7
    1dfe:	60fb      	str	r3, [r7, #12]
        xTotalHeapSize -= ( size_t ) ( uxStartAddress - ( portPOINTER_SIZE_TYPE ) ucHeap );
    1e00:	68ba      	ldr	r2, [r7, #8]
    1e02:	68fb      	ldr	r3, [r7, #12]
    1e04:	1ad3      	subs	r3, r2, r3
    1e06:	4a1c      	ldr	r2, [pc, #112]	@ (1e78 <prvHeapInit+0xa0>)
    1e08:	4413      	add	r3, r2
    1e0a:	60bb      	str	r3, [r7, #8]
    }
    #endif

    /* xStart is used to hold a pointer to the first item in the list of free
     * blocks.  The void cast is used to prevent compiler warnings. */
    xStart.pxNextFreeBlock = ( void * ) heapPROTECT_BLOCK_POINTER( uxStartAddress );
    1e0c:	68fb      	ldr	r3, [r7, #12]
    1e0e:	4a1b      	ldr	r2, [pc, #108]	@ (1e7c <prvHeapInit+0xa4>)
    1e10:	6013      	str	r3, [r2, #0]
    xStart.xBlockSize = ( size_t ) 0;
    1e12:	4b1a      	ldr	r3, [pc, #104]	@ (1e7c <prvHeapInit+0xa4>)
    1e14:	2200      	movs	r2, #0
    1e16:	605a      	str	r2, [r3, #4]

    /* pxEnd is used to mark the end of the list of free blocks and is inserted
     * at the end of the heap space. */
    uxEndAddress = uxStartAddress + ( portPOINTER_SIZE_TYPE ) xTotalHeapSize;
    1e18:	68fa      	ldr	r2, [r7, #12]
    1e1a:	68bb      	ldr	r3, [r7, #8]
    1e1c:	4413      	add	r3, r2
    1e1e:	607b      	str	r3, [r7, #4]
    uxEndAddress -= ( portPOINTER_SIZE_TYPE ) xHeapStructSize;
    1e20:	2208      	movs	r2, #8
    1e22:	687b      	ldr	r3, [r7, #4]
    1e24:	1a9b      	subs	r3, r3, r2
    1e26:	607b      	str	r3, [r7, #4]
    uxEndAddress &= ~( ( portPOINTER_SIZE_TYPE ) portBYTE_ALIGNMENT_MASK );
    1e28:	687b      	ldr	r3, [r7, #4]
    1e2a:	f023 0307 	bic.w	r3, r3, #7
    1e2e:	607b      	str	r3, [r7, #4]
    pxEnd = ( BlockLink_t * ) uxEndAddress;
    1e30:	687b      	ldr	r3, [r7, #4]
    1e32:	4a13      	ldr	r2, [pc, #76]	@ (1e80 <prvHeapInit+0xa8>)
    1e34:	6013      	str	r3, [r2, #0]
    pxEnd->xBlockSize = 0;
    1e36:	4b12      	ldr	r3, [pc, #72]	@ (1e80 <prvHeapInit+0xa8>)
    1e38:	681b      	ldr	r3, [r3, #0]
    1e3a:	2200      	movs	r2, #0
    1e3c:	605a      	str	r2, [r3, #4]
    pxEnd->pxNextFreeBlock = heapPROTECT_BLOCK_POINTER( NULL );
    1e3e:	4b10      	ldr	r3, [pc, #64]	@ (1e80 <prvHeapInit+0xa8>)
    1e40:	681b      	ldr	r3, [r3, #0]
    1e42:	2200      	movs	r2, #0
    1e44:	601a      	str	r2, [r3, #0]

    /* To start with there is a single free block that is sized to take up the
     * entire heap space, minus the space taken by pxEnd. */
    pxFirstFreeBlock = ( BlockLink_t * ) uxStartAddress;
    1e46:	68fb      	ldr	r3, [r7, #12]
    1e48:	603b      	str	r3, [r7, #0]
    pxFirstFreeBlock->xBlockSize = ( size_t ) ( uxEndAddress - ( portPOINTER_SIZE_TYPE ) pxFirstFreeBlock );
    1e4a:	683b      	ldr	r3, [r7, #0]
    1e4c:	687a      	ldr	r2, [r7, #4]
    1e4e:	1ad2      	subs	r2, r2, r3
    1e50:	683b      	ldr	r3, [r7, #0]
    1e52:	605a      	str	r2, [r3, #4]
    pxFirstFreeBlock->pxNextFreeBlock = heapPROTECT_BLOCK_POINTER( pxEnd );
    1e54:	4b0a      	ldr	r3, [pc, #40]	@ (1e80 <prvHeapInit+0xa8>)
    1e56:	681a      	ldr	r2, [r3, #0]
    1e58:	683b      	ldr	r3, [r7, #0]
    1e5a:	601a      	str	r2, [r3, #0]

    /* Only one block exists - and it covers the entire usable heap space. */
    xMinimumEverFreeBytesRemaining = pxFirstFreeBlock->xBlockSize;
    1e5c:	683b      	ldr	r3, [r7, #0]
    1e5e:	685b      	ldr	r3, [r3, #4]
    1e60:	4a08      	ldr	r2, [pc, #32]	@ (1e84 <prvHeapInit+0xac>)
    1e62:	6013      	str	r3, [r2, #0]
    xFreeBytesRemaining = pxFirstFreeBlock->xBlockSize;
    1e64:	683b      	ldr	r3, [r7, #0]
    1e66:	685b      	ldr	r3, [r3, #4]
    1e68:	4a07      	ldr	r2, [pc, #28]	@ (1e88 <prvHeapInit+0xb0>)
    1e6a:	6013      	str	r3, [r2, #0]
}
    1e6c:	bf00      	nop
    1e6e:	3714      	adds	r7, #20
    1e70:	46bd      	mov	sp, r7
    1e72:	bc80      	pop	{r7}
    1e74:	4770      	bx	lr
    1e76:	bf00      	nop
    1e78:	200000dc 	ldrdcs	r0, [r0], -ip
    1e7c:	200010dc 	ldrdcs	r1, [r0], -ip
    1e80:	200010e4 	andcs	r1, r0, r4, ror #1
    1e84:	200010ec 	andcs	r1, r0, ip, ror #1
    1e88:	200010e8 	andcs	r1, r0, r8, ror #1

00001e8c <prvInsertBlockIntoFreeList>:
/*-----------------------------------------------------------*/

static void prvInsertBlockIntoFreeList( BlockLink_t * pxBlockToInsert ) /* PRIVILEGED_FUNCTION */
{
    1e8c:	b480      	push	{r7}
    1e8e:	b085      	sub	sp, #20
    1e90:	af00      	add	r7, sp, #0
    1e92:	6078      	str	r0, [r7, #4]
    BlockLink_t * pxIterator;
    uint8_t * puc;

    /* Iterate through the list until a block is found that has a higher address
     * than the block being inserted. */
    for( pxIterator = &xStart; heapPROTECT_BLOCK_POINTER( pxIterator->pxNextFreeBlock ) < pxBlockToInsert; pxIterator = heapPROTECT_BLOCK_POINTER( pxIterator->pxNextFreeBlock ) )
    1e94:	4b27      	ldr	r3, [pc, #156]	@ (1f34 <prvInsertBlockIntoFreeList+0xa8>)
    1e96:	60fb      	str	r3, [r7, #12]
    1e98:	e002      	b.n	1ea0 <prvInsertBlockIntoFreeList+0x14>
    1e9a:	68fb      	ldr	r3, [r7, #12]
    1e9c:	681b      	ldr	r3, [r3, #0]
    1e9e:	60fb      	str	r3, [r7, #12]
    1ea0:	68fb      	ldr	r3, [r7, #12]
    1ea2:	681b      	ldr	r3, [r3, #0]
    1ea4:	687a      	ldr	r2, [r7, #4]
    1ea6:	429a      	cmp	r2, r3
    1ea8:	d8f7      	bhi.n	1e9a <prvInsertBlockIntoFreeList+0xe>
        heapVALIDATE_BLOCK_POINTER( pxIterator );
    }

    /* Do the block being inserted, and the block it is being inserted after
     * make a contiguous block of memory? */
    puc = ( uint8_t * ) pxIterator;
    1eaa:	68fb      	ldr	r3, [r7, #12]
    1eac:	60bb      	str	r3, [r7, #8]

    if( ( puc + pxIterator->xBlockSize ) == ( uint8_t * ) pxBlockToInsert )
    1eae:	68fb      	ldr	r3, [r7, #12]
    1eb0:	685b      	ldr	r3, [r3, #4]
    1eb2:	68ba      	ldr	r2, [r7, #8]
    1eb4:	4413      	add	r3, r2
    1eb6:	687a      	ldr	r2, [r7, #4]
    1eb8:	429a      	cmp	r2, r3
    1eba:	d108      	bne.n	1ece <prvInsertBlockIntoFreeList+0x42>
    {
        pxIterator->xBlockSize += pxBlockToInsert->xBlockSize;
    1ebc:	68fb      	ldr	r3, [r7, #12]
    1ebe:	685a      	ldr	r2, [r3, #4]
    1ec0:	687b      	ldr	r3, [r7, #4]
    1ec2:	685b      	ldr	r3, [r3, #4]
    1ec4:	441a      	add	r2, r3
    1ec6:	68fb      	ldr	r3, [r7, #12]
    1ec8:	605a      	str	r2, [r3, #4]
        pxBlockToInsert = pxIterator;
    1eca:	68fb      	ldr	r3, [r7, #12]
    1ecc:	607b      	str	r3, [r7, #4]
        mtCOVERAGE_TEST_MARKER();
    }

    /* Do the block being inserted, and the block it is being inserted before
     * make a contiguous block of memory? */
    puc = ( uint8_t * ) pxBlockToInsert;
    1ece:	687b      	ldr	r3, [r7, #4]
    1ed0:	60bb      	str	r3, [r7, #8]

    if( ( puc + pxBlockToInsert->xBlockSize ) == ( uint8_t * ) heapPROTECT_BLOCK_POINTER( pxIterator->pxNextFreeBlock ) )
    1ed2:	687b      	ldr	r3, [r7, #4]
    1ed4:	685b      	ldr	r3, [r3, #4]
    1ed6:	68ba      	ldr	r2, [r7, #8]
    1ed8:	441a      	add	r2, r3
    1eda:	68fb      	ldr	r3, [r7, #12]
    1edc:	681b      	ldr	r3, [r3, #0]
    1ede:	429a      	cmp	r2, r3
    1ee0:	d118      	bne.n	1f14 <prvInsertBlockIntoFreeList+0x88>
    {
        if( heapPROTECT_BLOCK_POINTER( pxIterator->pxNextFreeBlock ) != pxEnd )
    1ee2:	68fb      	ldr	r3, [r7, #12]
    1ee4:	681a      	ldr	r2, [r3, #0]
    1ee6:	4b14      	ldr	r3, [pc, #80]	@ (1f38 <prvInsertBlockIntoFreeList+0xac>)
    1ee8:	681b      	ldr	r3, [r3, #0]
    1eea:	429a      	cmp	r2, r3
    1eec:	d00d      	beq.n	1f0a <prvInsertBlockIntoFreeList+0x7e>
        {
            /* Form one big block from the two blocks. */
            pxBlockToInsert->xBlockSize += heapPROTECT_BLOCK_POINTER( pxIterator->pxNextFreeBlock )->xBlockSize;
    1eee:	687b      	ldr	r3, [r7, #4]
    1ef0:	685a      	ldr	r2, [r3, #4]
    1ef2:	68fb      	ldr	r3, [r7, #12]
    1ef4:	681b      	ldr	r3, [r3, #0]
    1ef6:	685b      	ldr	r3, [r3, #4]
    1ef8:	441a      	add	r2, r3
    1efa:	687b      	ldr	r3, [r7, #4]
    1efc:	605a      	str	r2, [r3, #4]
            pxBlockToInsert->pxNextFreeBlock = heapPROTECT_BLOCK_POINTER( pxIterator->pxNextFreeBlock )->pxNextFreeBlock;
    1efe:	68fb      	ldr	r3, [r7, #12]
    1f00:	681b      	ldr	r3, [r3, #0]
    1f02:	681a      	ldr	r2, [r3, #0]
    1f04:	687b      	ldr	r3, [r7, #4]
    1f06:	601a      	str	r2, [r3, #0]
    1f08:	e008      	b.n	1f1c <prvInsertBlockIntoFreeList+0x90>
        }
        else
        {
            pxBlockToInsert->pxNextFreeBlock = heapPROTECT_BLOCK_POINTER( pxEnd );
    1f0a:	4b0b      	ldr	r3, [pc, #44]	@ (1f38 <prvInsertBlockIntoFreeList+0xac>)
    1f0c:	681a      	ldr	r2, [r3, #0]
    1f0e:	687b      	ldr	r3, [r7, #4]
    1f10:	601a      	str	r2, [r3, #0]
    1f12:	e003      	b.n	1f1c <prvInsertBlockIntoFreeList+0x90>
        }
    }
    else
    {
        pxBlockToInsert->pxNextFreeBlock = pxIterator->pxNextFreeBlock;
    1f14:	68fb      	ldr	r3, [r7, #12]
    1f16:	681a      	ldr	r2, [r3, #0]
    1f18:	687b      	ldr	r3, [r7, #4]
    1f1a:	601a      	str	r2, [r3, #0]

    /* If the block being inserted plugged a gap, so was merged with the block
     * before and the block after, then it's pxNextFreeBlock pointer will have
     * already been set, and should not be set here as that would make it point
     * to itself. */
    if( pxIterator != pxBlockToInsert )
    1f1c:	68fa      	ldr	r2, [r7, #12]
    1f1e:	687b      	ldr	r3, [r7, #4]
    1f20:	429a      	cmp	r2, r3
    1f22:	d002      	beq.n	1f2a <prvInsertBlockIntoFreeList+0x9e>
    {
        pxIterator->pxNextFreeBlock = heapPROTECT_BLOCK_POINTER( pxBlockToInsert );
    1f24:	68fb      	ldr	r3, [r7, #12]
    1f26:	687a      	ldr	r2, [r7, #4]
    1f28:	601a      	str	r2, [r3, #0]
    }
    else
    {
        mtCOVERAGE_TEST_MARKER();
    }
}
    1f2a:	bf00      	nop
    1f2c:	3714      	adds	r7, #20
    1f2e:	46bd      	mov	sp, r7
    1f30:	bc80      	pop	{r7}
    1f32:	4770      	bx	lr
    1f34:	200010dc 	ldrdcs	r1, [r0], -ip
    1f38:	200010e4 	andcs	r1, r0, r4, ror #1

00001f3c <vPortGetHeapStats>:
/*-----------------------------------------------------------*/

void vPortGetHeapStats( HeapStats_t * pxHeapStats )
{
    1f3c:	b580      	push	{r7, lr}
    1f3e:	b086      	sub	sp, #24
    1f40:	af00      	add	r7, sp, #0
    1f42:	6078      	str	r0, [r7, #4]
    BlockLink_t * pxBlock;
    size_t xBlocks = 0, xMaxSize = 0, xMinSize = SIZE_MAX;
    1f44:	2300      	movs	r3, #0
    1f46:	613b      	str	r3, [r7, #16]
    1f48:	2300      	movs	r3, #0
    1f4a:	60fb      	str	r3, [r7, #12]
    1f4c:	f04f 33ff 	mov.w	r3, #4294967295	@ 0xffffffff
    1f50:	60bb      	str	r3, [r7, #8]

    vTaskSuspendAll();
    1f52:	f7fe fb7b 	bl	64c <vTaskSuspendAll>
    {
        pxBlock = heapPROTECT_BLOCK_POINTER( xStart.pxNextFreeBlock );
    1f56:	4b22      	ldr	r3, [pc, #136]	@ (1fe0 <vPortGetHeapStats+0xa4>)
    1f58:	681b      	ldr	r3, [r3, #0]
    1f5a:	617b      	str	r3, [r7, #20]

        /* pxBlock will be NULL if the heap has not been initialised.  The heap
         * is initialised automatically when the first allocation is made. */
        if( pxBlock != NULL )
    1f5c:	697b      	ldr	r3, [r7, #20]
    1f5e:	2b00      	cmp	r3, #0
    1f60:	d01b      	beq.n	1f9a <vPortGetHeapStats+0x5e>
        {
            while( pxBlock != pxEnd )
    1f62:	e015      	b.n	1f90 <vPortGetHeapStats+0x54>
            {
                /* Increment the number of blocks and record the largest block seen
                 * so far. */
                xBlocks++;
    1f64:	693b      	ldr	r3, [r7, #16]
    1f66:	3301      	adds	r3, #1
    1f68:	613b      	str	r3, [r7, #16]

                if( pxBlock->xBlockSize > xMaxSize )
    1f6a:	697b      	ldr	r3, [r7, #20]
    1f6c:	685b      	ldr	r3, [r3, #4]
    1f6e:	68fa      	ldr	r2, [r7, #12]
    1f70:	429a      	cmp	r2, r3
    1f72:	d202      	bcs.n	1f7a <vPortGetHeapStats+0x3e>
                {
                    xMaxSize = pxBlock->xBlockSize;
    1f74:	697b      	ldr	r3, [r7, #20]
    1f76:	685b      	ldr	r3, [r3, #4]
    1f78:	60fb      	str	r3, [r7, #12]
                }

                if( pxBlock->xBlockSize < xMinSize )
    1f7a:	697b      	ldr	r3, [r7, #20]
    1f7c:	685b      	ldr	r3, [r3, #4]
    1f7e:	68ba      	ldr	r2, [r7, #8]
    1f80:	429a      	cmp	r2, r3
    1f82:	d902      	bls.n	1f8a <vPortGetHeapStats+0x4e>
                {
                    xMinSize = pxBlock->xBlockSize;
    1f84:	697b      	ldr	r3, [r7, #20]
    1f86:	685b      	ldr	r3, [r3, #4]
    1f88:	60bb      	str	r3, [r7, #8]
                }

                /* Move to the next block in the chain until the last block is
                 * reached. */
                pxBlock = heapPROTECT_BLOCK_POINTER( pxBlock->pxNextFreeBlock );
    1f8a:	697b      	ldr	r3, [r7, #20]
    1f8c:	681b      	ldr	r3, [r3, #0]
    1f8e:	617b      	str	r3, [r7, #20]
            while( pxBlock != pxEnd )
    1f90:	4b14      	ldr	r3, [pc, #80]	@ (1fe4 <vPortGetHeapStats+0xa8>)
    1f92:	681b      	ldr	r3, [r3, #0]
    1f94:	697a      	ldr	r2, [r7, #20]
    1f96:	429a      	cmp	r2, r3
    1f98:	d1e4      	bne.n	1f64 <vPortGetHeapStats+0x28>
            }
        }
    }
    ( void ) xTaskResumeAll();
    1f9a:	f7fe fb65 	bl	668 <xTaskResumeAll>

    pxHeapStats->xSizeOfLargestFreeBlockInBytes = xMaxSize;
    1f9e:	687b      	ldr	r3, [r7, #4]
    1fa0:	68fa      	ldr	r2, [r7, #12]
    1fa2:	605a      	str	r2, [r3, #4]
    pxHeapStats->xSizeOfSmallestFreeBlockInBytes = xMinSize;
    1fa4:	687b      	ldr	r3, [r7, #4]
    1fa6:	68ba      	ldr	r2, [r7, #8]
    1fa8:	609a      	str	r2, [r3, #8]
    pxHeapStats->xNumberOfFreeBlocks = xBlocks;
    1faa:	687b      	ldr	r3, [r7, #4]
    1fac:	693a      	ldr	r2, [r7, #16]
    1fae:	60da      	str	r2, [r3, #12]

    taskENTER_CRITICAL();
    1fb0:	f000 f8fc 	bl	21ac <vPortEnterCritical>
    {
        pxHeapStats->xAvailableHeapSpaceInBytes = xFreeBytesRemaining;
    1fb4:	4b0c      	ldr	r3, [pc, #48]	@ (1fe8 <vPortGetHeapStats+0xac>)
    1fb6:	681a      	ldr	r2, [r3, #0]
    1fb8:	687b      	ldr	r3, [r7, #4]
    1fba:	601a      	str	r2, [r3, #0]
        pxHeapStats->xNumberOfSuccessfulAllocations = xNumberOfSuccessfulAllocations;
    1fbc:	4b0b      	ldr	r3, [pc, #44]	@ (1fec <vPortGetHeapStats+0xb0>)
    1fbe:	681a      	ldr	r2, [r3, #0]
    1fc0:	687b      	ldr	r3, [r7, #4]
    1fc2:	615a      	str	r2, [r3, #20]
        pxHeapStats->xNumberOfSuccessfulFrees = xNumberOfSuccessfulFrees;
    1fc4:	4b0a      	ldr	r3, [pc, #40]	@ (1ff0 <vPortGetHeapStats+0xb4>)
    1fc6:	681a      	ldr	r2, [r3, #0]
    1fc8:	687b      	ldr	r3, [r7, #4]
    1fca:	619a      	str	r2, [r3, #24]
        pxHeapStats->xMinimumEverFreeBytesRemaining = xMinimumEverFreeBytesRemaining;
    1fcc:	4b09      	ldr	r3, [pc, #36]	@ (1ff4 <vPortGetHeapStats+0xb8>)
    1fce:	681a      	ldr	r2, [r3, #0]
    1fd0:	687b      	ldr	r3, [r7, #4]
    1fd2:	611a      	str	r2, [r3, #16]
    }
    taskEXIT_CRITICAL();
    1fd4:	f000 f904 	bl	21e0 <vPortExitCritical>
}
    1fd8:	bf00      	nop
    1fda:	3718      	adds	r7, #24
    1fdc:	46bd      	mov	sp, r7
    1fde:	bd80      	pop	{r7, pc}
    1fe0:	200010dc 	ldrdcs	r1, [r0], -ip
    1fe4:	200010e4 	andcs	r1, r0, r4, ror #1
    1fe8:	200010e8 	andcs	r1, r0, r8, ror #1
    1fec:	200010f0 	strdcs	r1, [r0], -r0
    1ff0:	200010f4 	strdcs	r1, [r0], -r4
    1ff4:	200010ec 	andcs	r1, r0, ip, ror #1

00001ff8 <vPortHeapResetState>:
 * Reset the state in this file. This state is normally initialized at start up.
 * This function must be called by the application before restarting the
 * scheduler.
 */
void vPortHeapResetState( void )
{
    1ff8:	b480      	push	{r7}
    1ffa:	af00      	add	r7, sp, #0
    pxEnd = NULL;
    1ffc:	4b09      	ldr	r3, [pc, #36]	@ (2024 <vPortHeapResetState+0x2c>)
    1ffe:	2200      	movs	r2, #0
    2000:	601a      	str	r2, [r3, #0]

    xFreeBytesRemaining = ( size_t ) 0U;
    2002:	4b09      	ldr	r3, [pc, #36]	@ (2028 <vPortHeapResetState+0x30>)
    2004:	2200      	movs	r2, #0
    2006:	601a      	str	r2, [r3, #0]
    xMinimumEverFreeBytesRemaining = ( size_t ) 0U;
    2008:	4b08      	ldr	r3, [pc, #32]	@ (202c <vPortHeapResetState+0x34>)
    200a:	2200      	movs	r2, #0
    200c:	601a      	str	r2, [r3, #0]
    xNumberOfSuccessfulAllocations = ( size_t ) 0U;
    200e:	4b08      	ldr	r3, [pc, #32]	@ (2030 <vPortHeapResetState+0x38>)
    2010:	2200      	movs	r2, #0
    2012:	601a      	str	r2, [r3, #0]
    xNumberOfSuccessfulFrees = ( size_t ) 0U;
    2014:	4b07      	ldr	r3, [pc, #28]	@ (2034 <vPortHeapResetState+0x3c>)
    2016:	2200      	movs	r2, #0
    2018:	601a      	str	r2, [r3, #0]
}
    201a:	bf00      	nop
    201c:	46bd      	mov	sp, r7
    201e:	bc80      	pop	{r7}
    2020:	4770      	bx	lr
    2022:	bf00      	nop
    2024:	200010e4 	andcs	r1, r0, r4, ror #1
    2028:	200010e8 	andcs	r1, r0, r8, ror #1
    202c:	200010ec 	andcs	r1, r0, ip, ror #1
    2030:	200010f0 	strdcs	r1, [r0], -r0
    2034:	200010f4 	strdcs	r1, [r0], -r4

00002038 <memset>:
//keeping this file to define port related undefined function

void* memset(void *dst, int value, unsigned int size){
    2038:	b480      	push	{r7}
    203a:	b087      	sub	sp, #28
    203c:	af00      	add	r7, sp, #0
    203e:	60f8      	str	r0, [r7, #12]
    2040:	60b9      	str	r1, [r7, #8]
    2042:	607a      	str	r2, [r7, #4]
    unsigned char *ptr = (unsigned char* )dst;
    2044:	68fb      	ldr	r3, [r7, #12]
    2046:	617b      	str	r3, [r7, #20]
    unsigned char byte_value = (unsigned char)value;
    2048:	68bb      	ldr	r3, [r7, #8]
    204a:	74fb      	strb	r3, [r7, #19]

    // FIll memory byte by byte
    while(size > 0) {
    204c:	e008      	b.n	2060 <memset+0x28>
        *ptr = byte_value;
    204e:	697b      	ldr	r3, [r7, #20]
    2050:	7cfa      	ldrb	r2, [r7, #19]
    2052:	701a      	strb	r2, [r3, #0]
        ptr++;
    2054:	697b      	ldr	r3, [r7, #20]
    2056:	3301      	adds	r3, #1
    2058:	617b      	str	r3, [r7, #20]
        size--;
    205a:	687b      	ldr	r3, [r7, #4]
    205c:	3b01      	subs	r3, #1
    205e:	607b      	str	r3, [r7, #4]
    while(size > 0) {
    2060:	687b      	ldr	r3, [r7, #4]
    2062:	2b00      	cmp	r3, #0
    2064:	d1f3      	bne.n	204e <memset+0x16>
    }
    return dst;
    2066:	68fb      	ldr	r3, [r7, #12]
    2068:	4618      	mov	r0, r3
    206a:	371c      	adds	r7, #28
    206c:	46bd      	mov	sp, r7
    206e:	bc80      	pop	{r7}
    2070:	4770      	bx	lr
	...

00002074 <pxPortInitialiseStack>:
 * See header file for description.
 */
StackType_t * pxPortInitialiseStack( StackType_t * pxTopOfStack,
                                     TaskFunction_t pxCode,
                                     void * pvParameters )
{
    2074:	b480      	push	{r7}
    2076:	b085      	sub	sp, #20
    2078:	af00      	add	r7, sp, #0
    207a:	60f8      	str	r0, [r7, #12]
    207c:	60b9      	str	r1, [r7, #8]
    207e:	607a      	str	r2, [r7, #4]
    /* Simulate the stack frame as it would be created by a context switch
     * interrupt. */
    pxTopOfStack--;                                                      /* Offset added to account for the way the MCU uses the stack on entry/exit of interrupts. */
    2080:	68fb      	ldr	r3, [r7, #12]
    2082:	3b04      	subs	r3, #4
    2084:	60fb      	str	r3, [r7, #12]
    *pxTopOfStack = portINITIAL_XPSR;                                    /* xPSR */
    2086:	68fb      	ldr	r3, [r7, #12]
    2088:	f04f 7280 	mov.w	r2, #16777216	@ 0x1000000
    208c:	601a      	str	r2, [r3, #0]
    pxTopOfStack--;
    208e:	68fb      	ldr	r3, [r7, #12]
    2090:	3b04      	subs	r3, #4
    2092:	60fb      	str	r3, [r7, #12]
    *pxTopOfStack = ( ( StackType_t ) pxCode ) & portSTART_ADDRESS_MASK; /* PC */
    2094:	68bb      	ldr	r3, [r7, #8]
    2096:	f023 0201 	bic.w	r2, r3, #1
    209a:	68fb      	ldr	r3, [r7, #12]
    209c:	601a      	str	r2, [r3, #0]
    pxTopOfStack--;
    209e:	68fb      	ldr	r3, [r7, #12]
    20a0:	3b04      	subs	r3, #4
    20a2:	60fb      	str	r3, [r7, #12]
    *pxTopOfStack = ( StackType_t ) portTASK_RETURN_ADDRESS;             /* LR */
    20a4:	4a08      	ldr	r2, [pc, #32]	@ (20c8 <pxPortInitialiseStack+0x54>)
    20a6:	68fb      	ldr	r3, [r7, #12]
    20a8:	601a      	str	r2, [r3, #0]
    pxTopOfStack -= 5;                                                   /* R12, R3, R2 and R1. */
    20aa:	68fb      	ldr	r3, [r7, #12]
    20ac:	3b14      	subs	r3, #20
    20ae:	60fb      	str	r3, [r7, #12]
    *pxTopOfStack = ( StackType_t ) pvParameters;                        /* R0 */
    20b0:	687a      	ldr	r2, [r7, #4]
    20b2:	68fb      	ldr	r3, [r7, #12]
    20b4:	601a      	str	r2, [r3, #0]
    pxTopOfStack -= 8;                                                   /* R11, R10, R9, R8, R7, R6, R5 and R4. */
    20b6:	68fb      	ldr	r3, [r7, #12]
    20b8:	3b20      	subs	r3, #32
    20ba:	60fb      	str	r3, [r7, #12]

    return pxTopOfStack;
    20bc:	68fb      	ldr	r3, [r7, #12]
}
    20be:	4618      	mov	r0, r3
    20c0:	3714      	adds	r7, #20
    20c2:	46bd      	mov	sp, r7
    20c4:	bc80      	pop	{r7}
    20c6:	4770      	bx	lr
    20c8:	000020cd 	andeq	r2, r0, sp, asr #1

000020cc <prvTaskExitError>:
/*-----------------------------------------------------------*/

static void prvTaskExitError( void )
{
    20cc:	b480      	push	{r7}
    20ce:	b083      	sub	sp, #12
    20d0:	af00      	add	r7, sp, #0
    volatile uint32_t ulDummy = 0UL;
    20d2:	2300      	movs	r3, #0
    20d4:	603b      	str	r3, [r7, #0]
    __asm volatile
    20d6:	f04f 0301 	mov.w	r3, #1
    20da:	f383 8811 	msr	BASEPRI, r3
    20de:	f3bf 8f6f 	isb	sy
    20e2:	f3bf 8f4f 	dsb	sy
    20e6:	607b      	str	r3, [r7, #4]
}
    20e8:	bf00      	nop
     * Artificially force an assert() to be triggered if configASSERT() is
     * defined, then stop here so application writers can catch the error. */
    configASSERT( uxCriticalNesting == ~0UL );
    portDISABLE_INTERRUPTS();

    while( ulDummy == 0 )
    20ea:	bf00      	nop
    20ec:	683b      	ldr	r3, [r7, #0]
    20ee:	2b00      	cmp	r3, #0
    20f0:	d0fc      	beq.n	20ec <prvTaskExitError+0x20>
         * about code appearing after this function is called - making ulDummy
         * volatile makes the compiler think the function could return and
         * therefore not output an 'unreachable code' warning for code that appears
         * after it. */
    }
}
    20f2:	bf00      	nop
    20f4:	bf00      	nop
    20f6:	370c      	adds	r7, #12
    20f8:	46bd      	mov	sp, r7
    20fa:	bc80      	pop	{r7}
    20fc:	4770      	bx	lr

000020fe <vPortSVCHandler>:
/*-----------------------------------------------------------*/

void vPortSVCHandler( void )
{
    __asm volatile (
    20fe:	4b08      	ldr	r3, [pc, #32]	@ (2120 <vPortSVCHandler+0x22>)
    2100:	6819      	ldr	r1, [r3, #0]
    2102:	6808      	ldr	r0, [r1, #0]
    2104:	e8b0 0ff0 	ldmia.w	r0!, {r4, r5, r6, r7, r8, r9, sl, fp}
    2108:	f380 8809 	msr	PSP, r0
    210c:	f3bf 8f6f 	isb	sy
    2110:	f04f 0000 	mov.w	r0, #0
    2114:	f380 8811 	msr	BASEPRI, r0
    2118:	f04e 0e0d 	orr.w	lr, lr, #13
    211c:	4770      	bx	lr
    211e:	00040000 	andeq	r0, r4, r0
    2122:	bf002000 	svclt	0x00002000

00002126 <prvPortStartFirstTask>:
}
/*-----------------------------------------------------------*/

static void prvPortStartFirstTask( void )
{
    __asm volatile (
    2126:	4806      	ldr	r0, [pc, #24]	@ (2140 <prvPortStartFirstTask+0x1a>)
    2128:	6800      	ldr	r0, [r0, #0]
    212a:	6800      	ldr	r0, [r0, #0]
    212c:	f380 8808 	msr	MSP, r0
    2130:	b662      	cpsie	i
    2132:	b661      	cpsie	f
    2134:	f3bf 8f4f 	dsb	sy
    2138:	f3bf 8f6f 	isb	sy
    213c:	df00      	svc	0
    213e:	bf00      	nop
    2140:	e000ed08 	and	lr, r0, r8, lsl #26
        " isb                   \n"
        " svc 0                 \n" /* System call to start first task. */
        " nop                   \n"
        " .ltorg                \n"
        );
}
    2144:	bf00      	nop

00002146 <xPortStartScheduler>:

/*
 * See header file for description.
 */
BaseType_t xPortStartScheduler( void )
{
    2146:	b580      	push	{r7, lr}
    2148:	b082      	sub	sp, #8
    214a:	af00      	add	r7, sp, #0
     * configCHECK_HANDLER_INSTALLATION to 0 in their FreeRTOSConfig.h. Direct
     * routing, which is validated here when configCHECK_HANDLER_INSTALLATION
     * is 1, should be preferred when possible. */
    #if ( configCHECK_HANDLER_INSTALLATION == 1 )
    {
        const portISR_t * const pxVectorTable = portSCB_VTOR_REG;
    214c:	4b10      	ldr	r3, [pc, #64]	@ (2190 <xPortStartScheduler+0x4a>)
    214e:	681b      	ldr	r3, [r3, #0]
    2150:	607b      	str	r3, [r7, #4]
    }
    #endif /* configASSERT_DEFINED */

    /* Make PendSV and SysTick the lowest priority interrupts, and make SVCall
     * the highest priority. */
    portNVIC_SHPR3_REG |= portNVIC_PENDSV_PRI;
    2152:	4b10      	ldr	r3, [pc, #64]	@ (2194 <xPortStartScheduler+0x4e>)
    2154:	681b      	ldr	r3, [r3, #0]
    2156:	4a0f      	ldr	r2, [pc, #60]	@ (2194 <xPortStartScheduler+0x4e>)
    2158:	f443 037f 	orr.w	r3, r3, #16711680	@ 0xff0000
    215c:	6013      	str	r3, [r2, #0]
    portNVIC_SHPR3_REG |= portNVIC_SYSTICK_PRI;
    215e:	4b0d      	ldr	r3, [pc, #52]	@ (2194 <xPortStartScheduler+0x4e>)
    2160:	681b      	ldr	r3, [r3, #0]
    2162:	4a0c      	ldr	r2, [pc, #48]	@ (2194 <xPortStartScheduler+0x4e>)
    2164:	f043 437f 	orr.w	r3, r3, #4278190080	@ 0xff000000
    2168:	6013      	str	r3, [r2, #0]
    portNVIC_SHPR2_REG = 0;
    216a:	4b0b      	ldr	r3, [pc, #44]	@ (2198 <xPortStartScheduler+0x52>)
    216c:	2200      	movs	r2, #0
    216e:	601a      	str	r2, [r3, #0]

    /* Start the timer that generates the tick ISR.  Interrupts are disabled
     * here already. */
    vPortSetupTimerInterrupt();
    2170:	f000 f896 	bl	22a0 <vPortSetupTimerInterrupt>

    /* Initialise the critical nesting count ready for the first task. */
    uxCriticalNesting = 0;
    2174:	4b09      	ldr	r3, [pc, #36]	@ (219c <xPortStartScheduler+0x56>)
    2176:	2200      	movs	r2, #0
    2178:	601a      	str	r2, [r3, #0]

    /* Start the first task. */
    prvPortStartFirstTask();
    217a:	f7ff ffd4 	bl	2126 <prvPortStartFirstTask>
     * exit error function to prevent compiler warnings about a static function
     * not being called in the case that the application writer overrides this
     * functionality by defining configTASK_RETURN_ADDRESS.  Call
     * vTaskSwitchContext() so link time optimisation does not remove the
     * symbol. */
    vTaskSwitchContext();
    217e:	f7fe fccb 	bl	b18 <vTaskSwitchContext>
    prvTaskExitError();
    2182:	f7ff ffa3 	bl	20cc <prvTaskExitError>

    /* Should not get here! */
    return 0;
    2186:	2300      	movs	r3, #0
}
    2188:	4618      	mov	r0, r3
    218a:	3708      	adds	r7, #8
    218c:	46bd      	mov	sp, r7
    218e:	bd80      	pop	{r7, pc}
    2190:	e000ed08 	and	lr, r0, r8, lsl #26
    2194:	e000ed20 	and	lr, r0, r0, lsr #26
    2198:	e000ed1c 	and	lr, r0, ip, lsl sp
    219c:	0000244c 	andeq	r2, r0, ip, asr #8

000021a0 <vPortEndScheduler>:
/*-----------------------------------------------------------*/

void vPortEndScheduler( void )
{
    21a0:	b480      	push	{r7}
    21a2:	af00      	add	r7, sp, #0
    /* Not implemented in ports where there is nothing to return to.
     * Artificially force an assert. */
    configASSERT( uxCriticalNesting == 1000UL );
}
    21a4:	bf00      	nop
    21a6:	46bd      	mov	sp, r7
    21a8:	bc80      	pop	{r7}
    21aa:	4770      	bx	lr

000021ac <vPortEnterCritical>:
/*-----------------------------------------------------------*/

void vPortEnterCritical( void )
{
    21ac:	b480      	push	{r7}
    21ae:	b083      	sub	sp, #12
    21b0:	af00      	add	r7, sp, #0
    __asm volatile
    21b2:	f04f 0301 	mov.w	r3, #1
    21b6:	f383 8811 	msr	BASEPRI, r3
    21ba:	f3bf 8f6f 	isb	sy
    21be:	f3bf 8f4f 	dsb	sy
    21c2:	607b      	str	r3, [r7, #4]
}
    21c4:	bf00      	nop
    portDISABLE_INTERRUPTS();
    uxCriticalNesting++;
    21c6:	4b05      	ldr	r3, [pc, #20]	@ (21dc <vPortEnterCritical+0x30>)
    21c8:	681b      	ldr	r3, [r3, #0]
    21ca:	3301      	adds	r3, #1
    21cc:	4a03      	ldr	r2, [pc, #12]	@ (21dc <vPortEnterCritical+0x30>)
    21ce:	6013      	str	r3, [r2, #0]
     * assert function also uses a critical section. */
    if( uxCriticalNesting == 1 )
    {
        configASSERT( ( portNVIC_INT_CTRL_REG & portVECTACTIVE_MASK ) == 0 );
    }
}
    21d0:	bf00      	nop
    21d2:	370c      	adds	r7, #12
    21d4:	46bd      	mov	sp, r7
    21d6:	bc80      	pop	{r7}
    21d8:	4770      	bx	lr
    21da:	bf00      	nop
    21dc:	0000244c 	andeq	r2, r0, ip, asr #8

000021e0 <vPortExitCritical>:
/*-----------------------------------------------------------*/

void vPortExitCritical( void )
{
    21e0:	b480      	push	{r7}
    21e2:	b083      	sub	sp, #12
    21e4:	af00      	add	r7, sp, #0
    configASSERT( uxCriticalNesting );
    uxCriticalNesting--;
    21e6:	4b0a      	ldr	r3, [pc, #40]	@ (2210 <vPortExitCritical+0x30>)
    21e8:	681b      	ldr	r3, [r3, #0]
    21ea:	3b01      	subs	r3, #1
    21ec:	4a08      	ldr	r2, [pc, #32]	@ (2210 <vPortExitCritical+0x30>)
    21ee:	6013      	str	r3, [r2, #0]

    if( uxCriticalNesting == 0 )
    21f0:	4b07      	ldr	r3, [pc, #28]	@ (2210 <vPortExitCritical+0x30>)
    21f2:	681b      	ldr	r3, [r3, #0]
    21f4:	2b00      	cmp	r3, #0
    21f6:	d105      	bne.n	2204 <vPortExitCritical+0x24>
    21f8:	2300      	movs	r3, #0
    21fa:	607b      	str	r3, [r7, #4]
    __asm volatile
    21fc:	687b      	ldr	r3, [r7, #4]
    21fe:	f383 8811 	msr	BASEPRI, r3
}
    2202:	bf00      	nop
    {
        portENABLE_INTERRUPTS();
    }
}
    2204:	bf00      	nop
    2206:	370c      	adds	r7, #12
    2208:	46bd      	mov	sp, r7
    220a:	bc80      	pop	{r7}
    220c:	4770      	bx	lr
    220e:	bf00      	nop
    2210:	0000244c 	andeq	r2, r0, ip, asr #8

00002214 <xPortPendSVHandler>:

void xPortPendSVHandler( void )
{
    /* This is a naked function. */

    __asm volatile
    2214:	f3ef 8009 	mrs	r0, PSP
    2218:	f3bf 8f6f 	isb	sy
    221c:	4b0d      	ldr	r3, [pc, #52]	@ (2254 <xPortPendSVHandler+0x40>)
    221e:	681a      	ldr	r2, [r3, #0]
    2220:	e920 0ff0 	stmdb	r0!, {r4, r5, r6, r7, r8, r9, sl, fp}
    2224:	6010      	str	r0, [r2, #0]
    2226:	e92d 4008 	stmdb	sp!, {r3, lr}
    222a:	f04f 0001 	mov.w	r0, #1
    222e:	f380 8811 	msr	BASEPRI, r0
    2232:	f7fe fc71 	bl	b18 <vTaskSwitchContext>
    2236:	f04f 0000 	mov.w	r0, #0
    223a:	f380 8811 	msr	BASEPRI, r0
    223e:	e8bd 4008 	ldmia.w	sp!, {r3, lr}
    2242:	6819      	ldr	r1, [r3, #0]
    2244:	6808      	ldr	r0, [r1, #0]
    2246:	e8b0 0ff0 	ldmia.w	r0!, {r4, r5, r6, r7, r8, r9, sl, fp}
    224a:	f380 8809 	msr	PSP, r0
    224e:	f3bf 8f6f 	isb	sy
    2252:	4770      	bx	lr
    2254:	20000004 	andcs	r0, r0, r4
        "   bx r14                              \n"
        "                                       \n"
        "   .ltorg                              \n"
        ::"i" ( configMAX_SYSCALL_INTERRUPT_PRIORITY )
    );
}
    2258:	bf00      	nop

0000225a <xPortSysTickHandler>:
/*-----------------------------------------------------------*/

void xPortSysTickHandler( void )
{
    225a:	b580      	push	{r7, lr}
    225c:	b082      	sub	sp, #8
    225e:	af00      	add	r7, sp, #0
    __asm volatile
    2260:	f04f 0301 	mov.w	r3, #1
    2264:	f383 8811 	msr	BASEPRI, r3
    2268:	f3bf 8f6f 	isb	sy
    226c:	f3bf 8f4f 	dsb	sy
    2270:	607b      	str	r3, [r7, #4]
}
    2272:	bf00      	nop
     * known. */
    portDISABLE_INTERRUPTS();
    traceISR_ENTER();
    {
        /* Increment the RTOS tick. */
        if( xTaskIncrementTick() != pdFALSE )
    2274:	f7fe fb48 	bl	908 <xTaskIncrementTick>
    2278:	4603      	mov	r3, r0
    227a:	2b00      	cmp	r3, #0
    227c:	d003      	beq.n	2286 <xPortSysTickHandler+0x2c>
        {
            traceISR_EXIT_TO_SCHEDULER();

            /* A context switch is required.  Context switching is performed in
             * the PendSV interrupt.  Pend the PendSV interrupt. */
            portNVIC_INT_CTRL_REG = portNVIC_PENDSVSET_BIT;
    227e:	4b07      	ldr	r3, [pc, #28]	@ (229c <xPortSysTickHandler+0x42>)
    2280:	f04f 5280 	mov.w	r2, #268435456	@ 0x10000000
    2284:	601a      	str	r2, [r3, #0]
    2286:	2300      	movs	r3, #0
    2288:	603b      	str	r3, [r7, #0]
    __asm volatile
    228a:	683b      	ldr	r3, [r7, #0]
    228c:	f383 8811 	msr	BASEPRI, r3
}
    2290:	bf00      	nop
        {
            traceISR_EXIT();
        }
    }
    portENABLE_INTERRUPTS();
}
    2292:	bf00      	nop
    2294:	3708      	adds	r7, #8
    2296:	46bd      	mov	sp, r7
    2298:	bd80      	pop	{r7, pc}
    229a:	bf00      	nop
    229c:	e000ed04 	and	lr, r0, r4, lsl #26

000022a0 <vPortSetupTimerInterrupt>:
/*
 * Setup the systick timer to generate the tick interrupts at the required
 * frequency.
 */
__attribute__( ( weak ) ) void vPortSetupTimerInterrupt( void )
{
    22a0:	b480      	push	{r7}
    22a2:	af00      	add	r7, sp, #0
        ulStoppedTimerCompensation = portMISSED_COUNTS_FACTOR / ( configCPU_CLOCK_HZ / configSYSTICK_CLOCK_HZ );
    }
    #endif /* configUSE_TICKLESS_IDLE */

    /* Stop and clear the SysTick. */
    portNVIC_SYSTICK_CTRL_REG = 0UL;
    22a4:	4b07      	ldr	r3, [pc, #28]	@ (22c4 <vPortSetupTimerInterrupt+0x24>)
    22a6:	2200      	movs	r2, #0
    22a8:	601a      	str	r2, [r3, #0]
    portNVIC_SYSTICK_CURRENT_VALUE_REG = 0UL;
    22aa:	4b07      	ldr	r3, [pc, #28]	@ (22c8 <vPortSetupTimerInterrupt+0x28>)
    22ac:	2200      	movs	r2, #0
    22ae:	601a      	str	r2, [r3, #0]

    /* Configure SysTick to interrupt at the requested rate. */
    portNVIC_SYSTICK_LOAD_REG = ( configSYSTICK_CLOCK_HZ / configTICK_RATE_HZ ) - 1UL;
    22b0:	4b06      	ldr	r3, [pc, #24]	@ (22cc <vPortSetupTimerInterrupt+0x2c>)
    22b2:	4a07      	ldr	r2, [pc, #28]	@ (22d0 <vPortSetupTimerInterrupt+0x30>)
    22b4:	601a      	str	r2, [r3, #0]
    portNVIC_SYSTICK_CTRL_REG = ( portNVIC_SYSTICK_CLK_BIT_CONFIG | portNVIC_SYSTICK_INT_BIT | portNVIC_SYSTICK_ENABLE_BIT );
    22b6:	4b03      	ldr	r3, [pc, #12]	@ (22c4 <vPortSetupTimerInterrupt+0x24>)
    22b8:	2207      	movs	r2, #7
    22ba:	601a      	str	r2, [r3, #0]
}
    22bc:	bf00      	nop
    22be:	46bd      	mov	sp, r7
    22c0:	bc80      	pop	{r7}
    22c2:	4770      	bx	lr
    22c4:	e000e010 	and	lr, r0, r0, lsl r0
    22c8:	e000e018 	and	lr, r0, r8, lsl r0
    22cc:	e000e014 	and	lr, r0, r4, lsl r0
    22d0:	000c34ff 	strdeq	r3, [ip], -pc	@ <UNPREDICTABLE>

000022d4 <vListInitialise>:
/*-----------------------------------------------------------
* PUBLIC LIST API documented in list.h
*----------------------------------------------------------*/

void vListInitialise( List_t * const pxList )
{
    22d4:	b480      	push	{r7}
    22d6:	b083      	sub	sp, #12
    22d8:	af00      	add	r7, sp, #0
    22da:	6078      	str	r0, [r7, #4]
    traceENTER_vListInitialise( pxList );

    /* The list structure contains a list item which is used to mark the
     * end of the list.  To initialise the list the list end is inserted
     * as the only list entry. */
    pxList->pxIndex = ( ListItem_t * ) &( pxList->xListEnd );
    22dc:	687b      	ldr	r3, [r7, #4]
    22de:	f103 0208 	add.w	r2, r3, #8
    22e2:	687b      	ldr	r3, [r7, #4]
    22e4:	605a      	str	r2, [r3, #4]

    listSET_FIRST_LIST_ITEM_INTEGRITY_CHECK_VALUE( &( pxList->xListEnd ) );

    /* The list end value is the highest possible value in the list to
     * ensure it remains at the end of the list. */
    pxList->xListEnd.xItemValue = portMAX_DELAY;
    22e6:	687b      	ldr	r3, [r7, #4]
    22e8:	f04f 32ff 	mov.w	r2, #4294967295	@ 0xffffffff
    22ec:	609a      	str	r2, [r3, #8]

    /* The list end next and previous pointers point to itself so we know
     * when the list is empty. */
    pxList->xListEnd.pxNext = ( ListItem_t * ) &( pxList->xListEnd );
    22ee:	687b      	ldr	r3, [r7, #4]
    22f0:	f103 0208 	add.w	r2, r3, #8
    22f4:	687b      	ldr	r3, [r7, #4]
    22f6:	60da      	str	r2, [r3, #12]
    pxList->xListEnd.pxPrevious = ( ListItem_t * ) &( pxList->xListEnd );
    22f8:	687b      	ldr	r3, [r7, #4]
    22fa:	f103 0208 	add.w	r2, r3, #8
    22fe:	687b      	ldr	r3, [r7, #4]
    2300:	611a      	str	r2, [r3, #16]
        pxList->xListEnd.pxContainer = NULL;
        listSET_SECOND_LIST_ITEM_INTEGRITY_CHECK_VALUE( &( pxList->xListEnd ) );
    }
    #endif

    pxList->uxNumberOfItems = ( UBaseType_t ) 0U;
    2302:	687b      	ldr	r3, [r7, #4]
    2304:	2200      	movs	r2, #0
    2306:	601a      	str	r2, [r3, #0]
     * configUSE_LIST_DATA_INTEGRITY_CHECK_BYTES is set to 1. */
    listSET_LIST_INTEGRITY_CHECK_1_VALUE( pxList );
    listSET_LIST_INTEGRITY_CHECK_2_VALUE( pxList );

    traceRETURN_vListInitialise();
}
    2308:	bf00      	nop
    230a:	370c      	adds	r7, #12
    230c:	46bd      	mov	sp, r7
    230e:	bc80      	pop	{r7}
    2310:	4770      	bx	lr

00002312 <vListInitialiseItem>:
/*-----------------------------------------------------------*/

void vListInitialiseItem( ListItem_t * const pxItem )
{
    2312:	b480      	push	{r7}
    2314:	b083      	sub	sp, #12
    2316:	af00      	add	r7, sp, #0
    2318:	6078      	str	r0, [r7, #4]
    traceENTER_vListInitialiseItem( pxItem );

    /* Make sure the list item is not recorded as being on a list. */
    pxItem->pxContainer = NULL;
    231a:	687b      	ldr	r3, [r7, #4]
    231c:	2200      	movs	r2, #0
    231e:	611a      	str	r2, [r3, #16]
     * configUSE_LIST_DATA_INTEGRITY_CHECK_BYTES is set to 1. */
    listSET_FIRST_LIST_ITEM_INTEGRITY_CHECK_VALUE( pxItem );
    listSET_SECOND_LIST_ITEM_INTEGRITY_CHECK_VALUE( pxItem );

    traceRETURN_vListInitialiseItem();
}
    2320:	bf00      	nop
    2322:	370c      	adds	r7, #12
    2324:	46bd      	mov	sp, r7
    2326:	bc80      	pop	{r7}
    2328:	4770      	bx	lr

0000232a <vListInsertEnd>:
/*-----------------------------------------------------------*/

void vListInsertEnd( List_t * const pxList,
                     ListItem_t * const pxNewListItem )
{
    232a:	b480      	push	{r7}
    232c:	b085      	sub	sp, #20
    232e:	af00      	add	r7, sp, #0
    2330:	6078      	str	r0, [r7, #4]
    2332:	6039      	str	r1, [r7, #0]
    ListItem_t * const pxIndex = pxList->pxIndex;
    2334:	687b      	ldr	r3, [r7, #4]
    2336:	685b      	ldr	r3, [r3, #4]
    2338:	60fb      	str	r3, [r7, #12]
    listTEST_LIST_ITEM_INTEGRITY( pxNewListItem );

    /* Insert a new list item into pxList, but rather than sort the list,
     * makes the new list item the last item to be removed by a call to
     * listGET_OWNER_OF_NEXT_ENTRY(). */
    pxNewListItem->pxNext = pxIndex;
    233a:	683b      	ldr	r3, [r7, #0]
    233c:	68fa      	ldr	r2, [r7, #12]
    233e:	605a      	str	r2, [r3, #4]
    pxNewListItem->pxPrevious = pxIndex->pxPrevious;
    2340:	68fb      	ldr	r3, [r7, #12]
    2342:	689a      	ldr	r2, [r3, #8]
    2344:	683b      	ldr	r3, [r7, #0]
    2346:	609a      	str	r2, [r3, #8]

    /* Only used during decision coverage testing. */
    mtCOVERAGE_TEST_DELAY();

    pxIndex->pxPrevious->pxNext = pxNewListItem;
    2348:	68fb      	ldr	r3, [r7, #12]
    234a:	689b      	ldr	r3, [r3, #8]
    234c:	683a      	ldr	r2, [r7, #0]
    234e:	605a      	str	r2, [r3, #4]
    pxIndex->pxPrevious = pxNewListItem;
    2350:	68fb      	ldr	r3, [r7, #12]
    2352:	683a      	ldr	r2, [r7, #0]
    2354:	609a      	str	r2, [r3, #8]

    /* Remember which list the item is in. */
    pxNewListItem->pxContainer = pxList;
    2356:	683b      	ldr	r3, [r7, #0]
    2358:	687a      	ldr	r2, [r7, #4]
    235a:	611a      	str	r2, [r3, #16]

    ( pxList->uxNumberOfItems ) = ( UBaseType_t ) ( pxList->uxNumberOfItems + 1U );
    235c:	687b      	ldr	r3, [r7, #4]
    235e:	681b      	ldr	r3, [r3, #0]
    2360:	1c5a      	adds	r2, r3, #1
    2362:	687b      	ldr	r3, [r7, #4]
    2364:	601a      	str	r2, [r3, #0]

    traceRETURN_vListInsertEnd();
}
    2366:	bf00      	nop
    2368:	3714      	adds	r7, #20
    236a:	46bd      	mov	sp, r7
    236c:	bc80      	pop	{r7}
    236e:	4770      	bx	lr

00002370 <vListInsert>:
/*-----------------------------------------------------------*/

void vListInsert( List_t * const pxList,
                  ListItem_t * const pxNewListItem )
{
    2370:	b480      	push	{r7}
    2372:	b085      	sub	sp, #20
    2374:	af00      	add	r7, sp, #0
    2376:	6078      	str	r0, [r7, #4]
    2378:	6039      	str	r1, [r7, #0]
    ListItem_t * pxIterator;
    const TickType_t xValueOfInsertion = pxNewListItem->xItemValue;
    237a:	683b      	ldr	r3, [r7, #0]
    237c:	681b      	ldr	r3, [r3, #0]
    237e:	60bb      	str	r3, [r7, #8]
     * new list item should be placed after it.  This ensures that TCBs which are
     * stored in ready lists (all of which have the same xItemValue value) get a
     * share of the CPU.  However, if the xItemValue is the same as the back marker
     * the iteration loop below will not end.  Therefore the value is checked
     * first, and the algorithm slightly modified if necessary. */
    if( xValueOfInsertion == portMAX_DELAY )
    2380:	68bb      	ldr	r3, [r7, #8]
    2382:	f1b3 3fff 	cmp.w	r3, #4294967295	@ 0xffffffff
    2386:	d103      	bne.n	2390 <vListInsert+0x20>
    {
        pxIterator = pxList->xListEnd.pxPrevious;
    2388:	687b      	ldr	r3, [r7, #4]
    238a:	691b      	ldr	r3, [r3, #16]
    238c:	60fb      	str	r3, [r7, #12]
    238e:	e00c      	b.n	23aa <vListInsert+0x3a>
        *   5) If the FreeRTOS port supports interrupt nesting then ensure that
        *      the priority of the tick interrupt is at or below
        *      configMAX_SYSCALL_INTERRUPT_PRIORITY.
        **********************************************************************/

        for( pxIterator = ( ListItem_t * ) &( pxList->xListEnd ); pxIterator->pxNext->xItemValue <= xValueOfInsertion; pxIterator = pxIterator->pxNext )
    2390:	687b      	ldr	r3, [r7, #4]
    2392:	3308      	adds	r3, #8
    2394:	60fb      	str	r3, [r7, #12]
    2396:	e002      	b.n	239e <vListInsert+0x2e>
    2398:	68fb      	ldr	r3, [r7, #12]
    239a:	685b      	ldr	r3, [r3, #4]
    239c:	60fb      	str	r3, [r7, #12]
    239e:	68fb      	ldr	r3, [r7, #12]
    23a0:	685b      	ldr	r3, [r3, #4]
    23a2:	681b      	ldr	r3, [r3, #0]
    23a4:	68ba      	ldr	r2, [r7, #8]
    23a6:	429a      	cmp	r2, r3
    23a8:	d2f6      	bcs.n	2398 <vListInsert+0x28>
             * IF YOU FIND YOUR CODE STUCK HERE, SEE THE NOTE JUST ABOVE.
             */
        }
    }

    pxNewListItem->pxNext = pxIterator->pxNext;
    23aa:	68fb      	ldr	r3, [r7, #12]
    23ac:	685a      	ldr	r2, [r3, #4]
    23ae:	683b      	ldr	r3, [r7, #0]
    23b0:	605a      	str	r2, [r3, #4]
    pxNewListItem->pxNext->pxPrevious = pxNewListItem;
    23b2:	683b      	ldr	r3, [r7, #0]
    23b4:	685b      	ldr	r3, [r3, #4]
    23b6:	683a      	ldr	r2, [r7, #0]
    23b8:	609a      	str	r2, [r3, #8]
    pxNewListItem->pxPrevious = pxIterator;
    23ba:	683b      	ldr	r3, [r7, #0]
    23bc:	68fa      	ldr	r2, [r7, #12]
    23be:	609a      	str	r2, [r3, #8]
    pxIterator->pxNext = pxNewListItem;
    23c0:	68fb      	ldr	r3, [r7, #12]
    23c2:	683a      	ldr	r2, [r7, #0]
    23c4:	605a      	str	r2, [r3, #4]

    /* Remember which list the item is in.  This allows fast removal of the
     * item later. */
    pxNewListItem->pxContainer = pxList;
    23c6:	683b      	ldr	r3, [r7, #0]
    23c8:	687a      	ldr	r2, [r7, #4]
    23ca:	611a      	str	r2, [r3, #16]

    ( pxList->uxNumberOfItems ) = ( UBaseType_t ) ( pxList->uxNumberOfItems + 1U );
    23cc:	687b      	ldr	r3, [r7, #4]
    23ce:	681b      	ldr	r3, [r3, #0]
    23d0:	1c5a      	adds	r2, r3, #1
    23d2:	687b      	ldr	r3, [r7, #4]
    23d4:	601a      	str	r2, [r3, #0]

    traceRETURN_vListInsert();
}
    23d6:	bf00      	nop
    23d8:	3714      	adds	r7, #20
    23da:	46bd      	mov	sp, r7
    23dc:	bc80      	pop	{r7}
    23de:	4770      	bx	lr

000023e0 <uxListRemove>:
/*-----------------------------------------------------------*/


UBaseType_t uxListRemove( ListItem_t * const pxItemToRemove )
{
    23e0:	b480      	push	{r7}
    23e2:	b085      	sub	sp, #20
    23e4:	af00      	add	r7, sp, #0
    23e6:	6078      	str	r0, [r7, #4]
    /* The list item knows which list it is in.  Obtain the list from the list
     * item. */
    List_t * const pxList = pxItemToRemove->pxContainer;
    23e8:	687b      	ldr	r3, [r7, #4]
    23ea:	691b      	ldr	r3, [r3, #16]
    23ec:	60fb      	str	r3, [r7, #12]

    traceENTER_uxListRemove( pxItemToRemove );

    pxItemToRemove->pxNext->pxPrevious = pxItemToRemove->pxPrevious;
    23ee:	687b      	ldr	r3, [r7, #4]
    23f0:	685b      	ldr	r3, [r3, #4]
    23f2:	687a      	ldr	r2, [r7, #4]
    23f4:	6892      	ldr	r2, [r2, #8]
    23f6:	609a      	str	r2, [r3, #8]
    pxItemToRemove->pxPrevious->pxNext = pxItemToRemove->pxNext;
    23f8:	687b      	ldr	r3, [r7, #4]
    23fa:	689b      	ldr	r3, [r3, #8]
    23fc:	687a      	ldr	r2, [r7, #4]
    23fe:	6852      	ldr	r2, [r2, #4]
    2400:	605a      	str	r2, [r3, #4]

    /* Only used during decision coverage testing. */
    mtCOVERAGE_TEST_DELAY();

    /* Make sure the index is left pointing to a valid item. */
    if( pxList->pxIndex == pxItemToRemove )
    2402:	68fb      	ldr	r3, [r7, #12]
    2404:	685b      	ldr	r3, [r3, #4]
    2406:	687a      	ldr	r2, [r7, #4]
    2408:	429a      	cmp	r2, r3
    240a:	d103      	bne.n	2414 <uxListRemove+0x34>
    {
        pxList->pxIndex = pxItemToRemove->pxPrevious;
    240c:	687b      	ldr	r3, [r7, #4]
    240e:	689a      	ldr	r2, [r3, #8]
    2410:	68fb      	ldr	r3, [r7, #12]
    2412:	605a      	str	r2, [r3, #4]
    else
    {
        mtCOVERAGE_TEST_MARKER();
    }

    pxItemToRemove->pxContainer = NULL;
    2414:	687b      	ldr	r3, [r7, #4]
    2416:	2200      	movs	r2, #0
    2418:	611a      	str	r2, [r3, #16]
    ( pxList->uxNumberOfItems ) = ( UBaseType_t ) ( pxList->uxNumberOfItems - 1U );
    241a:	68fb      	ldr	r3, [r7, #12]
    241c:	681b      	ldr	r3, [r3, #0]
    241e:	1e5a      	subs	r2, r3, #1
    2420:	68fb      	ldr	r3, [r7, #12]
    2422:	601a      	str	r2, [r3, #0]

    traceRETURN_uxListRemove( pxList->uxNumberOfItems );

    return pxList->uxNumberOfItems;
    2424:	68fb      	ldr	r3, [r7, #12]
    2426:	681b      	ldr	r3, [r3, #0]
}
    2428:	4618      	mov	r0, r3
    242a:	3714      	adds	r7, #20
    242c:	46bd      	mov	sp, r7
    242e:	bc80      	pop	{r7}
    2430:	4770      	bx	lr
    2432:	0000      	movs	r0, r0
    2434:	00003154 	andeq	r3, r0, r4, asr r1
    2438:	00003254 	andeq	r3, r0, r4, asr r2

0000243c <uxTopUsedPriority>:
    243c:	00000004 	andeq	r0, r0, r4
    2440:	454c4449 	strbmi	r4, [ip, #-1097]	@ 0xfffffbb7
    2444:	00000000 	andeq	r0, r0, r0

00002448 <xHeapStructSize>:
    2448:	00000008 	andeq	r0, r0, r8

Disassembly of section .data:

0000244c <uxCriticalNesting>:
    244c:	aaaaaaaa 	bge	feaacefc <__StackTop+0xdeaaaefc>

Disassembly of section .ARM.attributes:

00000000 <.ARM.attributes>:
   0:	00002e41 	andeq	r2, r0, r1, asr #28
   4:	61656100 	cmnvs	r5, r0, lsl #2
   8:	01006962 	tsteq	r0, r2, ror #18
   c:	00000024 	andeq	r0, r0, r4, lsr #32
  10:	726f4305 	rsbvc	r4, pc, #335544320	@ 0x14000000
  14:	2d786574 	cfldr64cs	mvdx6, [r8, #-464]!	@ 0xfffffe30
  18:	0600334d 	streq	r3, [r0], -sp, asr #6
  1c:	094d070a 	stmdbeq	sp, {r1, r3, r8, r9, sl}^
  20:	14041202 	strne	r1, [r4], #-514	@ 0xfffffdfe
  24:	17011501 	strne	r1, [r1, -r1, lsl #10]
  28:	1a011803 	bne	4603c <_edata+0x43bec>
  2c:	Address 0x2c is out of bounds.


Disassembly of section .comment:

00000000 <.comment>:
   0:	3a434347 	bcc	10d0d24 <_edata+0x10ce8d4>
   4:	35312820 	ldrcc	r2, [r1, #-2080]!	@ 0xfffff7e0
   8:	2e33313a 	mrccs	1, 1, r3, cr3, cr10, {1}
   c:	65722e32 	ldrbvs	r2, [r2, #-3634]!	@ 0xfffff1ce
  10:	322d316c 	eorcc	r3, sp, #108, 2
  14:	33312029 	teqcc	r1, #41	@ 0x29
  18:	312e322e 			@ <UNDEFINED> instruction: 0x312e322e
  1c:	32303220 	eorscc	r3, r0, #32, 4
  20:	30303133 	eorscc	r3, r0, r3, lsr r1
  24:	Address 0x24 is out of bounds.


Disassembly of section .debug_line:

00000000 <.debug_line>:
       0:	00000030 	andeq	r0, r0, r0, lsr r0
       4:	001a0002 	andseq	r0, sl, r2
       8:	01020000 	mrseq	r0, (UNDEF: 2)
       c:	000a0efb 	strdeq	r0, [sl], -fp
      10:	01010101 	tsteq	r1, r1, lsl #2
      14:	01000000 	mrseq	r0, (UNDEF: 0)
      18:	6f6f6200 	svcvs	0x006f6200
      1c:	00532e74 	subseq	r2, r3, r4, ror lr
      20:	00000000 	andeq	r0, r0, r0
      24:	98020500 	stmdals	r2, {r8, sl}
      28:	03000001 	movweq	r0, #1
      2c:	021e010e 	andseq	r0, lr, #-2147483645	@ 0x80000003
      30:	01010001 	tsteq	r1, r1
      34:	00000125 	andeq	r0, r0, r5, lsr #2
      38:	00be0003 	adcseq	r0, lr, r3
      3c:	01020000 	mrseq	r0, (UNDEF: 2)
      40:	000d0efb 	strdeq	r0, [sp], -fp
      44:	01010101 	tsteq	r1, r1, lsl #2
      48:	01000000 	mrseq	r0, (UNDEF: 0)
      4c:	2f010000 	svccs	0x00010000
      50:	2f727375 	svccs	0x00727375
      54:	2f62696c 	svccs	0x0062696c
      58:	2f636367 	svccs	0x00636367
      5c:	2d6d7261 	sfmcs	f7, 2, [sp, #-388]!	@ 0xfffffe7c
      60:	656e6f6e 	strbvs	r6, [lr, #-3950]!	@ 0xfffff092
      64:	6261652d 	rsbvs	r6, r1, #188743680	@ 0xb400000
      68:	33312f69 	teqcc	r1, #420	@ 0x1a4
      6c:	312e322e 			@ <UNDEFINED> instruction: 0x312e322e
      70:	636e692f 	cmnvs	lr, #770048	@ 0xbc000
      74:	6564756c 	strbvs	r7, [r4, #-1388]!	@ 0xfffffa94
      78:	2f2e2e00 	svccs	0x002e2e00
      7c:	65657246 	strbvs	r7, [r5, #-582]!	@ 0xfffffdba
      80:	534f5452 	movtpl	r5, #62546	@ 0xf452
      84:	72654b2d 	rsbvc	r4, r5, #46080	@ 0xb400
      88:	2f6c656e 	svccs	0x006c656e
      8c:	6c636e69 	stclvs	14, cr6, [r3], #-420	@ 0xfffffe5c
      90:	00656475 	rsbeq	r6, r5, r5, ror r4
      94:	462f2e2e 	strtmi	r2, [pc], -lr, lsr #28
      98:	52656572 	rsbpl	r6, r5, #478150656	@ 0x1c800000
      9c:	2d534f54 	ldclcs	15, cr4, [r3, #-336]	@ 0xfffffeb0
      a0:	6e72654b 	cdpvs	5, 7, cr6, cr2, cr11, {2}
      a4:	702f6c65 	eorvc	r6, pc, r5, ror #24
      a8:	6174726f 	cmnvs	r4, pc, ror #4
      ac:	2f656c62 	svccs	0x00656c62
      b0:	2f434347 	svccs	0x00434347
      b4:	5f4d5241 	svcpl	0x004d5241
      b8:	00334d43 	eorseq	r4, r3, r3, asr #26
      bc:	61747300 	cmnvs	r4, r0, lsl #6
      c0:	632e7472 			@ <UNDEFINED> instruction: 0x632e7472
      c4:	00000000 	andeq	r0, r0, r0
      c8:	69647473 	stmdbvs	r4!, {r0, r1, r4, r5, r6, sl, ip, sp, lr}^
      cc:	682e746e 	stmdavs	lr!, {r1, r2, r3, r5, r6, sl, ip, sp, lr}
      d0:	00000100 	andeq	r0, r0, r0, lsl #2
      d4:	6a6f7270 	bvs	1bdca9c <_edata+0x1bda64c>
      d8:	73666564 	cmnvc	r6, #100, 10	@ 0x19000000
      dc:	0200682e 	andeq	r6, r0, #3014656	@ 0x2e0000
      e0:	6f700000 	svcvs	0x00700000
      e4:	616d7472 	smcvs	55106	@ 0xd742
      e8:	2e6f7263 	cdpcs	2, 6, cr7, cr15, cr3, {3}
      ec:	00030068 	andeq	r0, r3, r8, rrx
      f0:	73617400 	cmnvc	r1, #0, 8
      f4:	00682e6b 	rsbeq	r2, r8, fp, ror #28
      f8:	00000002 	andeq	r0, r0, r2
      fc:	05002705 	streq	r2, [r0, #-1797]	@ 0xfffff8fb
     100:	00019c02 	andeq	r9, r1, r2, lsl #24
     104:	010d0300 	mrseq	r0, SP_mon
     108:	054b1205 	strbeq	r1, [fp, #-517]	@ 0xfffffdfb
     10c:	0402000a 	streq	r0, [r2], #-10
     110:	3c063001 	stccc	0, cr3, [r6], {1}
     114:	23062705 	movwcs	r2, #26373	@ 0x6705
     118:	054b1205 	strbeq	r1, [fp, #-517]	@ 0xfffffdfb
     11c:	0402000a 	streq	r0, [r2], #-10
     120:	3c063001 	stccc	0, cr3, [r6], {1}
     124:	03060d05 	movweq	r0, #27909	@ 0x6d05
     128:	0f05200a 	svceq	0x0005200a
     12c:	0a052f40 	beq	14be34 <_edata+0x1499e4>
     130:	2116052f 	tstcs	r6, pc, lsr #10
     134:	053c0d05 	ldreq	r0, [ip, #-3333]!	@ 0xfffff2fb
     138:	10053c12 	andne	r3, r5, r2, lsl ip
     13c:	1f0f0520 	svcne	0x000f0520
     140:	054f0905 	strbeq	r0, [pc, #-2309]	@ fffff843 <__StackTop+0xdfffd843>
     144:	0d052f0a 	stceq	15, cr2, [r5, #-40]	@ 0xffffffd8
     148:	3c100521 	cfldr32cc	mvfx0, [r0], {33}	@ 0x21
     14c:	4f2d0f05 	svcmi	0x002d0f05
     150:	bc0505bb 	cfstr32lt	mvfx0, [r5], {187}	@ 0xbb
     154:	2101052f 	tstcs	r1, pc, lsr #10
     158:	01001502 	tsteq	r0, r2, lsl #10
     15c:	000a1e01 	andeq	r1, sl, r1, lsl #28
     160:	15000300 	strne	r0, [r0, #-768]	@ 0xfffffd00
     164:	02000001 	andeq	r0, r0, #1
     168:	0d0efb01 	vstreq	d15, [lr, #-4]
     16c:	01010100 	mrseq	r0, (UNDEF: 17)
     170:	00000001 	andeq	r0, r0, r1
     174:	01000001 	tsteq	r0, r1
     178:	462f2e2e 	strtmi	r2, [pc], -lr, lsr #28
     17c:	52656572 	rsbpl	r6, r5, #478150656	@ 0x1c800000
     180:	2d534f54 	ldclcs	15, cr4, [r3, #-336]	@ 0xfffffeb0
     184:	6e72654b 	cdpvs	5, 7, cr6, cr2, cr11, {2}
     188:	2e006c65 	cdpcs	12, 0, cr6, cr0, cr5, {3}
     18c:	72462f2e 	subvc	r2, r6, #46, 30	@ 0xb8
     190:	54526565 	ldrbpl	r6, [r2], #-1381	@ 0xfffffa9b
     194:	4b2d534f 	blmi	b54ed8 <_edata+0xb52a88>
    b start
     198:	656e7265 	strbvs	r7, [lr, #-613]!	@ 0xfffffd9b
static void vTask1(void *pvParameters){
     19c:	6f702f6c 	svcvs	0x00702f6c
     1a0:	62617472 	rsbvs	r7, r1, #1912602624	@ 0x72000000
    volatile int a = 0;
     1a4:	472f656c 	strmi	r6, [pc, -ip, ror #10]!
        a++;
     1a8:	412f4343 			@ <UNDEFINED> instruction: 0x412f4343
     1ac:	435f4d52 	cmpmi	pc, #5248	@ 0x1480
static void vTask2(void *pvParameters){
     1b0:	2f00334d 	svccs	0x0000334d
     1b4:	2f727375 	svccs	0x00727375
    volatile int b = 0;
     1b8:	2f62696c 	svccs	0x0062696c
        b++;
     1bc:	2f636367 	svccs	0x00636367
     1c0:	2d6d7261 	sfmcs	f7, 2, [sp, #-388]!	@ 0xfffffe7c
void start(){//<<=== 1. jumping here from boot.S reset_handler: is fine but jumping to function sachin() gives HardFault crash.
     1c4:	656e6f6e 	strbvs	r6, [lr, #-3950]!	@ 0xfffff092
     1c8:	6261652d 	rsbvs	r6, r1, #188743680	@ 0xb400000
    uint32_t *src = &_sidata; // source(flash)
     1cc:	33312f69 	teqcc	r1, #420	@ 0x1a4
    uint32_t *dst = &_sdata; // Destination RAM
     1d0:	312e322e 			@ <UNDEFINED> instruction: 0x312e322e
        *dst++ = *src++; // copy word and increment pointer
     1d4:	636e692f 	cmnvs	lr, #770048	@ 0xbc000
     1d8:	6564756c 	strbvs	r7, [r4, #-1388]!	@ 0xfffffa94
     1dc:	2f2e2e00 	svccs	0x002e2e00
     1e0:	65657246 	strbvs	r7, [r5, #-582]!	@ 0xfffffdba
    while(dst < &_edata){
     1e4:	534f5452 	movtpl	r5, #62546	@ 0xf452
     1e8:	72654b2d 	rsbvc	r4, r5, #46080	@ 0xb400
    dst = &_sbss;
     1ec:	2f6c656e 	svccs	0x006c656e
    while(dst < &_ebss){
     1f0:	6c636e69 	stclvs	14, cr6, [r3], #-420	@ 0xfffffe5c
        *dst++ = 0; // zero word and increment pointer
     1f4:	00656475 	rsbeq	r6, r5, r5, ror r4
     1f8:	7273752f 	rsbsvc	r7, r3, #197132288	@ 0xbc00000
    while(dst < &_ebss){
     1fc:	636e692f 	cmnvs	lr, #770048	@ 0xbc000
     200:	6564756c 	strbvs	r7, [r4, #-1388]!	@ 0xfffffa94
    xReturn = xTaskCreate(vTask1, "T1",configMINIMAL_STACK_SIZE,NULL,1,NULL);//
     204:	77656e2f 	strbvc	r6, [r5, -pc, lsr #28]!
     208:	0062696c 	rsbeq	r6, r2, ip, ror #18
     20c:	73617400 	cmnvc	r1, #0, 8
     210:	632e736b 			@ <UNDEFINED> instruction: 0x632e736b
     214:	00000100 	andeq	r0, r0, r0, lsl #2
     218:	74726f70 	ldrbtvc	r6, [r2], #-3952	@ 0xfffff090
    xReturn = xTaskCreate(vTask2, "T2",configMINIMAL_STACK_SIZE,NULL,1,NULL);//getting xReturn as -1 debug and foumd memory allocation was failing , few global variables were not holding changed values from heap_4.c files ..... => because .data section is nod defined in .ld script, only .text section is there.
     21c:	7263616d 	rsbvc	r6, r3, #1073741851	@ 0x4000001b
     220:	00682e6f 	rsbeq	r2, r8, pc, ror #28
     224:	73000002 	movwvc	r0, #2
     228:	65646474 	strbvs	r6, [r4, #-1140]!	@ 0xfffffb8c
     22c:	00682e66 	rsbeq	r2, r8, r6, ror #28
     230:	73000003 	movwvc	r0, #3
    vTaskStartScheduler();// if only this call then cpu lockup nothing to execute so does hardfault.
     234:	6e696474 	mcrvs	4, 3, r6, cr9, cr4, {3}
    return;
     238:	00682e74 	rsbeq	r2, r8, r4, ror lr
}
     23c:	70000003 	andvc	r0, r0, r3
     240:	646a6f72 	strbtvs	r6, [sl], #-3954	@ 0xfffff08e
     244:	2e736665 	cdpcs	6, 7, cr6, cr3, cr5, {3}
     248:	00040068 	andeq	r0, r4, r8, rrx
     24c:	73696c00 	cmnvc	r9, #0, 24
     250:	00682e74 	rsbeq	r2, r8, r4, ror lr
     254:	74000004 	strvc	r0, [r0], #-4
     258:	2e6b7361 	cdpcs	3, 6, cr7, cr11, cr1, {3}
     25c:	00040068 	andeq	r0, r4, r8, rrx
     260:	726f7000 	rsbvc	r7, pc, #0
    {
     264:	6c626174 	stfvse	f6, [r2], #-464	@ 0xfffffe30
     268:	00682e65 	rsbeq	r2, r8, r5, ror #28
     26c:	73000004 	movwvc	r0, #4
     270:	6e697274 	mcrvs	2, 3, r7, cr9, cr4, {3}
            pxStack = pvPortMallocStack( ( ( ( size_t ) uxStackDepth ) * sizeof( StackType_t ) ) );
     274:	00682e67 	rsbeq	r2, r8, r7, ror #28
     278:	00000005 	andeq	r0, r0, r5
     27c:	05000505 	streq	r0, [r0, #-1285]	@ 0xfffffafb
            if( pxStack != NULL )
     280:	00026402 	andeq	r6, r2, r2, lsl #8
                pxNewTCB = ( TCB_t * ) pvPortMalloc( sizeof( TCB_t ) );
     284:	0cef0300 	stcleq	3, cr0, [pc]	@ 28c <prvCreateTask+0x28>
     288:	03170501 	tsteq	r7, #4194304	@ 0x400000
                if( pxNewTCB != NULL )
     28c:	0f05742c 	svceq	0x0005742c
     290:	42280568 	eormi	r0, r8, #104, 10	@ 0x1a000000
                    ( void ) memset( ( void * ) pxNewTCB, 0x00, sizeof( TCB_t ) );
     294:	054c1305 	strbeq	r1, [ip, #-773]	@ 0xfffffcfb
     298:	27053e1e 	smladcs	r5, lr, lr, r3
                    pxNewTCB->pxStack = pxStack;
     29c:	5015055b 	andspl	r0, r5, fp, asr r5
     2a0:	054f1a05 	strbeq	r1, [pc, #-2565]	@ fffff8a3 <__StackTop+0xdfffd8a3>
                    vPortFreeStack( pxStack );
     2a4:	0d05330b 	stceq	3, cr3, [r5, #-44]	@ 0xffffffd4
     2a8:	053c0a03 	ldreq	r0, [ip, #-2563]!	@ 0xfffff5fd
                pxNewTCB = NULL;
     2ac:	0505d910 	streq	sp, [r5, #-2320]	@ 0xfffff6f0
        if( pxNewTCB != NULL )
     2b0:	4a090321 	bmi	240f3c <_edata+0x23eaec>
     2b4:	057a1405 	ldrbeq	r1, [sl, #-1029]!	@ 0xfffffbfb
            prvInitialiseNewTask( pxTaskCode, pcName, uxStackDepth, pvParameters, uxPriority, pxCreatedTask, pxNewTCB, NULL );
     2b8:	0d05ae0b 	stceq	14, cr10, [r5, #-44]	@ 0xffffffd4
     2bc:	053c0903 	ldreq	r0, [ip, #-2307]!	@ 0xfffff6fd
     2c0:	05403d15 	strbeq	r3, [r0, #-3349]	@ 0xfffff2eb
     2c4:	05054110 	streq	r4, [r5, #-272]	@ 0xfffffef0
     2c8:	03010521 	movweq	r0, #5409	@ 0x1521
     2cc:	23054a31 	movwcs	r4, #23089	@ 0x5a31
     2d0:	05742103 	ldrbeq	r2, [r4, #-259]!	@ 0xfffffefd
    }
     2d4:	16052e2c 	strne	r2, [r5], -ip, lsr #28
     2d8:	2f2e0558 	svccs	0x002e0558
    {
     2dc:	05205705 	streq	r5, [r0, #-1797]!	@ 0xfffff8fb
     2e0:	07052e16 	smladeq	r5, r6, lr, r2
     2e4:	05201c03 	streq	r1, [r0, #-3075]!	@ 0xfffff3fd
     2e8:	09053e10 	stmdbeq	r5, {r4, r9, sl, fp, ip, sp}
        pxNewTCB = prvCreateTask( pxTaskCode, pcName, uxStackDepth, pvParameters, uxPriority, pxCreatedTask );
     2ec:	222f052e 	eorcs	r0, pc, #192937984	@ 0xb800000
     2f0:	054a2705 	strbeq	r2, [sl, #-1797]	@ 0xfffff8fb
     2f4:	0f056b17 	svceq	0x00056b17
     2f8:	0053054a 	subseq	r0, r3, sl, asr #10
     2fc:	03020402 	movweq	r0, #9218	@ 0x2402
        if( pxNewTCB != NULL )
     300:	27052e79 	smlsdxcs	r5, r9, lr, r2
     304:	01040200 	mrseq	r0, R12_usr
            prvAddNewTaskToReadyList( pxNewTCB );
     308:	0311053c 	tsteq	r1, #60, 10	@ 0xf000000
            xReturn = pdPASS;
     30c:	3e054a09 	vmlacc.f32	s8, s10, s18
     310:	05200a03 	streq	r0, [r0, #-2563]!	@ 0xfffff5fd
            xReturn = errCOULD_NOT_ALLOCATE_REQUIRED_MEMORY;
     314:	4a0a0307 	bmi	280f38 <_edata+0x27eae8>
        return xReturn;
     318:	053e1405 	ldreq	r1, [lr, #-1029]!	@ 0xfffffbfb
    }
     31c:	0505351a 	streq	r3, [r5, #-1306]	@ 0xfffffae6
     320:	3f5c5943 	svccc	0x005c5943
{
     324:	03260559 			@ <UNDEFINED> instruction: 0x03260559
     328:	053c00c2 	ldreq	r0, [ip, #-194]!	@ 0xffffff3e
     32c:	04020024 	streq	r0, [r2], #-36	@ 0xffffffdc
        pxTopOfStack = &( pxNewTCB->pxStack[ uxStackDepth - ( configSTACK_DEPTH_TYPE ) 1 ] );
     330:	07056601 	streq	r6, [r5, -r1, lsl #12]
     334:	052e1303 	streq	r1, [lr, #-771]!	@ 0xfffffcfd
     338:	01054018 	tsteq	r5, r8, lsl r0
     33c:	50050542 	andpl	r0, r5, r2, asr #10
     340:	054d0905 	strbeq	r0, [sp, #-2309]	@ 0xfffff6fb
        pxTopOfStack = ( StackType_t * ) ( ( ( portPOINTER_SIZE_TYPE ) pxTopOfStack ) & ( ~( ( portPOINTER_SIZE_TYPE ) portBYTE_ALIGNMENT_MASK ) ) );
     344:	24053026 	strcs	r3, [r5], #-38	@ 0xffffffda
     348:	301e053c 	andscc	r0, lr, ip, lsr r5
    if( pcName != NULL )
     34c:	052e0f05 	streq	r0, [lr, #-3845]!	@ 0xfffff0fb
        for( x = ( UBaseType_t ) 0; x < ( UBaseType_t ) configMAX_TASK_NAME_LEN; x++ )
     350:	2c05321e 	sfmcs	f3, 4, [r5], {30}
     354:	2e13053e 	mrccs	5, 0, r0, cr3, cr14, {1}
            pxNewTCB->pcTaskName[ x ] = pcName[ x ];
     358:	05331505 	ldreq	r1, [r3, #-1285]!	@ 0xfffffafb
     35c:	3c0c0327 	stccc	3, cr0, [ip], {39}	@ 0x27
     360:	052e1305 	streq	r1, [lr, #-773]!	@ 0xfffffcfb
     364:	3d053025 	stccc	0, cr3, [r5, #-148]	@ 0xffffff6c
     368:	2e17053c 	mrccs	5, 0, r0, cr7, cr12, {1}
            if( pcName[ x ] == ( char ) 0x00 )
     36c:	05302605 	ldreq	r2, [r0, #-1541]!	@ 0xfffff9fb
     370:	3c0d0319 	stccc	3, cr0, [sp], {25}
     374:	0a030d05 	beq	c3790 <_edata+0xc1340>
        for( x = ( UBaseType_t ) 0; x < ( UBaseType_t ) configMAX_TASK_NAME_LEN; x++ )
     378:	02090558 	andeq	r0, r9, #88, 10	@ 0x16000000
     37c:	1f051641 	svcne	0x00051641
     380:	2e0b0530 	cfmv64hrcs	mvdx11, r0
                break;
     384:	00320d05 	eorseq	r0, r2, r5, lsl #26
        pxNewTCB->pcTaskName[ configMAX_TASK_NAME_LEN - 1U ] = '\0';
     388:	06010402 	streq	r0, [r1], -r2, lsl #8
     38c:	06050574 			@ <UNDEFINED> instruction: 0x06050574
    if( uxPriority >= ( UBaseType_t ) configMAX_PRIORITIES )
     390:	03010588 	movweq	r0, #5512	@ 0x1588
        uxPriority = ( UBaseType_t ) configMAX_PRIORITIES - ( UBaseType_t ) 1U;
     394:	20080b92 	mulcs	r8, r2, fp
    pxNewTCB->uxPriority = uxPriority;
     398:	053d1005 	ldreq	r1, [sp, #-5]!
     39c:	1405300a 	strne	r3, [r5], #-10
    vListInitialiseItem( &( pxNewTCB->xStateListItem ) );
     3a0:	341d0567 	ldrcc	r0, [sp], #-1383	@ 0xfffffa99
     3a4:	052e0505 	streq	r0, [lr, #-1285]!	@ 0xfffffafb
    vListInitialiseItem( &( pxNewTCB->xEventListItem ) );
     3a8:	2905253f 	stmdbcs	r5, {r0, r1, r2, r3, r4, r5, r8, sl, sp}
     3ac:	5a16054a 	bpl	5818dc <_edata+0x57f48c>
     3b0:	054a0b05 	strbeq	r0, [sl, #-2821]	@ 0xfffff4fb
    listSET_LIST_ITEM_OWNER( &( pxNewTCB->xStateListItem ), pxNewTCB );
     3b4:	02000187 	andeq	r0, r0, #-1073741791	@ 0xc0000021
    listSET_LIST_ITEM_VALUE( &( pxNewTCB->xEventListItem ), ( TickType_t ) configMAX_PRIORITIES - ( TickType_t ) uxPriority );
     3b8:	79030204 	stmdbvc	r3, {r2, r9}
     3bc:	0036052e 	eorseq	r0, r6, lr, lsr #10
     3c0:	3c010402 	cfstrscc	mvf0, [r1], {2}
    listSET_LIST_ITEM_OWNER( &( pxNewTCB->xEventListItem ), pxNewTCB );
     3c4:	09030d05 	stmdbeq	r3, {r0, r2, r8, sl, fp}
            pxNewTCB->pxTopOfStack = pxPortInitialiseStack( pxTopOfStack, pxTaskCode, pvParameters );
     3c8:	0325054a 			@ <UNDEFINED> instruction: 0x0325054a
     3cc:	12052009 	andne	r2, r5, #9
     3d0:	2e05055b 	cfrshl32cs	mvfx5, mvfx11, r0
     3d4:	05242005 	streq	r2, [r4, #-5]!
    if( pxCreatedTask != NULL )
     3d8:	00ce0317 	sbceq	r0, lr, r7, lsl r3
     3dc:	030b052e 	movweq	r0, #46382	@ 0xb52e
        *pxCreatedTask = ( TaskHandle_t ) pxNewTCB;
     3e0:	5d05e40a 	cfstrspl	mvf14, [r5, #-40]	@ 0xffffffd8
}
     3e4:	02040200 	andeq	r0, r4, #0, 4
     3e8:	3c7fa403 	cfldrdcc	mvd10, [pc], #-12	@ 3e4 <prvInitialiseNewTask+0xc2>
    {
     3ec:	02002e05 	andeq	r2, r0, #5, 28	@ 0x50
     3f0:	053c0104 	ldreq	r0, [ip, #-260]!	@ 0xfffffefc
        taskENTER_CRITICAL();
     3f4:	00de030d 	sbcseq	r0, lr, sp, lsl #6
            uxCurrentNumberOfTasks = ( UBaseType_t ) ( uxCurrentNumberOfTasks + 1U );
     3f8:	030c054a 	movweq	r0, #50506	@ 0xc54a
     3fc:	01052012 	tsteq	r5, r2, lsl r0
     400:	0f05a321 	svceq	0x0005a321
            if( pxCurrentTCB == NULL )
     404:	053c0d03 	ldreq	r0, [ip, #-3331]!	@ 0xfffff2fd
     408:	3c0f0307 	stccc	3, cr0, [pc], {7}
                pxCurrentTCB = pxNewTCB;
     40c:	05050204 	streq	r0, [r5, #-516]	@ 0xfffffdfc
                if( uxCurrentNumberOfTasks == ( UBaseType_t ) 1 )
     410:	3c64d203 	sfmcc	f5, 3, [r4], #-12
     414:	04980105 	ldreq	r0, [r8], #261	@ 0x105
                    prvInitialiseTaskLists();
     418:	031e0501 	tsteq	lr, #4194304	@ 0x400000
     41c:	05201bc0 	streq	r1, [r0, #-3008]!	@ 0xfffff440
                if( xSchedulerRunning == pdFALSE )
     420:	14054b1b 	strne	r4, [r5], #-2843	@ 0xfffff4e5
     424:	0312053d 	tsteq	r2, #255852544	@ 0xf400000
                    if( pxCurrentTCB->uxPriority <= pxNewTCB->uxPriority )
     428:	05053c13 	streq	r3, [r5, #-3091]	@ 0xfffff3ed
     42c:	052e1703 	streq	r1, [lr, #-1795]!	@ 0xfffff8fd
     430:	04cc3101 	strbeq	r3, [ip], #257	@ 0x101
                        pxCurrentTCB = pxNewTCB;
     434:	03050502 	movweq	r0, #21762	@ 0x5502
     438:	053c6485 	ldreq	r6, [ip, #-1157]!	@ 0xfffffb7b
            uxTaskNumber++;
     43c:	01049801 	tsteq	r4, r1, lsl #16
     440:	93031705 	movwls	r1, #14085	@ 0x3705
            prvAddTaskToReadyList( pxNewTCB );
     444:	0505201c 	streq	r2, [r5, #-28]	@ 0xffffffe4
     448:	31010540 	tstcc	r1, r0, asr #10
     44c:	0320056a 			@ <UNDEFINED> instruction: 0x0320056a
     450:	1e052e25 	cdpne	14, 0, cr2, cr5, cr5, {1}
     454:	3209053c 	andcc	r0, r9, #60, 10	@ 0xf000000
     458:	c0030105 	andgt	r0, r3, r5, lsl #2
     45c:	c5030100 	strgt	r0, [r3, #-256]	@ 0xffffff00
     460:	0d057400 	cfstrseq	mvf7, [r5, #-0]
     464:	2f10053d 	svccs	0x0010053d
     468:	0d030905 	vstreq.16	s0, [r3, #-10]	@ <UNPREDICTABLE>
     46c:	301e052e 	andscc	r0, lr, lr, lsr #10
     470:	05342405 	ldreq	r2, [r4, #-1029]!	@ 0xfffffbfb
     474:	26053c22 	strcs	r3, [r5], -r2, lsr #24
     478:	2e0f0531 	mcrcs	5, 0, r0, cr15, cr1, {1}
     47c:	053e2c05 	ldreq	r2, [lr, #-3077]!	@ 0xfffff3fb
     480:	1a052e13 	bne	14bcd4 <_edata+0x149884>
     484:	25210540 	strcs	r0, [r1, #-1344]!	@ 0xfffffac0
     488:	052e1f05 	streq	r1, [lr, #-3845]!	@ 0xfffff0fb
     48c:	02002f19 	andeq	r2, r0, #25, 30	@ 0x64
     490:	08060104 	stmdaeq	r6, {r2, r8}
     494:	0402002e 	streq	r0, [r2], #-46	@ 0xffffffd2
     498:	83064a03 	movwhi	r4, #27139	@ 0x6a03
     49c:	04020013 	streq	r0, [r2], #-19	@ 0xffffffed
     4a0:	2e080601 	cfmadd32cs	mvax0, mvfx0, mvfx8, mvfx1
     4a4:	03040200 	movweq	r0, #16896	@ 0x4200
     4a8:	0583064a 	streq	r0, [r3, #1610]	@ 0x64a
     4ac:	18410226 	stmdane	r1, {r1, r2, r5, r9}^
     4b0:	052e4105 	streq	r4, [lr, #-261]!	@ 0xfffffefb
     4b4:	3b053c1f 	blcc	14f538 <_edata+0x14d0e8>
     4b8:	031c0530 	tsteq	ip, #48, 10	@ 0xc000000
     4bc:	4405586f 	strmi	r5, [r5], #-2159	@ 0xfffff791
     4c0:	0317052e 	tsteq	r7, #192937984	@ 0xb800000
     4c4:	19053c21 	stmdbne	r5, {r0, r5, sl, fp, ip, sp}
        taskEXIT_CRITICAL();
     4c8:	03240544 			@ <UNDEFINED> instruction: 0x03240544
        if( xSchedulerRunning != pdFALSE )
     4cc:	1b052e0d 	blne	14bd08 <_edata+0x1498b8>
     4d0:	4025053e 	eormi	r0, r5, lr, lsr r5
            taskYIELD_ANY_CORE_IF_USING_PREEMPTION( pxNewTCB );
     4d4:	02002305 	andeq	r2, r0, #335544320	@ 0x14000000
     4d8:	053c0104 	ldreq	r0, [ip, #-260]!	@ 0xfffffefc
     4dc:	2105323f 	tstcs	r5, pc, lsr r2
     4e0:	3d34055f 	cfldr32cc	mvfx0, [r4, #-380]!	@ 0xfffffe84
     4e4:	053e2a05 	ldreq	r2, [lr, #-2565]!	@ 0xfffff5fb
     4e8:	17054427 	strne	r4, [r5, -r7, lsr #8]
     4ec:	322d054a 	eorcc	r0, sp, #310378496	@ 0x12800000
    }
     4f0:	05341d05 	ldreq	r1, [r4, #-3333]!	@ 0xfffff2fb
     4f4:	9e0f0309 	cdpls	3, 0, cr0, cr15, cr9, {0}
     4f8:	05330c05 	ldreq	r0, [r3, #-3077]!	@ 0xfffff3fb
     4fc:	5c082101 	stfpls	f2, [r8], {1}
     500:	05441005 	strbeq	r1, [r4, #-5]
     504:	0105420c 	tsteq	r5, ip, lsl #4
     508:	1c057821 	stcne	8, cr7, [r5], {33}	@ 0x21
     50c:	053c1603 	ldreq	r1, [ip, #-1539]!	@ 0xfffff9fd
     510:	0c053011 	stceq	0, cr3, [r5], {17}
{
     514:	21010542 	tstcs	r1, r2, asr #10
     518:	350c0578 	strcc	r0, [ip, #-1400]	@ 0xfffffa88
    BaseType_t xReturn = pdPASS;
     51c:	6a2f0105 	bvs	bc0938 <_edata+0xbbe4e8>
    char cIdleName[ configMAX_TASK_NAME_LEN ] = { 0 };
     520:	00510d05 	subseq	r0, r1, r5, lsl #26
     524:	06010402 	streq	r0, [r1], -r2, lsl #8
     528:	0402003c 	streq	r0, [r2], #-60	@ 0xffffffc4
    TaskFunction_t pxIdleTaskFunction = NULL;
     52c:	0b053c02 	bleq	14f53c <_edata+0x14d0ec>
    for( xIdleTaskNameIndex = 0U; xIdleTaskNameIndex < ( configMAX_TASK_NAME_LEN - taskRESERVED_TASK_NAME_LENGTH ); xIdleTaskNameIndex++ )
     530:	04040200 	streq	r0, [r4], #-512	@ 0xfffffe00
        cIdleName[ xIdleTaskNameIndex ] = configIDLE_TASK_NAME[ xIdleTaskNameIndex ];
     534:	0c052006 	stceq	0, cr2, [r5], {6}
     538:	2f010525 	svccs	0x00010525
     53c:	8202ea03 	andhi	lr, r2, #12288	@ 0x3000
     540:	0b030505 	bleq	c195c <_edata+0xbf50c>
     544:	1605314a 	strne	r3, [r5], -sl, asr #2
        if( cIdleName[ xIdleTaskNameIndex ] == ( char ) 0x00 )
     548:	68050530 	stmdavs	r5, {r4, r5, r8, sl}
     54c:	052f1605 	streq	r1, [pc, #-1541]!	@ ffffff4f <__StackTop+0xdfffdf4f>
     550:	0105400c 	tsteq	r5, ip
    for( xIdleTaskNameIndex = 0U; xIdleTaskNameIndex < ( configMAX_TASK_NAME_LEN - taskRESERVED_TASK_NAME_LENGTH ); xIdleTaskNameIndex++ )
     554:	00e40321 	rsceq	r0, r4, r1, lsr #6
     558:	3f100566 	svccc	0x00100566
     55c:	0d031e05 	stceq	14, cr1, [r3, #-20]	@ 0xffffffec
            break;
     560:	2e07052e 	cfsh32cs	mvfx0, mvfx7, #30
    cIdleName[ xIdleTaskNameIndex ] = '\0';
     564:	05403705 	strbeq	r3, [r0, #-1797]	@ 0xfffff8fb
     568:	14052e1a 	strne	r2, [r5], #-3610	@ 0xfffff1e6
    for( xCoreID = ( BaseType_t ) 0; xCoreID < ( BaseType_t ) configNUMBER_OF_CORES; xCoreID++ )
     56c:	3e0b0532 	mcrcc	5, 0, r0, cr11, cr2, {1}
     570:	053e0d05 	ldreq	r0, [lr, #-3333]!	@ 0xfffff2fb
            pxIdleTaskFunction = &prvIdleTask;
     574:	080b031d 	stmdaeq	fp, {r0, r2, r3, r4, r8, r9}
            xReturn = xTaskCreate( pxIdleTaskFunction,
     578:	2e0b0512 	mcrcs	5, 0, r0, cr11, cr2, {0}
     57c:	054e1505 	strbeq	r1, [lr, #-1285]	@ 0xfffffafb
     580:	2a053c13 	bcs	14f5d4 <_edata+0x14d184>
     584:	4b150535 	blmi	541a60 <_edata+0x53f610>
     588:	0b031d05 	bleq	c79a4 <_edata+0xc5554>
     58c:	3c1b0520 	cfldr32cc	mvfx0, [fp], {32}
     590:	052f2005 	streq	r2, [pc, #-5]!	@ 593 <prvCreateIdleTasks+0x7f>
        if( xReturn != pdPASS )
     594:	2e053e17 	mcrcs	14, 0, r3, cr5, cr7, {0}
     598:	3d190551 	cfldr32cc	mvfx0, [r9, #-324]	@ 0xfffffebc
    for( xCoreID = ( BaseType_t ) 0; xCoreID < ( BaseType_t ) configNUMBER_OF_CORES; xCoreID++ )
     59c:	00281505 	eoreq	r1, r8, r5, lsl #10
     5a0:	06010402 	streq	r0, [r1], -r2, lsl #8
     5a4:	02002e08 	andeq	r2, r0, #8, 28	@ 0x80
            break;
     5a8:	054a0304 	strbeq	r0, [sl, #-772]	@ 0xfffffcfc
}
     5ac:	05860619 	streq	r0, [r6, #1561]	@ 0x619
     5b0:	19052e17 	stmdbne	r5, {r0, r1, r2, r4, r9, sl, fp, sp}
     5b4:	04020030 	streq	r0, [r2], #-48	@ 0xffffffd0
     5b8:	2e080601 	cfmadd32cs	mvax0, mvfx0, mvfx8, mvfx1
     5bc:	03040200 	movweq	r0, #16896	@ 0x4200
{
     5c0:	0615054a 	ldreq	r0, [r5], -sl, asr #10
     5c4:	05820903 	streq	r0, [r2, #2307]	@ 0x903
    xReturn = prvCreateIdleTasks();
     5c8:	02100326 	andseq	r0, r0, #-1744830464	@ 0x98000000
    if( xReturn == pdPASS )
     5cc:	41050141 	tstmi	r5, r1, asr #2
     5d0:	3c1f052e 	cfldr32cc	mvfx0, [pc], {46}	@ 0x2e
    __asm volatile
     5d4:	053e3105 	ldreq	r3, [lr, #-261]!	@ 0xfffffefb
     5d8:	7fb90313 	svcvc	0x00b90313
     5dc:	0315052e 	tsteq	r5, #192937984	@ 0xb800000
     5e0:	052000e0 	streq	r0, [r0, #-224]!	@ 0xffffff20
}
     5e4:	25059e13 	strcs	r9, [r5, #-3603]	@ 0xfffff1ed
        xNextTaskUnblockTime = portMAX_DELAY;
     5e8:	03230530 			@ <UNDEFINED> instruction: 0x03230530
     5ec:	13052e2f 	movwne	r2, #24111	@ 0x5e2f
        xSchedulerRunning = pdTRUE;
     5f0:	3025052e 	eorcc	r0, r5, lr, lsr #10
        xTickCount = ( TickType_t ) configINITIAL_TICK_COUNT;
     5f4:	2a031605 	bcs	c5e10 <_edata+0xc39c0>
     5f8:	030c053c 	movweq	r0, #50492	@ 0xc53c
        ( void ) xPortStartScheduler();
     5fc:	0105580d 	tsteq	r5, sp, lsl #16
    ( void ) uxTopUsedPriority;
     600:	03050521 	movweq	r0, #21793	@ 0x5521
}
     604:	9008018a 	andls	r0, r8, sl, lsl #3
     608:	053f2205 	ldreq	r2, [pc, #-517]!	@ 40b <prvAddNewTaskToReadyList+0x1f>
     60c:	21052e0b 	tstcs	r5, fp, lsl #28
     610:	03050532 	movweq	r0, #21810	@ 0x5532
     614:	053c00cb 	ldreq	r0, [ip, #-203]!	@ 0xffffff35
     618:	7fb90321 	svcvc	0x00b90321
{
     61c:	030d0520 	movweq	r0, #54560	@ 0xd520
     620:	02043c2e 	andeq	r3, r4, #11776	@ 0x2e00
    __asm volatile
     624:	e9030905 	stmdb	r3, {r0, r2, r8, fp}
     628:	10053c58 	andne	r3, r5, r8, asr ip
     62c:	0501044c 	streq	r0, [r1, #-1100]	@ 0xfffffbb4
     630:	0402000d 	streq	r0, [r2], #-13
}
     634:	27950301 	ldrcs	r0, [r5, r1, lsl #6]
    xSchedulerRunning = pdFALSE;
     638:	04020020 	streq	r0, [r2], #-32	@ 0xffffffe0
    vPortEndScheduler();
     63c:	90080603 	andls	r0, r8, r3, lsl #12
}
     640:	05055e06 	streq	r5, [r5, #-3590]	@ 0xfffff1fa
     644:	052e1303 	streq	r1, [lr, #-771]!	@ 0xfffffcfd
     648:	00ea0301 	rsceq	r0, sl, r1, lsl #6
{
     64c:	032e05e4 			@ <UNDEFINED> instruction: 0x032e05e4
        uxSchedulerSuspended = ( UBaseType_t ) ( uxSchedulerSuspended + 1U );
     650:	05055813 	streq	r5, [r5, #-2067]	@ 0xfffff7ed
     654:	01055a2e 	tsteq	r5, lr, lsr #20
     658:	05056c4d 	streq	r6, [r5, #-3149]	@ 0xfffff3b3
}
     65c:	6d660c03 	stclvs	12, cr0, [r6, #-12]!
     660:	0105f408 	tsteq	r5, r8, lsl #8	@ <UNPREDICTABLE>
     664:	742b034d 	strtvc	r0, [fp], #-845	@ 0xfffffcb3
{
     668:	16031605 	strne	r1, [r3], -r5, lsl #12
     66c:	2e14054a 	cfmac32cs	mvfx0, mvfx4, mvfx10
    TCB_t * pxTCB = NULL;
     670:	00300505 	eorseq	r0, r0, r5, lsl #10
    BaseType_t xAlreadyYielded = pdFALSE;
     674:	06010402 	streq	r0, [r1], -r2, lsl #8
        taskENTER_CRITICAL();
     678:	02002e08 	andeq	r2, r0, #8, 28	@ 0x80
            const BaseType_t xCoreID = ( BaseType_t ) portGET_CORE_ID();
     67c:	054a0304 	strbeq	r0, [sl, #-772]	@ 0xfffffcfc
            uxSchedulerSuspended = ( UBaseType_t ) ( uxSchedulerSuspended - 1U );
     680:	0584061e 	streq	r0, [r4, #1566]	@ 0x61e
     684:	09052e07 	stmdbeq	r5, {r0, r1, r2, r9, sl, fp, sp}
            if( uxSchedulerSuspended == ( UBaseType_t ) 0U )
     688:	04020030 	streq	r0, [r2], #-48	@ 0xffffffd0
     68c:	2e080601 	cfmadd32cs	mvax0, mvfx0, mvfx8, mvfx1
     690:	03040200 	movweq	r0, #16896	@ 0x4200
                if( uxCurrentNumberOfTasks > ( UBaseType_t ) 0U )
     694:	0383064a 	orreq	r0, r3, #77594624	@ 0x4a00000
     698:	01420214 	cmpeq	r2, r4, lsl r2
                    while( listLIST_IS_EMPTY( &xPendingReadyList ) == pdFALSE )
     69c:	b1081b05 	tstlt	r8, r5, lsl #22
                        pxTCB = listGET_OWNER_OF_HEAD_ENTRY( ( &xPendingReadyList ) );
     6a0:	052e3605 	streq	r3, [lr, #-1541]!	@ 0xfffff9fb
     6a4:	15053c0b 	strne	r3, [r5, #-3083]	@ 0xfffff3f5
                        listREMOVE_ITEM( &( pxTCB->xEventListItem ) );
     6a8:	32210533 	eorcc	r0, r1, #213909504	@ 0xcc00000
     6ac:	054e1505 	strbeq	r1, [lr, #-1285]	@ 0xfffffafb
     6b0:	2e15030c 	cdpcs	3, 1, cr0, cr5, cr12, {0}
     6b4:	08210105 	stmdaeq	r1!, {r0, r2, r8}
     6b8:	03050525 	movweq	r0, #21797	@ 0x5525
     6bc:	1405580a 	strne	r5, [r5], #-2058	@ 0xfffff7f6
     6c0:	3e05055f 	cfrshl32cc	mvfx5, mvfx15, r0
     6c4:	01040200 	mrseq	r0, R12_usr
     6c8:	00200806 	eoreq	r0, r0, r6, lsl #16
     6cc:	4a030402 	bmi	c16dc <_edata+0xbf28c>
     6d0:	82130306 	andshi	r0, r3, #402653184	@ 0x18000000
     6d4:	01040200 	mrseq	r0, R12_usr
     6d8:	002e0806 	eoreq	r0, lr, r6, lsl #16
     6dc:	4a030402 	bmi	c16ec <_edata+0xbf29c>
     6e0:	1b058306 	blne	161300 <_edata+0x15eeb0>
                        listREMOVE_ITEM( &( pxTCB->xStateListItem ) );
     6e4:	05164102 	ldreq	r4, [r6, #-258]	@ 0xfffffefe
     6e8:	0b052e36 	bleq	14bfc8 <_edata+0x149b78>
     6ec:	3421053c 	strtcc	r0, [r1], #-1340	@ 0xfffffac4
     6f0:	12030105 	andne	r0, r3, #1073741825	@ 0x40000001
     6f4:	0505cc3c 	streq	ip, [r5, #-3132]	@ 0xfffff3c4
     6f8:	3023054e 	eorcc	r0, r3, lr, asr #10
     6fc:	054b2405 	strbeq	r2, [fp, #-1029]	@ 0xfffffbfb
     700:	01054c05 	tsteq	r5, r5, lsl #24
     704:	1f058631 	svcne	0x00058631
     708:	4b20054e 	blmi	801c48 <_edata+0x7ff7f8>
     70c:	a34d0105 	movtge	r0, #53509	@ 0xd105
     710:	05600505 	strbeq	r0, [r0, #-1285]!	@ 0xfffffafb
     714:	4405311a 	strmi	r3, [r5], #-282	@ 0xfffffee6
     718:	2e1a053d 	mrccs	5, 0, r0, cr10, cr13, {1}
     71c:	18032b05 	stmdane	r3, {r0, r2, r8, r9, fp, sp}
     720:	2e1f053c 	mrccs	5, 0, r0, cr15, cr12, {1}
                        prvAddTaskToReadyList( pxTCB );
     724:	052e0b05 	streq	r0, [lr, #-2821]!	@ 0xfffff4fb
     728:	0402005f 	streq	r0, [r2], #-95	@ 0xffffffa1
     72c:	3e052e01 	cdpcc	14, 0, cr2, cr5, cr1, {0}
     730:	01040200 	mrseq	r0, R12_usr
     734:	4315052e 	tstmi	r5, #192937984	@ 0xb800000
     738:	052f1c05 	streq	r1, [pc, #-3077]!	@ fffffb3b <__StackTop+0xdfffdb3b>
     73c:	10054c21 	andne	r4, r5, r1, lsr #24
     740:	3f0d052e 	svccc	0x000d052e
     744:	052e1c05 	streq	r1, [lr, #-3077]!	@ 0xfffff3fb
     748:	15054b0d 	strne	r4, [r5, #-2829]	@ 0xfffff4f3
     74c:	401c053d 	andsmi	r0, ip, sp, lsr r5
     750:	053d1505 	ldreq	r1, [sp, #-1285]!	@ 0xfffffafb
     754:	0c053105 	stfeqs	f3, [r5], {5}
     758:	21010532 	tstcs	r1, r2, lsr r5
     75c:	32290594 	eorcc	r0, r9, #148, 10	@ 0x25000000
     760:	033f0105 	teqeq	pc, #1073741825	@ 0x40000001
     764:	0574018a 	ldrbeq	r0, [r4, #-394]!	@ 0xfffffe76
     768:	4a180309 	bmi	601394 <_edata+0x5fef44>
     76c:	18031105 	stmdane	r3, {r0, r2, r8, ip}
     770:	2e0f052e 	cfsh32cs	mvfx0, mvfx15, #30
     774:	05301105 	ldreq	r1, [r0, #-261]!	@ 0xfffffefb
     778:	82660309 	rsbhi	r0, r6, #603979776	@ 0x24000000
     77c:	f2030105 	vrhadd.s8	d0, d3, d5
     780:	15056601 	strne	r6, [r5, #-1537]	@ 0xfffff9ff
     784:	2e05053f 	mcrcs	5, 0, r0, cr5, cr15, {1}
     788:	05220905 	streq	r0, [r2, #-2309]!	@ 0xfffff6fb
     78c:	04020068 	streq	r0, [r2], #-104	@ 0xffffff98
     790:	36059c03 	strcc	r9, [r5], -r3, lsl #24
     794:	01040200 	mrseq	r0, R12_usr
     798:	4105053c 	tstmi	r5, ip, lsr r5
     79c:	17053d3d 	smladxne	r5, sp, sp, r3
     7a0:	053c1003 	ldreq	r1, [ip, #-3]!
                            if( pxTCB->uxPriority > pxCurrentTCB->uxPriority )
     7a4:	01053d1f 	tsteq	r5, pc, lsl sp
     7a8:	0316083d 	tsteq	r6, #3997696	@ 0x3d0000
     7ac:	032e00c8 			@ <UNDEFINED> instruction: 0x032e00c8
     7b0:	054a02d8 	strbeq	r0, [sl, #-728]	@ 0xfffffd28
                                xYieldPendings[ xCoreID ] = pdTRUE;
     7b4:	07052f09 	streq	r2, [r5, -r9, lsl #30]
     7b8:	341e053c 	ldrcc	r0, [lr], #-1340	@ 0xfffffac4
                    while( listLIST_IS_EMPTY( &xPendingReadyList ) == pdFALSE )
     7bc:	0a030105 	beq	c0bd8 <_edata+0xbe788>
     7c0:	1e20054a 	cfsh64ne	mvdx0, mvdx0, #42
     7c4:	054a1e05 	strbeq	r1, [sl, #-3589]	@ 0xfffff1fb
                    if( pxTCB != NULL )
     7c8:	09053001 	stmdbeq	r5, {r0, ip, sp}
                        prvResetNextTaskUnblockTime();
     7cc:	44150589 	ldrmi	r0, [r5], #-1417	@ 0xfffffa77
                        TickType_t xPendedCounts = xPendedTicks; /* Non-volatile copy. */
     7d0:	05401405 	strbeq	r1, [r0, #-1029]	@ 0xfffffbfb
     7d4:	05052109 	streq	r2, [r5, #-265]	@ 0xfffffef7
                        if( xPendedCounts > ( TickType_t ) 0U )
     7d8:	05741603 	ldrbeq	r1, [r4, #-1539]!	@ 0xfffff9fd
                                if( xTaskIncrementTick() != pdFALSE )
     7dc:	0b054b16 	bleq	15343c <_edata+0x150fec>
     7e0:	002a0532 	eoreq	r0, sl, r2, lsr r5
     7e4:	3c010402 	cfstrscc	mvf0, [r1], {2}
                                    xYieldPendings[ xCoreID ] = pdTRUE;
     7e8:	053f1905 	ldreq	r1, [pc, #-2309]!	@ fffffeeb <__StackTop+0xdfffdeeb>
     7ec:	05054410 	streq	r4, [r5, #-1040]	@ 0xfffffbf0
                                --xPendedCounts;
     7f0:	03010521 	movweq	r0, #5409	@ 0x1521
     7f4:	0582089f 	streq	r0, [r2, #2207]	@ 0x89f
                            } while( xPendedCounts > ( TickType_t ) 0U );
     7f8:	0e054110 	flteqs	f5, r4
                            xPendedTicks = 0;
     7fc:	3205052e 	andcc	r0, r5, #192937984	@ 0xb800000
     800:	05860c05 	streq	r0, [r6, #3077]	@ 0xc05
                    if( xYieldPendings[ xCoreID ] != pdFALSE )
     804:	05052101 	streq	r2, [r5, #-257]	@ 0xfffffeff
     808:	05822103 	streq	r2, [r2, #259]	@ 0x103
     80c:	1b056825 	blne	15a8a8 <_edata+0x158458>
                            xAlreadyYielded = pdTRUE;
     810:	2e2c0536 	mcrcs	5, 1, r0, cr12, cr6, {1}
                            taskYIELD_TASK_CORE_IF_USING_PREEMPTION( pxCurrentTCB );
     814:	05580b05 	ldrbeq	r0, [r8, #-2821]	@ 0xfffff4fb
     818:	04020048 	streq	r0, [r2], #-72	@ 0xffffffb8
     81c:	0d052e01 	stceq	14, cr2, [r5, #-4]
     820:	34110540 	ldrcc	r0, [r1], #-1344	@ 0xfffffac0
     824:	05312505 	ldreq	r2, [r1, #-1285]!	@ 0xfffffafb
        taskEXIT_CRITICAL();
     828:	17052e36 	smladxne	r5, r6, lr, r2
}
     82c:	31250558 			@ <UNDEFINED> instruction: 0x31250558
     830:	052e4805 	streq	r4, [lr, #-2053]!	@ 0xfffff7fb
     834:	11055b26 	tstne	r5, r6, lsr #22
     838:	33130535 	tstcc	r3, #222298112	@ 0xd400000
     83c:	053f1505 	ldreq	r1, [pc, #-1285]!	@ 33f <prvInitialiseNewTask+0x1d>
     840:	0f05511f 	svceq	0x0005511f
     844:	002c053f 	eoreq	r0, ip, pc, lsr r5
     848:	3c010402 	cfstrscc	mvf0, [r1], {2}
     84c:	053e1105 	ldreq	r1, [lr, #-261]!	@ 0xfffffefb
     850:	24058a09 	strcs	r8, [r5], #-2569	@ 0xfffff5f7
     854:	2e160531 	mrccs	5, 0, r0, cr6, cr1, {1}
{
     858:	05680f05 	strbeq	r0, [r8, #-3845]!	@ 0xfffff0fb
     85c:	21053e13 	tstcs	r5, r3, lsl lr
        xTicks = xTickCount;
     860:	2e46053e 	mcrcs	5, 2, r0, cr6, cr14, {1}
    return xTicks;
     864:	05782105 	ldrbeq	r2, [r8, #-261]!	@ 0xfffffefb
}
     868:	46052e51 			@ <UNDEFINED> instruction: 0x46052e51
     86c:	6019052e 	andsvs	r0, r9, lr, lsr #10
     870:	052e3c05 	streq	r3, [lr, #-3077]!	@ 0xfffff3fb
{
     874:	10055a09 	andne	r5, r5, r9, lsl #20
     878:	21050532 	tstcs	r5, r2, lsr r5
    uxSavedInterruptStatus = portTICK_TYPE_SET_INTERRUPT_MASK_FROM_ISR();
     87c:	05820c03 	streq	r0, [r2, #3075]	@ 0xc03
        xReturn = xTickCount;
     880:	1b05752e 	blne	15dd40 <_edata+0x15b8f0>
    return xReturn;
     884:	2e2a0536 	mcrcs	5, 1, r0, cr10, cr6, {1}
}
     888:	05580b05 	ldrbeq	r0, [r8, #-2821]	@ 0xfffff4fb
     88c:	0402005d 	streq	r0, [r2], #-93	@ 0xffffffa3
     890:	0d052e01 	stceq	14, cr2, [r5, #-4]
{
     894:	33110540 	tstcc	r1, #64, 10	@ 0x10000000
    return uxCurrentNumberOfTasks;
     898:	05312505 	ldreq	r2, [r1, #-1285]!	@ 0xfffffafb
}
     89c:	17052e34 	smladxne	r5, r4, lr, r2
     8a0:	33250558 			@ <UNDEFINED> instruction: 0x33250558
     8a4:	052e3605 	streq	r3, [lr, #-1541]!	@ 0xfffff9fb
{
     8a8:	4a05584d 	bmi	1569e4 <_edata+0x154594>
     8ac:	6925052e 	stmdbvs	r5!, {r1, r2, r3, r5, r8, sl}
    pxTCB = prvGetTCBFromHandle( xTaskToQuery );
     8b0:	052e4805 	streq	r4, [lr, #-2053]!	@ 0xfffff7fb
     8b4:	11055b26 	tstne	r5, r6, lsr #22
     8b8:	33130535 	tstcc	r3, #222298112	@ 0xd400000
     8bc:	053f1505 	ldreq	r1, [pc, #-1285]!	@ 3bf <prvInitialiseNewTask+0x9d>
    return &( pxTCB->pcTaskName[ 0 ] );
     8c0:	0f05511f 	svceq	0x0005511f
}
     8c4:	002c053f 	eoreq	r0, ip, pc, lsr r5
     8c8:	3c010402 	cfstrscc	mvf0, [r1], {2}
     8cc:	053e1105 	ldreq	r1, [lr, #-261]!	@ 0xfffffefb
     8d0:	0f058a09 	svceq	0x00058a09
{
     8d4:	40350532 	eorsmi	r0, r5, r2, lsr r5
     8d8:	052e4605 	streq	r4, [lr, #-1541]!	@ 0xfffff9fb
    vTaskSuspendAll();
     8dc:	1d055827 	stcne	8, cr5, [r5, #-156]	@ 0xffffff64
    taskENTER_CRITICAL();
     8e0:	2e2c0535 	mcrcs	5, 1, r0, cr12, cr5, {1}
        xPendedTicks += xTicksToCatchUp;
     8e4:	05580f05 	ldrbeq	r0, [r8, #-3845]	@ 0xfffff0fb
     8e8:	1d053119 	stfnes	f3, [r5, #-100]	@ 0xffffff9c
     8ec:	2e2e0542 	cfsh64cs	mvdx0, mvdx14, #34
    taskEXIT_CRITICAL();
     8f0:	05584505 	ldrbeq	r4, [r8, #-1285]	@ 0xfffffafb
    xYieldOccurred = xTaskResumeAll();
     8f4:	19052e42 	stmdbne	r5, {r1, r6, r9, sl, fp, sp}
     8f8:	3c053167 	stfccs	f3, [r5], {103}	@ 0x67
}
     8fc:	5a09052e 	bpl	241dbc <_edata+0x23f96c>
     900:	05321005 	ldreq	r1, [r2, #-5]!
     904:	0c032105 	stfeqs	f2, [r3], {5}
{
     908:	76140590 			@ <UNDEFINED> instruction: 0x76140590
     90c:	05350f05 	ldreq	r0, [r5, #-3845]!	@ 0xfffff0fb
    BaseType_t xSwitchRequired = pdFALSE;
     910:	0f053009 	svceq	0x00053009
    if( uxSchedulerSuspended == ( UBaseType_t ) 0U )
     914:	3e470530 	mcrcc	5, 2, r0, cr7, cr0, {1}
     918:	05662f05 	strbeq	r2, [r6, #-3845]!	@ 0xfffff0fb
        const TickType_t xConstTickCount = xTickCount + ( TickType_t ) 1;
     91c:	35053123 	strcc	r3, [r5, #-291]	@ 0xfffffedd
     920:	680d0568 	stmdavs	sp, {r3, r5, r6, r8, sl}
        xTickCount = xConstTickCount;
     924:	05f52b05 	ldrbeq	r2, [r5, #2821]!	@ 0xb05
     928:	1505663f 	strne	r6, [r5, #-1599]	@ 0xfffff9c1
        if( xConstTickCount == ( TickType_t ) 0U )
     92c:	232d0583 			@ <UNDEFINED> instruction: 0x232d0583
            taskSWITCH_DELAYED_LISTS();
     930:	05664205 	strbeq	r4, [r6, #-517]!	@ 0xfffffdfb
     934:	3f057515 	svccc	0x00057515
     938:	75150523 	ldrvc	r0, [r5, #-1315]	@ 0xfffffadd
     93c:	05241705 	streq	r1, [r4, #-1797]!	@ 0xfffff8fb
     940:	15053e43 	strne	r3, [r5, #-3651]	@ 0xfffff1bd
     944:	1d21057c 	cfstr32ne	mvfx0, [r1, #-496]!	@ 0xfffffe10
     948:	03311505 	teqeq	r1, #20971520	@ 0x1400000
     94c:	0f05200f 	svceq	0x0005200f
     950:	3e110527 	cfmul64cc	mvdx0, mvdx1, mvdx7
        if( xConstTickCount >= xNextTaskUnblockTime )
     954:	01040200 	mrseq	r0, R12_usr
     958:	002e0806 	eoreq	r0, lr, r6, lsl #16
     95c:	4a030402 	bmi	c196c <_edata+0xbf51c>
                if( listLIST_IS_EMPTY( pxDelayedTaskList ) != pdFALSE )
     960:	17038306 	strne	r8, [r3, -r6, lsl #6]
     964:	00014102 	andeq	r4, r1, r2, lsl #2
                    xNextTaskUnblockTime = portMAX_DELAY;
     968:	06010402 	streq	r0, [r1], -r2, lsl #8
     96c:	06090574 			@ <UNDEFINED> instruction: 0x06090574
                    break;
     970:	32100589 	andscc	r0, r0, #574619648	@ 0x22400000
                    pxTCB = listGET_OWNER_OF_HEAD_ENTRY( pxDelayedTaskList );
     974:	03210505 			@ <UNDEFINED> instruction: 0x03210505
     978:	1405c80d 	strne	ip, [r5], #-2061	@ 0xfffff7f3
                    xItemValue = listGET_LIST_ITEM_VALUE( &( pxTCB->xStateListItem ) );
     97c:	030f0577 	movweq	r0, #62839	@ 0xf577
     980:	02042e1a 	andeq	r2, r4, #416	@ 0x1a0
                    if( xConstTickCount < xItemValue )
     984:	ea030505 	b	c1da0 <_edata+0xbf950>
     988:	0c052e42 	stceq	14, cr2, [r5], {66}	@ 0x42
                        xNextTaskUnblockTime = xItemValue;
     98c:	04ba0c03 	ldrteq	r0, [sl], #3075	@ 0xc03
                        break;
     990:	03320501 	teqeq	r2, #4194304	@ 0x400000
                    listREMOVE_ITEM( &( pxTCB->xStateListItem ) );
     994:	05203d8f 	streq	r3, [r0, #-3471]!	@ 0xfffff271
     998:	4705220f 	strmi	r2, [r5, -pc, lsl #4]
     99c:	662f053e 			@ <UNDEFINED> instruction: 0x662f053e
     9a0:	05312305 	ldreq	r2, [r1, #-773]!	@ 0xfffffcfb
     9a4:	0d057535 	cfstr32eq	mvfx7, [r5, #-212]	@ 0xffffff2c
     9a8:	082b0568 	stmdaeq	fp!, {r3, r5, r6, r8, sl}
     9ac:	663f0515 			@ <UNDEFINED> instruction: 0x663f0515
     9b0:	05831505 	streq	r1, [r3, #1285]	@ 0x505
     9b4:	4205232d 	andmi	r2, r5, #-1275068416	@ 0xb4000000
     9b8:	75150566 	ldrvc	r0, [r5, #-1382]	@ 0xfffffa9a
     9bc:	05233f05 	streq	r3, [r3, #-3845]!	@ 0xfffff0fb
     9c0:	17057515 	smladne	r5, r5, r5, r7
     9c4:	4c430524 	cfstr64mi	mvdx0, [r3], {36}	@ 0x24
     9c8:	057c1505 	ldrbeq	r1, [ip, #-1285]!	@ 0xfffffafb
     9cc:	15051d21 	strne	r1, [r5, #-3361]	@ 0xfffff2df
                    if( listLIST_ITEM_CONTAINER( &( pxTCB->xEventListItem ) ) != NULL )
     9d0:	200e0331 	andcs	r0, lr, r1, lsr r3
     9d4:	05270f05 	streq	r0, [r7, #-3845]!	@ 0xfffff0fb
                        listREMOVE_ITEM( &( pxTCB->xEventListItem ) );
     9d8:	13055d2a 	movwne	r5, #23850	@ 0x5d2a
     9dc:	3015052e 	andscc	r0, r5, lr, lsr #10
     9e0:	01040200 	mrseq	r0, R12_usr
     9e4:	002e0806 	eoreq	r0, lr, r6, lsl #16
     9e8:	4a030402 	bmi	c19f8 <_edata+0xbf5a8>
     9ec:	16038306 	strne	r8, [r3], -r6, lsl #6
     9f0:	05014202 	streq	r4, [r1, #-514]	@ 0xfffffdfe
     9f4:	05b1081e 	ldreq	r0, [r1, #2078]!	@ 0x81e
     9f8:	17052e39 	smladxne	r5, r9, lr, r2
     9fc:	321b053c 	andscc	r0, fp, #60, 10	@ 0xf000000
     a00:	053e3805 	ldreq	r3, [lr, #-2053]!	@ 0xfffff7fb
     a04:	0204422d 	andeq	r4, r4, #-805306366	@ 0xd0000002
     a08:	8f030505 	svchi	0x00030505
     a0c:	01055842 	tsteq	r5, r2, asr #16
     a10:	05010440 	streq	r0, [r1, #-1088]	@ 0xfffffbc0
     a14:	3e8b0310 	mcrcc	3, 4, r0, cr11, cr0, {0}
                    prvAddTaskToReadyList( pxTCB );
     a18:	21050520 	tstcs	r5, r0, lsr #10
     a1c:	20080a03 	andcs	r0, r8, r3, lsl #20
     a20:	1c030f05 	stcne	15, cr0, [r3], {5}
     a24:	05020466 	streq	r0, [r2, #-1126]	@ 0xfffffb9a
     a28:	41b80305 			@ <UNDEFINED> instruction: 0x41b80305
     a2c:	030c052e 	movweq	r0, #50478	@ 0xc52e
     a30:	0104ba0c 	tsteq	r4, ip, lsl #20
     a34:	c1033205 	tstgt	r3, r5, lsl #4
     a38:	2305203e 	movwcs	r2, #20542	@ 0x503e
     a3c:	75350522 	ldrvc	r0, [r5, #-1314]!	@ 0xfffffade
     a40:	056a2505 	strbeq	r2, [sl, #-1285]!	@ 0xfffffafb
     a44:	0f05663a 	svceq	0x0005663a
     a48:	5d2a057a 	cfstr32pl	mvfx0, [sl, #-488]!	@ 0xfffffe18
     a4c:	052e1305 	streq	r1, [lr, #-773]!	@ 0xfffffcfb
     a50:	02003015 	andeq	r3, r0, #21
     a54:	08060104 	stmdaeq	r6, {r2, r8}
     a58:	0402002e 	streq	r0, [r2], #-46	@ 0xffffffd2
     a5c:	83064a03 	movwhi	r4, #27139	@ 0x6a03
     a60:	42021603 	andmi	r1, r2, #3145728	@ 0x300000
     a64:	081e0501 	ldmdaeq	lr, {r0, r8, sl}
     a68:	2e3905b1 	mrccs	5, 1, r0, cr9, cr1, {5}
     a6c:	053c1705 	ldreq	r1, [ip, #-1797]!	@ 0xfffff8fb
     a70:	3805321b 	stmdacc	r5, {r0, r1, r3, r4, r9, ip, sp}
     a74:	422d053e 	eormi	r0, sp, #260046848	@ 0xf800000
     a78:	05050204 	streq	r0, [r5, #-516]	@ 0xfffffdfc
     a7c:	58418903 	stmdapl	r1, {r0, r1, r8, fp, pc}^
     a80:	04400105 	strbeq	r0, [r0], #-261	@ 0xfffffefb
     a84:	03050501 	movweq	r0, #21761	@ 0x5501
     a88:	03203f90 			@ <UNDEFINED> instruction: 0x03203f90
     a8c:	05200809 	streq	r0, [r0, #-2057]!	@ 0xfffff7f7
     a90:	580a0311 	stmdapl	sl, {r0, r4, r8, r9}
     a94:	01040200 	mrseq	r0, R12_usr
                            if( pxTCB->uxPriority > pxCurrentTCB->uxPriority )
     a98:	02003c06 	andeq	r3, r0, #1536	@ 0x600
     a9c:	053c0204 	ldreq	r0, [ip, #-516]!	@ 0xfffffdfc
     aa0:	0402000f 	streq	r0, [r2], #-15
     aa4:	05200604 	streq	r0, [r0, #-1540]!	@ 0xfffff9fc
                                xSwitchRequired = pdTRUE;
     aa8:	25052309 	strcs	r2, [r5, #-777]	@ 0xfffffcf7
                if( listLIST_IS_EMPTY( pxDelayedTaskList ) != pdFALSE )
     aac:	660f0530 			@ <UNDEFINED> instruction: 0x660f0530
                if( listCURRENT_LIST_LENGTH( &( pxReadyTasksLists[ pxCurrentTCB->uxPriority ] ) ) > 1U )
     ab0:	05303805 	ldreq	r3, [r0, #-2053]!	@ 0xfffff7fb
     ab4:	05406719 	strbeq	r6, [r0, #-1817]	@ 0xfffff8e7
     ab8:	10053109 	andne	r3, r5, r9, lsl #2
     abc:	21050532 	tstcs	r5, r2, lsr r5
     ac0:	05740a03 	ldrbeq	r0, [r4, #-2563]!	@ 0xfffff5fd
     ac4:	660a0311 			@ <UNDEFINED> instruction: 0x660a0311
                    xSwitchRequired = pdTRUE;
     ac8:	01040200 	mrseq	r0, R12_usr
                if( xYieldPendings[ 0 ] != pdFALSE )
     acc:	02003c06 	andeq	r3, r0, #1536	@ 0x600
     ad0:	053c0204 	ldreq	r0, [ip, #-516]!	@ 0xfffffdfc
                    xSwitchRequired = pdTRUE;
     ad4:	0402000f 	streq	r0, [r2], #-15
        xPendedTicks += 1U;
     ad8:	05200604 	streq	r0, [r0, #-1540]!	@ 0xfffff9fc
     adc:	16052309 	strne	r2, [r5], -r9, lsl #6
     ae0:	75230532 	strvc	r0, [r3, #-1330]!	@ 0xffffface
}
     ae4:	05663905 	strbeq	r3, [r6, #-2309]!	@ 0xfffff6fb
     ae8:	09052e36 	stmdbeq	r5, {r1, r2, r4, r5, r9, sl, fp, sp}
     aec:	32100576 	andscc	r0, r0, #494927872	@ 0x1d800000
     af0:	05210505 	streq	r0, [r1, #-1285]!	@ 0xfffffafb
     af4:	01ad0301 			@ <UNDEFINED> instruction: 0x01ad0301
     af8:	5a160574 	bpl	5820d0 <_edata+0x57fc80>
     afc:	3d3d1405 	cfldrscc	mvf1, [sp, #-20]!	@ 0xffffffec
     b00:	0d032605 	stceq	6, cr2, [r3, #-20]	@ 0xffffffec
     b04:	2e09053c 	mcrcs	5, 0, r0, cr9, cr12, {1}
     b08:	02000705 	andeq	r0, r0, #1310720	@ 0x140000
     b0c:	05580104 	ldrbeq	r0, [r8, #-260]	@ 0xfffffefc
     b10:	15053209 	strne	r3, [r5, #-521]	@ 0xfffffdf7
     b14:	05ba3b03 	ldreq	r3, [sl, #2819]!	@ 0xb03
    {
     b18:	0b054d09 	bleq	153f44 <_edata+0x151af4>
     b1c:	4e40054c 	cdpmi	5, 4, cr0, cr0, cr12, {2}
        if( uxSchedulerSuspended != ( UBaseType_t ) 0U )
     b20:	052e0d05 	streq	r0, [lr, #-3333]!	@ 0xfffff2fb
     b24:	58190301 	ldmdapl	r9, {r0, r8, r9}
            xYieldPendings[ 0 ] = pdTRUE;
     b28:	6d033805 	stcvs	8, cr3, [r3, #-20]	@ 0xffffffec
    }
     b2c:	2e0d0520 	cfsh32cs	mvfx0, mvfx13, #16
            xYieldPendings[ 0 ] = pdFALSE;
     b30:	055d1d05 	ldrbeq	r1, [sp, #-3333]	@ 0xfffff2fb
            taskSELECT_HIGHEST_PRIORITY_TASK();
     b34:	26052e0f 	strcs	r2, [r5], -pc, lsl #28
     b38:	0301053e 	movweq	r0, #5438	@ 0x153e
        __asm volatile ( "clz %0, %1" : "=r" ( ucReturn ) : "r" ( ulBitmap ) : "memory" );
     b3c:	f4033c0c 			@ <UNDEFINED> instruction: 0xf4033c0c
     b40:	1605f200 	strne	pc, [r5], -r0, lsl #4
     b44:	031c0542 	tsteq	ip, #276824064	@ 0x10800000
     b48:	10053c11 	andne	r3, r5, r1, lsl ip
     b4c:	3d18053d 	cfldr32cc	mvfx0, [r8, #-244]	@ 0xffffff0c
     b50:	053d1705 	ldreq	r1, [sp, #-1797]!	@ 0xfffff8fb
     b54:	053e3d12 	ldreq	r3, [lr, #-3346]!	@ 0xfffff2ee
     b58:	23052e05 	movwcs	r2, #24069	@ 0x5e05
     b5c:	003f0522 	eorseq	r0, pc, r2, lsr #10
     b60:	56030402 	strpl	r0, [r3], -r2, lsl #8
     b64:	02001f05 	andeq	r1, r0, #5, 30
     b68:	053c0104 	ldreq	r0, [ip, #-260]!	@ 0xfffffefc
     b6c:	12054115 	andne	r4, r5, #1073741829	@ 0x40000005
     b70:	3d1a053d 	cfldr32cc	mvfx0, [sl, #-244]	@ 0xffffff0c
     b74:	0301053e 	movweq	r0, #5438	@ 0x153e
     b78:	1b023c0b 	blne	8fbac <_edata+0x8d75c>
     b7c:	ac010100 	stfges	f0, [r1], {-0}
     b80:	03000003 	movweq	r0, #3
            portTASK_SWITCH_HOOK( pxCurrentTCB );
     b84:	00010f00 	andeq	r0, r1, r0, lsl #30
    }
     b88:	fb010200 	blx	41392 <_edata+0x3ef42>
     b8c:	01000d0e 	tsteq	r0, lr, lsl #26
     b90:	00010101 	andeq	r0, r1, r1, lsl #2
     b94:	00010000 	andeq	r0, r1, r0
     b98:	2e2e0100 	sufcse	f0, f6, f0
     b9c:	6572462f 	ldrbvs	r4, [r2, #-1583]!	@ 0xfffff9d1
     ba0:	4f545265 	svcmi	0x00545265
{
     ba4:	654b2d53 	strbvs	r2, [fp, #-3411]	@ 0xfffff2ad
     ba8:	6c656e72 	stclvs	14, cr6, [r5], #-456	@ 0xfffffe38
     bac:	726f702f 	rsbvc	r7, pc, #47	@ 0x2f
    vListInsert( pxEventList, &( pxCurrentTCB->xEventListItem ) );
     bb0:	6c626174 	stfvse	f6, [r2], #-464	@ 0xfffffe30
     bb4:	654d2f65 	strbvs	r2, [sp, #-3941]	@ 0xfffff09b
     bb8:	6e614d6d 	cdpvs	13, 6, cr4, cr1, cr13, {3}
    prvAddCurrentTaskToDelayedList( xTicksToWait, pdTRUE );
     bbc:	752f0067 	strvc	r0, [pc, #-103]!	@ b5d <vTaskSwitchContext+0x45>
     bc0:	6c2f7273 	sfmvs	f7, 4, [pc], #-460	@ 9fc <xTaskIncrementTick+0xf4>
}
     bc4:	672f6269 	strvs	r6, [pc, -r9, ror #4]!
     bc8:	612f6363 			@ <UNDEFINED> instruction: 0x612f6363
     bcc:	6e2d6d72 	mcrvs	13, 1, r6, cr13, cr2, {3}
{
     bd0:	2d656e6f 	stclcs	14, cr6, [r5, #-444]!	@ 0xfffffe44
     bd4:	69626165 	stmdbvs	r2!, {r0, r2, r5, r6, r8, sp, lr}^
     bd8:	2e33312f 	rsfcssp	f3, f3, #10.0
    listSET_LIST_ITEM_VALUE( &( pxCurrentTCB->xEventListItem ), xItemValue | taskEVENT_LIST_ITEM_VALUE_IN_USE );
     bdc:	2f312e32 	svccs	0x00312e32
     be0:	6c636e69 	stclvs	14, cr6, [r3], #-420	@ 0xfffffe5c
     be4:	00656475 	rsbeq	r6, r5, r5, ror r4
    listINSERT_END( pxEventList, &( pxCurrentTCB->xEventListItem ) );
     be8:	462f2e2e 	strtmi	r2, [pc], -lr, lsr #28
     bec:	52656572 	rsbpl	r6, r5, #478150656	@ 0x1c800000
     bf0:	2d534f54 	ldclcs	15, cr4, [r3, #-336]	@ 0xfffffeb0
     bf4:	6e72654b 	cdpvs	5, 7, cr6, cr2, cr11, {2}
     bf8:	702f6c65 	eorvc	r6, pc, r5, ror #24
     bfc:	6174726f 	cmnvs	r4, pc, ror #4
     c00:	2f656c62 	svccs	0x00656c62
     c04:	2f434347 	svccs	0x00434347
     c08:	5f4d5241 	svcpl	0x004d5241
     c0c:	00334d43 	eorseq	r4, r3, r3, asr #26
     c10:	462f2e2e 	strtmi	r2, [pc], -lr, lsr #28
     c14:	52656572 	rsbpl	r6, r5, #478150656	@ 0x1c800000
     c18:	2d534f54 	ldclcs	15, cr4, [r3, #-336]	@ 0xfffffeb0
     c1c:	6e72654b 	cdpvs	5, 7, cr6, cr2, cr11, {2}
     c20:	692f6c65 	stmdbvs	pc!, {r0, r2, r5, r6, sl, fp, sp, lr}	@ <UNPREDICTABLE>
     c24:	756c636e 	strbvc	r6, [ip, #-878]!	@ 0xfffffc92
     c28:	2f006564 	svccs	0x00006564
    prvAddCurrentTaskToDelayedList( xTicksToWait, pdTRUE );
     c2c:	2f727375 	svccs	0x00727375
     c30:	6c636e69 	stclvs	14, cr6, [r3], #-420	@ 0xfffffe5c
}
     c34:	2f656475 	svccs	0x00656475
     c38:	6c77656e 	cfldr64vs	mvdx6, [r7], #-440	@ 0xfffffe48
     c3c:	00006269 	andeq	r6, r0, r9, ror #4
{
     c40:	70616568 	rsbvc	r6, r1, r8, ror #10
     c44:	632e345f 			@ <UNDEFINED> instruction: 0x632e345f
    pxUnblockedTCB = listGET_OWNER_OF_HEAD_ENTRY( pxEventList );
     c48:	00000100 	andeq	r0, r0, r0, lsl #2
     c4c:	64647473 	strbtvs	r7, [r4], #-1139	@ 0xfffffb8d
    listREMOVE_ITEM( &( pxUnblockedTCB->xEventListItem ) );
     c50:	682e6665 	stmdavs	lr!, {r0, r2, r5, r6, r9, sl, sp, lr}
     c54:	00000200 	andeq	r0, r0, r0, lsl #4
     c58:	69647473 	stmdbvs	r4!, {r0, r1, r4, r5, r6, sl, ip, sp, lr}^
     c5c:	682e746e 	stmdavs	lr!, {r1, r2, r3, r5, r6, sl, ip, sp, lr}
     c60:	00000200 	andeq	r0, r0, r0, lsl #4
     c64:	74726f70 	ldrbtvc	r6, [r2], #-3952	@ 0xfffff090
     c68:	7263616d 	rsbvc	r6, r3, #1073741851	@ 0x4000001b
     c6c:	00682e6f 	rsbeq	r2, r8, pc, ror #28
     c70:	70000003 	andvc	r0, r0, r3
     c74:	6174726f 	cmnvs	r4, pc, ror #4
     c78:	2e656c62 	cdpcs	12, 6, cr6, cr5, cr2, {3}
     c7c:	00040068 	andeq	r0, r4, r8, rrx
     c80:	73617400 	cmnvc	r1, #0, 8
     c84:	00682e6b 	rsbeq	r2, r8, fp, ror #28
     c88:	73000004 	movwvc	r0, #4
     c8c:	6e697274 	mcrvs	2, 3, r7, cr9, cr4, {3}
    if( uxSchedulerSuspended == ( UBaseType_t ) 0U )
     c90:	00682e67 	rsbeq	r2, r8, r7, ror #28
     c94:	00000005 	andeq	r0, r0, r5
        listREMOVE_ITEM( &( pxUnblockedTCB->xStateListItem ) );
     c98:	05000105 	streq	r0, [r0, #-261]	@ 0xfffffefb
     c9c:	001b5002 	andseq	r5, fp, r2
     ca0:	01ad0300 			@ <UNDEFINED> instruction: 0x01ad0300
     ca4:	4e0c0501 	cfsh32mi	mvfx0, mvfx12, #1
     ca8:	30070530 	andcc	r0, r7, r0, lsr r5
     cac:	05400d05 	strbeq	r0, [r0, #-3333]	@ 0xfffff2fb
     cb0:	19052e0b 	stmdbne	r5, {r0, r1, r3, r9, sl, fp, sp}
     cb4:	4e1f053e 	mrcmi	5, 0, r0, cr15, cr14, {1}
     cb8:	053c0f05 	ldreq	r0, [ip, #-3845]!	@ 0xfffff0fb
     cbc:	2905314e 	stmdbcs	r5, {r1, r2, r3, r6, r8, ip, sp}
     cc0:	3e15053c 	mrccc	5, 0, r0, cr5, cr12, {1}
     cc4:	052e1305 	streq	r1, [lr, #-773]!	@ 0xfffffcfb
     cc8:	055c3e21 	ldrbeq	r3, [ip, #-3617]	@ 0xfffff1df
     ccc:	3c0a0319 	stccc	3, cr0, [sl], {25}
     cd0:	05360505 	ldreq	r0, [r6, #-1285]!	@ 0xfffffafb
        prvAddTaskToReadyList( pxUnblockedTCB );
     cd4:	0b053213 	bleq	14d528 <_edata+0x14b0d8>
     cd8:	300d052e 	andcc	r0, sp, lr, lsr #10
     cdc:	052e0b03 	streq	r0, [lr, #-2819]!	@ 0xfffff4fd
     ce0:	0f05200b 	svceq	0x0005200b
     ce4:	00360530 	eorseq	r0, r6, r0, lsr r5
     ce8:	3c010402 	cfstrscc	mvf0, [r1], {2}
     cec:	02002505 	andeq	r2, r0, #20971520	@ 0x1400000
     cf0:	052e0104 	streq	r0, [lr, #-260]!	@ 0xfffffefc
     cf4:	19054021 	stmdbne	r5, {r0, r5, lr}
     cf8:	3f16052f 	svccc	0x0016052f
     cfc:	05222505 	streq	r2, [r2, #-1285]!	@ 0xfffffafb
     d00:	21052f1d 	tstcs	r5, sp, lsl pc
     d04:	2e3e0539 	mrccs	5, 1, r0, cr14, cr9, {1}
     d08:	02004a05 	andeq	r4, r0, #20480	@ 0x5000
     d0c:	053c0104 	ldreq	r0, [ip, #-260]!	@ 0xfffffefc
     d10:	0402003e 	streq	r0, [r2], #-62	@ 0xffffffc2
     d14:	1d052e01 	stcne	14, cr2, [r5, #-4]
     d18:	052e0903 	streq	r0, [lr, #-2307]!	@ 0xfffff6fd
     d1c:	3d052e13 	stccc	14, cr2, [r5, #-76]	@ 0xffffffb4
     d20:	2e200540 	cfsh64cs	mvdx0, mvdx0, #32
     d24:	05201e05 	streq	r1, [r0, #-3589]!	@ 0xfffff1fb
     d28:	3605333f 			@ <UNDEFINED> instruction: 0x3605333f
     d2c:	3422052e 	strtcc	r0, [r2], #-1326	@ 0xfffffad2
     d30:	052e2f05 	streq	r2, [lr, #-3845]!	@ 0xfffff0fb
     d34:	17052e41 	strne	r2, [r5, -r1, asr #28]
     d38:	3428052e 	strtcc	r0, [r8], #-1326	@ 0xfffffad2
     d3c:	054f3d05 	strbeq	r3, [pc, #-3333]	@ 3f <_stext+0x3f>
     d40:	34052e4a 	strcc	r2, [r5], #-3658	@ 0xfffff1b6
     d44:	2f2d052e 	svccs	0x002d052e
     d48:	053f4a05 	ldreq	r4, [pc, #-2565]!	@ 34b <prvInitialiseNewTask+0x29>
     d4c:	3a052e39 	bcc	14c638 <_edata+0x14a1e8>
     d50:	4329052f 			@ <UNDEFINED> instruction: 0x4329052f
     d54:	052e3305 	streq	r3, [lr, #-773]!	@ 0xfffffcfb
        listINSERT_END( &( xPendingReadyList ), &( pxUnblockedTCB->xEventListItem ) );
     d58:	2d052e29 	stccs	14, cr2, [r5, #-164]	@ 0xffffff5c
     d5c:	4a17053e 	bmi	5c225c <_edata+0x5bfe0c>
     d60:	05303805 	ldreq	r3, [r0, #-2053]!	@ 0xfffff7fb
     d64:	15055129 	strne	r5, [r5, #-297]	@ 0xfffffed7
     d68:	672e0540 	strvs	r0, [lr, -r0, asr #10]!
     d6c:	053d3305 	ldreq	r3, [sp, #-773]!	@ 0xfffffcfb
     d70:	5816030e 	ldmdapl	r6, {r1, r2, r3, r8, r9}
     d74:	10030c05 	andne	r0, r3, r5, lsl #24
     d78:	2101052e 	tstcs	r1, lr, lsr #10
     d7c:	4b0f05da 	blmi	3c24ec <_edata+0x3c009c>
     d80:	05310705 	ldreq	r0, [r1, #-1797]!	@ 0xfffff8fb
     d84:	1005400d 	andne	r4, r5, sp
     d88:	340d055b 	strcc	r0, [sp], #-1371	@ 0xfffffaa5
     d8c:	052e0b05 	streq	r0, [lr, #-2821]!	@ 0xfffff4fb
        if( pxUnblockedTCB->uxPriority > pxCurrentTCB->uxPriority )
     d90:	0f053017 	svceq	0x00053017
     d94:	3211052e 	andscc	r0, r1, #192937984	@ 0xb800000
     d98:	05660c03 	strbeq	r0, [r6, #-3075]!	@ 0xfffff3fd
     d9c:	29053132 	stmdbcs	r5, {r1, r4, r5, r8, ip, sp}
            xReturn = pdTRUE;
     da0:	5a15052e 	bpl	542260 <_edata+0x53fe10>
            xYieldPendings[ 0 ] = pdTRUE;
     da4:	053d2d05 	ldreq	r2, [sp, #-3333]!	@ 0xfffff2fb
     da8:	01055a1a 	tsteq	r5, sl, lsl sl
            xReturn = pdFALSE;
     dac:	942e0c03 	strtls	r0, [lr], #-3075	@ 0xfffff3fd
}
     db0:	052f0c05 	streq	r0, [pc, #-3077]!	@ 1b3 <vTask2+0x3>
     db4:	056a2f01 	strbeq	r2, [sl, #-3841]!	@ 0xfffff0ff
     db8:	01052f0c 	tsteq	r5, ip, lsl #30
     dbc:	24056a2f 	strcs	r6, [r5], #-2607	@ 0xfffff5d1
     dc0:	4b01052f 	blmi	42284 <_edata+0x3fe34>
     dc4:	054f3086 	strbeq	r3, [pc, #-134]	@ d46 <xTaskRemoveFromEventList+0x106>
     dc8:	0905590c 	stmdbeq	r5, {r2, r3, r8, fp, ip, lr}
     dcc:	04020030 	streq	r0, [r2], #-48	@ 0xffffffd0
     dd0:	003c0601 	eorseq	r0, ip, r1, lsl #12
{
     dd4:	82030402 	andhi	r0, r3, #33554432	@ 0x2000000
     dd8:	04020020 	streq	r0, [r2], #-32	@ 0xffffffe0
     ddc:	07052004 	streq	r2, [r5, -r4]
    listSET_LIST_ITEM_VALUE( pxEventListItem, xItemValue | taskEVENT_LIST_ITEM_VALUE_IN_USE );
     de0:	06040200 	streq	r0, [r4], -r0, lsl #4
     de4:	0e052006 	cdpeq	0, 0, cr2, cr5, cr6, {0}
    pxUnblockedTCB = listGET_LIST_ITEM_OWNER( pxEventListItem );
     de8:	840b0530 	strhi	r0, [fp], #-1328	@ 0xfffffad0
     dec:	053e1605 	ldreq	r1, [lr, #-1541]!	@ 0xfffff9fb
    listREMOVE_ITEM( pxEventListItem );
     df0:	0105940c 	tsteq	r5, ip, lsl #8
     df4:	0c054e21 	stceq	14, cr4, [r5], {33}	@ 0x21
     df8:	3f14053f 	svccc	0x0014053f
     dfc:	05301a05 	ldreq	r1, [r0, #-2565]!	@ 0xfffff5fb
     e00:	18053c07 	stmdane	r5, {r0, r1, r2, sl, fp, ip, sp}
     e04:	054b3d30 	strbeq	r3, [fp, #-3376]	@ 0xfffff2d0
     e08:	660b031e 			@ <UNDEFINED> instruction: 0x660b031e
     e0c:	05201c05 	streq	r1, [r0, #-3077]!	@ 0xfffff3fb
     e10:	12052f17 	andne	r2, r5, #23, 30	@ 0x5c
     e14:	4b150540 	blmi	54231c <_edata+0x53fecc>
     e18:	3d201205 	sfmcc	f1, 4, [r0, #-20]!	@ 0xffffffec
     e1c:	054b0d05 	strbeq	r0, [fp, #-3333]	@ 0xfffff2fb
     e20:	0a05200b 	beq	148e54 <_edata+0x146a04>
     e24:	2e17052f 	cfmul64cs	mvdx0, mvdx7, mvdx15
     e28:	052f0a05 	streq	r0, [pc, #-2565]!	@ 42b <prvAddNewTaskToReadyList+0x3f>
    listREMOVE_ITEM( &( pxUnblockedTCB->xStateListItem ) );
     e2c:	16052e1c 			@ <UNDEFINED> instruction: 0x16052e1c
     e30:	2f400532 	svccs	0x00400532
     e34:	05203e05 	streq	r3, [r0, #-3589]!	@ 0xfffff1fb
     e38:	27052e22 	strcs	r2, [r5, -r2, lsr #28]
     e3c:	4d36052f 	cfldr32mi	mvfx0, [r6, #-188]!	@ 0xffffff44
     e40:	052e2405 	streq	r2, [lr, #-1029]!	@ 0xfffffbfb
     e44:	19052f2b 	stmdbne	r5, {r0, r1, r3, r5, r8, r9, sl, fp, sp}
     e48:	2f01052e 	svccs	0x0001052e
     e4c:	501505f6 			@ <UNDEFINED> instruction: 0x501505f6
     e50:	052e0505 	streq	r0, [lr, #-1285]!	@ 0xfffffafb
     e54:	04020077 	streq	r0, [r2], #-119	@ 0xffffff89
     e58:	20052003 	andcs	r2, r5, r3
     e5c:	01040200 	mrseq	r0, R12_usr
     e60:	0059053c 	subseq	r0, r9, ip, lsr r5
     e64:	2e010402 	cdpcs	4, 0, cr0, cr1, cr2, {0}
    prvAddTaskToReadyList( pxUnblockedTCB );
     e68:	0c030905 			@ <UNDEFINED> instruction: 0x0c030905
     e6c:	301b053c 	andscc	r0, fp, ip, lsr r5
     e70:	052e0f05 	streq	r0, [lr, #-3845]!	@ 0xfffff0fb
     e74:	13052e07 	movwne	r2, #24071	@ 0x5e07
     e78:	2e32053e 	mrccs	5, 1, r0, cr2, cr14, {1}
     e7c:	052e2005 	streq	r2, [lr, #-5]!
     e80:	09053d19 	stmdbeq	r5, {r0, r3, r4, r8, sl, fp, ip, sp}
     e84:	052e0903 	streq	r0, [lr, #-2307]!	@ 0xfffff6fd
     e88:	0f053020 	svceq	0x00053020
     e8c:	2e40052e 	cdpcs	5, 4, cr0, cr0, cr14, {1}
     e90:	052e0705 	streq	r0, [lr, #-1797]!	@ 0xfffff8fb
     e94:	4605300d 	strmi	r3, [r5], -sp
     e98:	2e0b052e 	cfsh32cs	mvfx0, mvfx11, #30
     e9c:	05311c05 	ldreq	r1, [r1, #-3077]!	@ 0xfffff3fb
     ea0:	64052e2c 	strvs	r2, [r5], #-3628	@ 0xfffff1d4
     ea4:	2029052e 	eorcs	r0, r9, lr, lsr #10
     ea8:	053d3005 	ldreq	r3, [sp, #-5]!
     eac:	2e052e68 	cdpcs	14, 0, cr2, cr5, cr8, {3}
     eb0:	36054020 	strcc	r4, [r5], -r0, lsr #32
     eb4:	2e2a055d 	mcrcs	5, 1, r0, cr10, cr13, {2}
     eb8:	05350705 	ldreq	r0, [r5, #-1797]!	@ 0xfffff8fb
     ebc:	01054c25 	tsteq	r5, r5, lsr #24
     ec0:	0c059442 	cfstrseq	mvf9, [r5], {66}	@ 0x42
     ec4:	2e19054c 	cfmac32cs	mvfx0, mvfx9, mvfx12
     ec8:	052e2705 	streq	r2, [lr, #-1797]!	@ 0xfffff8fb
     ecc:	11053e05 	tstne	r5, r5, lsl #28
     ed0:	400b0530 	andmi	r0, fp, r0, lsr r5
     ed4:	053e1205 	ldreq	r1, [lr, #-517]!	@ 0xfffffdfb
     ed8:	1c052418 	cfstrsne	mvf2, [r5], {24}
     edc:	2e13053e 	mrccs	5, 0, r0, cr3, cr14, {1}
     ee0:	053e1e05 	ldreq	r1, [lr, #-3589]!	@ 0xfffff1fb
     ee4:	13053f1c 	movwne	r3, #24348	@ 0x5f1c
     ee8:	3e1e052e 	cfmul64cc	mvdx0, mvdx14, mvdx14
        if( pxUnblockedTCB->uxPriority > pxCurrentTCB->uxPriority )
     eec:	05411905 	strbeq	r1, [r1, #-2309]	@ 0xfffff6fb
     ef0:	3c6e031c 	stclcc	3, cr0, [lr], #-112	@ 0xffffff90
     ef4:	16030e05 	strne	r0, [r3], -r5, lsl #28
            xYieldPendings[ 0 ] = pdTRUE;
     ef8:	30310558 	eorscc	r0, r1, r8, asr r5
     efc:	053d3205 	ldreq	r3, [sp, #-517]!	@ 0xfffffdfb
}
     f00:	05053d26 	streq	r3, [r5, #-3366]	@ 0xfffff2da
     f04:	3031053e 	eorscc	r0, r1, lr, lsr r5
     f08:	054b3505 	strbeq	r3, [fp, #-1285]	@ 0xfffffafb
     f0c:	35054b2f 	strcc	r4, [r5, #-2863]	@ 0xfffff4d1
     f10:	4c05054b 	cfstr32mi	mvfx0, [r5], {75}	@ 0x4b
     f14:	032f0105 			@ <UNDEFINED> instruction: 0x032f0105
{
     f18:	0b05f209 	bleq	17d744 <_edata+0x17b2f4>
     f1c:	3e19052f 	cfmul64cc	mvdx0, mvdx9, mvdx15
    taskENTER_CRITICAL();
     f20:	3d3d2405 	cfldrscc	mvf2, [sp, #-20]!	@ 0xffffffec
        pxTimeOut->xOverflowCount = xNumOfOverflows;
     f24:	053d1e05 	ldreq	r1, [sp, #-3589]!	@ 0xfffff1fb
     f28:	0f023d01 	svceq	0x00023d01
        pxTimeOut->xTimeOnEntering = xTickCount;
     f2c:	55010100 	strpl	r0, [r1, #-256]	@ 0xffffff00
     f30:	03000000 	movweq	r0, #0
    taskEXIT_CRITICAL();
     f34:	00002500 	andeq	r2, r0, r0, lsl #10
}
     f38:	fb010200 	blx	41742 <_edata+0x3f2f2>
     f3c:	01000d0e 	tsteq	r0, lr, lsl #26
     f40:	00010101 	andeq	r0, r1, r1, lsl #2
     f44:	00010000 	andeq	r0, r1, r0
{
     f48:	70000100 	andvc	r0, r0, r0, lsl #2
     f4c:	4674726f 	ldrbtmi	r7, [r4], -pc, ror #4
    pxTimeOut->xOverflowCount = xNumOfOverflows;
     f50:	74636e75 	strbtvc	r6, [r3], #-3701	@ 0xfffff18b
     f54:	2e6e6f69 	cdpcs	15, 6, cr6, cr14, cr9, {3}
    pxTimeOut->xTimeOnEntering = xTickCount;
     f58:	00000063 	andeq	r0, r0, r3, rrx
     f5c:	36050000 	strcc	r0, [r5], -r0
}
     f60:	38020500 	stmdacc	r2, {r8, sl}
     f64:	14000020 	strne	r0, [r0], #-32	@ 0xffffffe0
     f68:	05671405 	strbeq	r1, [r7, #-1029]!	@ 0xfffffbfb
     f6c:	0a052f13 	beq	14cbc0 <_edata+0x14a770>
     f70:	210e0531 	tstcs	lr, r1, lsr r5
{
     f74:	053d0c05 	ldreq	r0, [sp, #-3077]!	@ 0xfffff3fb
     f78:	10053d0d 	andne	r3, r5, sp, lsl #26
     f7c:	410c0539 	tstmi	ip, r9, lsr r5
    taskENTER_CRITICAL();
     f80:	02210105 	eoreq	r0, r1, #1073741825	@ 0x40000001
        const TickType_t xConstTickCount = xTickCount;
     f84:	01010005 	tsteq	r1, r5
        const TickType_t xElapsedTime = xConstTickCount - pxTimeOut->xTimeOnEntering;
     f88:	000001f9 	strdeq	r0, [r0], -r9
     f8c:	00bd0003 	adcseq	r0, sp, r3
     f90:	01020000 	mrseq	r0, (UNDEF: 2)
        if( ( xNumOfOverflows != pxTimeOut->xOverflowCount ) && ( xConstTickCount >= pxTimeOut->xTimeOnEntering ) )
     f94:	000d0efb 	strdeq	r0, [sp], -fp
     f98:	01010101 	tsteq	r1, r1, lsl #2
     f9c:	01000000 	mrseq	r0, (UNDEF: 0)
     fa0:	2e010000 	cdpcs	0, 0, cr0, cr1, cr0, {0}
     fa4:	72462f2e 	subvc	r2, r6, #46, 30	@ 0xb8
            xReturn = pdTRUE;
     fa8:	54526565 	ldrbpl	r6, [r2], #-1381	@ 0xfffffa9b
            *pxTicksToWait = ( TickType_t ) 0;
     fac:	4b2d534f 	blmi	b55cf0 <_edata+0xb538a0>
     fb0:	656e7265 	strbvs	r7, [lr, #-613]!	@ 0xfffffd9b
        else if( xElapsedTime < *pxTicksToWait )
     fb4:	6f702f6c 	svcvs	0x00702f6c
     fb8:	62617472 	rsbvs	r7, r1, #1912602624	@ 0x72000000
     fbc:	472f656c 	strmi	r6, [pc, -ip, ror #10]!
            *pxTicksToWait -= xElapsedTime;
     fc0:	412f4343 			@ <UNDEFINED> instruction: 0x412f4343
     fc4:	435f4d52 	cmpmi	pc, #5248	@ 0x1480
     fc8:	2f00334d 	svccs	0x0000334d
            vTaskInternalSetTimeOutState( pxTimeOut );
     fcc:	2f727375 	svccs	0x00727375
            xReturn = pdFALSE;
     fd0:	2f62696c 	svccs	0x0062696c
     fd4:	2f636367 	svccs	0x00636367
            *pxTicksToWait = ( TickType_t ) 0;
     fd8:	2d6d7261 	sfmcs	f7, 2, [sp, #-388]!	@ 0xfffffe7c
            xReturn = pdTRUE;
     fdc:	656e6f6e 	strbvs	r6, [lr, #-3950]!	@ 0xfffff092
    taskEXIT_CRITICAL();
     fe0:	6261652d 	rsbvs	r6, r1, #188743680	@ 0xb400000
    return xReturn;
     fe4:	33312f69 	teqcc	r1, #420	@ 0x1a4
}
     fe8:	312e322e 			@ <UNDEFINED> instruction: 0x312e322e
     fec:	636e692f 	cmnvs	lr, #770048	@ 0xbc000
     ff0:	6564756c 	strbvs	r7, [r4, #-1388]!	@ 0xfffffa94
     ff4:	2f2e2e00 	svccs	0x002e2e00
{
     ff8:	65657246 	strbvs	r7, [r5, #-582]!	@ 0xfffffdba
    xYieldPendings[ portGET_CORE_ID() ] = pdTRUE;
     ffc:	534f5452 	movtpl	r5, #62546	@ 0xf452
    1000:	72654b2d 	rsbvc	r4, r5, #46080	@ 0xb400
}
    1004:	2f6c656e 	svccs	0x006c656e
    1008:	6c636e69 	stclvs	14, cr6, [r3], #-420	@ 0xfffffe5c
    100c:	00656475 	rsbeq	r6, r5, r5, ror r4
{
    1010:	726f7000 	rsbvc	r7, pc, #0
    1014:	00632e74 	rsbeq	r2, r3, r4, ror lr
        prvCheckTasksWaitingTermination();
    1018:	70000001 	andvc	r0, r0, r1
            if( listCURRENT_LIST_LENGTH( &( pxReadyTasksLists[ tskIDLE_PRIORITY ] ) ) > ( UBaseType_t ) configNUMBER_OF_CORES )
    101c:	6d74726f 	lfmvs	f7, 2, [r4, #-444]!	@ 0xfffffe44
    1020:	6f726361 	svcvs	0x00726361
                taskYIELD();
    1024:	0100682e 	tsteq	r0, lr, lsr #16
    1028:	74730000 	ldrbtvc	r0, [r3], #-0
    102c:	746e6964 	strbtvc	r6, [lr], #-2404	@ 0xfffff69c
    1030:	0200682e 	andeq	r6, r0, #3014656	@ 0x2e0000
        prvCheckTasksWaitingTermination();
    1034:	72700000 	rsbsvc	r0, r0, #0
    1038:	65646a6f 	strbvs	r6, [r4, #-2671]!	@ 0xfffff591
    103c:	682e7366 	stmdavs	lr!, {r1, r2, r5, r6, r8, r9, ip, sp, lr}
{
    1040:	00000300 	andeq	r0, r0, r0, lsl #6
    1044:	6b736174 	blvs	1cd961c <_edata+0x1cd71cc>
    for( uxPriority = ( UBaseType_t ) 0U; uxPriority < ( UBaseType_t ) configMAX_PRIORITIES; uxPriority++ )
    1048:	0300682e 	movweq	r6, #2094	@ 0x82e
        vListInitialise( &( pxReadyTasksLists[ uxPriority ] ) );
    104c:	05000000 	streq	r0, [r0, #-0]
    1050:	02050001 	andeq	r0, r5, #1
    1054:	00002074 	andeq	r2, r0, r4, ror r0
    1058:	0101b803 	tsteq	r1, r3, lsl #16
    105c:	05691105 	strbeq	r1, [r9, #-261]!	@ 0xfffffefb
    for( uxPriority = ( UBaseType_t ) 0U; uxPriority < ( UBaseType_t ) configMAX_PRIORITIES; uxPriority++ )
    1060:	11053d13 	tstne	r5, r3, lsl sp
    1064:	3d17054b 	cfldr32cc	mvfx0, [r7, #-300]	@ 0xfffffed4
    1068:	05203005 	streq	r3, [r0, #-5]!
    vListInitialise( &xDelayedTaskList1 );
    106c:	11052e13 	tstne	r5, r3, lsl lr
    1070:	3d15052f 	cfldr32cc	mvfx0, [r5, #-188]	@ 0xffffff44
    vListInitialise( &xDelayedTaskList2 );
    1074:	05201305 	streq	r1, [r0, #-773]!	@ 0xfffffcfb
    vListInitialise( &xPendingReadyList );
    1078:	15052f12 	strne	r2, [r5, #-3858]	@ 0xfffff0ee
    107c:	2013053d 	andscs	r0, r3, sp, lsr r5
    pxDelayedTaskList = &xDelayedTaskList1;
    1080:	052f1205 	streq	r1, [pc, #-517]!	@ e83 <vTaskRemoveFromUnorderedEventList+0xaf>
    pxOverflowDelayedTaskList = &xDelayedTaskList2;
    1084:	01053e0c 	tsteq	r5, ip, lsl #28
    1088:	17057821 	strne	r7, [r5, -r1, lsr #16]
}
    108c:	0502043d 	streq	r0, [r2, #-1085]	@ 0xfffffbc3
    1090:	2e0c0305 	cdpcs	3, 0, cr0, cr12, cr5, {0}
    1094:	04980105 	ldreq	r0, [r8], #261	@ 0x105
    1098:	030a0501 	movweq	r0, #42241	@ 0xa501
    109c:	14052077 	strne	r2, [r5], #-119	@ 0xffffff89
    10a0:	01040200 	mrseq	r0, R12_usr
    10a4:	03010520 	movweq	r0, #5408	@ 0x1520
    10a8:	056a3c0a 	strbeq	r3, [sl, #-3082]!	@ 0xfffff3f6
{
    10ac:	01051305 	tsteq	r5, r5, lsl #6
}
    10b0:	2e080e03 	cdpcs	14, 0, cr0, cr8, cr3, {0}
    10b4:	13050524 	movwne	r0, #21796	@ 0x5524
{
    10b8:	0d030105 	stfeqs	f0, [r3, #-20]	@ 0xffffffec
    if( listLIST_IS_EMPTY( pxDelayedTaskList ) != pdFALSE )
    10bc:	310527e4 	smlattcc	r5, r4, r7, r2
    10c0:	053c0f03 	ldreq	r0, [ip, #-3843]!	@ 0xfffff0fd
    10c4:	05052021 	streq	r2, [r5, #-33]	@ 0xffffffdf
        xNextTaskUnblockTime = portMAX_DELAY;
    10c8:	2e00ea03 	vmlacs.f32	s28, s0, s6
    10cc:	053c1805 	ldreq	r1, [ip, #-2053]!	@ 0xfffff7fb
        xNextTaskUnblockTime = listGET_ITEM_VALUE_OF_HEAD_ENTRY( pxDelayedTaskList );
    10d0:	18053d05 	stmdane	r5, {r0, r2, r8, sl, fp, ip, sp}
    10d4:	3d05053c 	cfstr32cc	mvfx0, [r5, #-240]	@ 0xffffff10
    10d8:	05201805 	streq	r1, [r0, #-2053]!	@ 0xfffff7fb
}
    10dc:	17053205 	strne	r3, [r5, -r5, lsl #4]
    10e0:	3f050531 	svccc	0x00050531
    10e4:	0c052f36 	stceq	15, cr2, [r5], {54}	@ 0x36
    10e8:	21010531 	tstcs	r1, r1, lsr r5
        {
    10ec:	044e32be 	strbeq	r3, [lr], #-702	@ 0xfffffd42
    10f0:	03050502 	movweq	r0, #21762	@ 0x5502
            xReturn = pxCurrentTCB;
    10f4:	053c7ead 	ldreq	r7, [ip, #-3757]!	@ 0xfffff153
            return xReturn;
    10f8:	01049801 	tsteq	r4, r1, lsl #16
        }
    10fc:	cd031605 	stcgt	6, cr1, [r3, #-20]	@ 0xffffffec
    1100:	01052001 	tsteq	r5, r1
    1104:	86580b03 	ldrbhi	r0, [r8], -r3, lsl #22
    {
    1108:	053e1605 	ldreq	r1, [lr, #-1541]!	@ 0xfffff9fb
    110c:	07055a1b 	smladeq	r5, fp, sl, r5
        TaskHandle_t xReturn = NULL;
    1110:	0502042e 	streq	r0, [r2, #-1070]	@ 0xfffffbd2
        if( taskVALID_CORE_ID( xCoreID ) != pdFALSE )
    1114:	7eba0305 	cdpvc	3, 11, cr0, cr10, cr5, {0}
    1118:	4001054a 	andmi	r0, r1, sl, asr #10
    111c:	c6030104 	strgt	r0, [r3], -r4, lsl #2
                xReturn = pxCurrentTCB;
    1120:	05862001 	streq	r2, [r6, #1]
    1124:	01051505 	tsteq	r5, r5, lsl #10
    }
    1128:	22021d03 	andcs	r1, r2, #3, 26	@ 0xc0
    112c:	02042401 	andeq	r2, r4, #16777216	@ 0x1000000
    1130:	ec030505 	cfstr32	mvfx0, [r3], {5}
    1134:	01053c7d 	tsteq	r5, sp, ror ip
{
    1138:	05010498 	streq	r0, [r1, #-1176]	@ 0xfffffb68
    113c:	0295030d 	addseq	r0, r5, #872415232	@ 0x34000000
    uxReturn = listGET_LIST_ITEM_VALUE( &( pxCurrentTCB->xEventListItem ) );
    1140:	000b0520 	andeq	r0, fp, r0, lsr #10
    1144:	3c010402 	cfstrscc	mvf0, [r1], {2}
    listSET_LIST_ITEM_VALUE( &( pxCurrentTCB->xEventListItem ), ( ( TickType_t ) configMAX_PRIORITIES - ( TickType_t ) pxCurrentTCB->uxPriority ) );
    1148:	05340d05 	ldreq	r0, [r4, #-3333]!	@ 0xfffff2fb
    114c:	02042023 	andeq	r2, r4, #35	@ 0x23
    1150:	ff030505 			@ <UNDEFINED> instruction: 0xff030505
    1154:	0105587d 	tsteq	r5, sp, ror r8
}
    1158:	03010440 	movweq	r0, #5184	@ 0x1440
    115c:	03200285 			@ <UNDEFINED> instruction: 0x03200285
    1160:	057401e5 	ldrbeq	r0, [r4, #-485]!	@ 0xfffffe1b
    1164:	2e0b0305 	cdpcs	3, 0, cr0, cr11, cr5, {0}
    {
    1168:	05201f05 	streq	r1, [r0, #-3845]!	@ 0xfffff0fb
    116c:	28052f05 	stmdacs	r5, {r0, r2, r8, r9, sl, fp, sp}
    1170:	31050520 	tstcc	r5, r0, lsr #10
        BaseType_t xAlreadyYielded, xShouldBlock = pdFALSE;
    1174:	05201f05 	streq	r1, [r0, #-3845]!	@ 0xfffff0fb
        if( ( pxCurrentTCB->ulNotifiedValue[ uxIndexToWaitOn ] == 0U ) && ( xTicksToWait > ( TickType_t ) 0 ) )
    1178:	1f052f05 	svcne	0x00052f05
    117c:	2f010520 	svccs	0x00010520
    1180:	01000c02 	tsteq	r0, r2, lsl #24
    1184:	0001ac01 	andeq	sl, r1, r1, lsl #24
    1188:	c2000300 	andgt	r0, r0, #0, 6
    118c:	02000000 	andeq	r0, r0, #0
            vTaskSuspendAll();
    1190:	0d0efb01 	vstreq	d15, [lr, #-4]
                taskENTER_CRITICAL();
    1194:	01010100 	mrseq	r0, (UNDEF: 17)
                    if( pxCurrentTCB->ulNotifiedValue[ uxIndexToWaitOn ] == 0U )
    1198:	00000001 	andeq	r0, r0, r1
    119c:	01000001 	tsteq	r0, r1
    11a0:	462f2e2e 	strtmi	r2, [pc], -lr, lsr #28
    11a4:	52656572 	rsbpl	r6, r5, #478150656	@ 0x1c800000
    11a8:	2d534f54 	ldclcs	15, cr4, [r3, #-336]	@ 0xfffffeb0
                        pxCurrentTCB->ucNotifyState[ uxIndexToWaitOn ] = taskWAITING_NOTIFICATION;
    11ac:	6e72654b 	cdpvs	5, 7, cr6, cr2, cr11, {2}
    11b0:	2f006c65 	svccs	0x00006c65
    11b4:	2f727375 	svccs	0x00727375
                        xShouldBlock = pdTRUE;
    11b8:	2f62696c 	svccs	0x0062696c
                taskEXIT_CRITICAL();
    11bc:	2f636367 	svccs	0x00636367
                if( xShouldBlock == pdTRUE )
    11c0:	2d6d7261 	sfmcs	f7, 2, [sp, #-388]!	@ 0xfffffe7c
    11c4:	656e6f6e 	strbvs	r6, [lr, #-3950]!	@ 0xfffff092
                    prvAddCurrentTaskToDelayedList( xTicksToWait, pdTRUE );
    11c8:	6261652d 	rsbvs	r6, r1, #188743680	@ 0xb400000
    11cc:	33312f69 	teqcc	r1, #420	@ 0x1a4
            xAlreadyYielded = xTaskResumeAll();
    11d0:	312e322e 			@ <UNDEFINED> instruction: 0x312e322e
            if( ( xShouldBlock == pdTRUE ) && ( xAlreadyYielded == pdFALSE ) )
    11d4:	636e692f 	cmnvs	lr, #770048	@ 0xbc000
    11d8:	6564756c 	strbvs	r7, [r4, #-1388]!	@ 0xfffffa94
    11dc:	2f2e2e00 	svccs	0x002e2e00
                taskYIELD_WITHIN_API();
    11e0:	65657246 	strbvs	r7, [r5, #-582]!	@ 0xfffffdba
    11e4:	534f5452 	movtpl	r5, #62546	@ 0xf452
    11e8:	72654b2d 	rsbvc	r4, r5, #46080	@ 0xb400
    11ec:	2f6c656e 	svccs	0x006c656e
        taskENTER_CRITICAL();
    11f0:	74726f70 	ldrbtvc	r6, [r2], #-3952	@ 0xfffff090
            ulReturn = pxCurrentTCB->ulNotifiedValue[ uxIndexToWaitOn ];
    11f4:	656c6261 	strbvs	r6, [ip, #-609]!	@ 0xfffffd9f
    11f8:	4343472f 	movtmi	r4, #14127	@ 0x372f
    11fc:	4d52412f 	ldfmie	f4, [r2, #-188]	@ 0xffffff44
    1200:	334d435f 	movtcc	r4, #54111	@ 0xd35f
            if( ulReturn != 0U )
    1204:	2f2e2e00 	svccs	0x002e2e00
    1208:	65657246 	strbvs	r7, [r5, #-582]!	@ 0xfffffdba
                if( xClearCountOnExit != pdFALSE )
    120c:	534f5452 	movtpl	r5, #62546	@ 0xf452
                    pxCurrentTCB->ulNotifiedValue[ uxIndexToWaitOn ] = ( uint32_t ) 0U;
    1210:	72654b2d 	rsbvc	r4, r5, #46080	@ 0xb400
    1214:	2f6c656e 	svccs	0x006c656e
    1218:	6c636e69 	stclvs	14, cr6, [r3], #-420	@ 0xfffffe5c
    121c:	00656475 	rsbeq	r6, r5, r5, ror r4
    1220:	73696c00 	cmnvc	r9, #0, 24
                    pxCurrentTCB->ulNotifiedValue[ uxIndexToWaitOn ] = ulReturn - ( uint32_t ) 1;
    1224:	00632e74 	rsbeq	r2, r3, r4, ror lr
    1228:	73000001 	movwvc	r0, #1
    122c:	6e696474 	mcrvs	4, 3, r6, cr9, cr4, {3}
    1230:	00682e74 	rsbeq	r2, r8, r4, ror lr
            pxCurrentTCB->ucNotifyState[ uxIndexToWaitOn ] = taskNOT_WAITING_NOTIFICATION;
    1234:	70000002 	andvc	r0, r0, r2
    1238:	6d74726f 	lfmvs	f7, 2, [r4, #-444]!	@ 0xfffffe44
    123c:	6f726361 	svcvs	0x00726361
    1240:	0300682e 	movweq	r6, #2094	@ 0x82e
        taskEXIT_CRITICAL();
    1244:	696c0000 	stmdbvs	ip!, {}^	@ <UNPREDICTABLE>
    }
    1248:	682e7473 	stmdavs	lr!, {r0, r1, r4, r5, r6, sl, ip, sp, lr}
    124c:	00000400 	andeq	r0, r0, r0, lsl #8
    1250:	00010500 	andeq	r0, r1, r0, lsl #10
    1254:	22d40205 	sbcscs	r0, r4, #1342177280	@ 0x50000000
    {
    1258:	31030000 	mrscc	r0, (UNDEF: 3)
    125c:	50280501 	eorpl	r0, r8, r1, lsl #10
    1260:	053c1505 	ldreq	r1, [ip, #-1285]!	@ 0xfffffafb
    1264:	30053421 	andcc	r3, r5, r1, lsr #8
        BaseType_t xReturn, xAlreadyYielded, xShouldBlock = pdFALSE;
    1268:	3c1d054e 	cfldr32cc	mvfx0, [sp], {78}	@ 0x4e
        if( ( pxCurrentTCB->ucNotifyState[ uxIndexToWaitOn ] != taskNOTIFICATION_RECEIVED ) && ( xTicksToWait > ( TickType_t ) 0 ) )
    126c:	052f3405 	streq	r3, [pc, #-1029]!	@ e6f <vTaskRemoveFromUnorderedEventList+0x9b>
    1270:	1d053c21 	stcne	12, cr3, [r5, #-132]	@ 0xffffff7c
    1274:	052e0b03 	streq	r0, [lr, #-2819]!	@ 0xfffff4fd
    1278:	055c4401 	ldrbeq	r4, [ip, #-1025]	@ 0xfffffbff
    127c:	01054e19 	tsteq	r5, r9, lsl lr
    1280:	18055d44 	stmdane	r5, {r2, r6, r8, sl, fp, ip, lr}
            vTaskSuspendAll();
    1284:	031b0559 	tsteq	fp, #373293056	@ 0x16400000
                taskENTER_CRITICAL();
    1288:	28053c0d 	stmdacs	r5, {r0, r2, r3, sl, fp, ip, sp}
                    if( pxCurrentTCB->ucNotifyState[ uxIndexToWaitOn ] != taskNOTIFICATION_RECEIVED )
    128c:	2e1f053d 	mrccs	5, 0, r0, cr15, cr13, {1}
    1290:	05330c05 	ldreq	r0, [r3, #-3077]!	@ 0xfffff3fb
    1294:	19052e21 	stmdbne	r5, {r0, r5, r9, sl, fp, sp}
    1298:	3f20052f 	svccc	0x0020052f
                        pxCurrentTCB->ulNotifiedValue[ uxIndexToWaitOn ] &= ~ulBitsToClearOnEntry;
    129c:	053e3b05 	ldreq	r3, [lr, #-2821]!	@ 0xfffff4fb
    12a0:	21052e23 	tstcs	r5, r3, lsr #28
    12a4:	31010520 	tstcc	r1, r0, lsr #10
    12a8:	5a16055d 	bpl	582824 <_edata+0x5803d4>
    12ac:	12030705 	andne	r0, r3, #1310720	@ 0x140000
    12b0:	4c14053c 	cfldr32mi	mvfx0, [r4], {60}	@ 0x3c
    12b4:	1d031905 	vstrne.16	s2, [r3, #-10]	@ <UNPREDICTABLE>
    12b8:	3c09054a 	cfstr32cc	mvfx0, [r9], {74}	@ 0x4a
                        pxCurrentTCB->ucNotifyState[ uxIndexToWaitOn ] = taskWAITING_NOTIFICATION;
    12bc:	00018305 	andeq	r8, r1, r5, lsl #6
    12c0:	20030402 	andcs	r0, r3, r2, lsl #8
    12c4:	02004d05 	andeq	r4, r0, #320	@ 0x140
                        xShouldBlock = pdTRUE;
    12c8:	053c0104 	ldreq	r0, [ip, #-260]!	@ 0xfffffefc
                taskEXIT_CRITICAL();
    12cc:	04020055 	streq	r0, [r2], #-85	@ 0xffffffab
                if( xShouldBlock == pdTRUE )
    12d0:	62052e01 	andvs	r2, r5, #1, 28
    12d4:	01040200 	mrseq	r0, R12_usr
                    prvAddCurrentTaskToDelayedList( xTicksToWait, pdTRUE );
    12d8:	03270520 			@ <UNDEFINED> instruction: 0x03270520
    12dc:	1b053c09 	blne	150308 <_edata+0x14deb8>
            xAlreadyYielded = xTaskResumeAll();
    12e0:	2f12052e 	svccs	0x0012052e
            if( ( xShouldBlock == pdTRUE ) && ( xAlreadyYielded == pdFALSE ) )
    12e4:	052e2705 	streq	r2, [lr, #-1797]!	@ 0xfffff8fb
    12e8:	18052f1f 	stmdane	r5, {r0, r1, r2, r3, r4, r8, r9, sl, fp, sp}
    12ec:	4020053d 	eormi	r0, r0, sp, lsr r5
                taskYIELD_WITHIN_API();
    12f0:	053e3b05 	ldreq	r3, [lr, #-2821]!	@ 0xfffff4fb
    12f4:	21052e23 	tstcs	r5, r3, lsr #28
    12f8:	31010520 	tstcc	r1, r0, lsr #10
    12fc:	4d14055d 	cfldr32mi	mvfx0, [r4, #-372]	@ 0xfffffe8c
        taskENTER_CRITICAL();
    1300:	05401305 	strbeq	r1, [r0, #-773]	@ 0xfffffcfb
            if( pulNotificationValue != NULL )
    1304:	28052e38 	stmdacs	r5, {r3, r4, r5, r9, sl, fp, sp}
    1308:	2113052e 	tstcs	r3, lr, lsr #10
                *pulNotificationValue = pxCurrentTCB->ulNotifiedValue[ uxIndexToWaitOn ];
    130c:	052e3805 	streq	r3, [lr, #-2053]!	@ 0xfffff7fb
    1310:	0f052e28 	svceq	0x00052e28
    1314:	2e070526 	cfsh32cs	mvfx0, mvfx7, #22
    1318:	053e2905 	ldreq	r2, [lr, #-2309]!	@ 0xfffff6fb
            if( pxCurrentTCB->ucNotifyState[ uxIndexToWaitOn ] != taskNOTIFICATION_RECEIVED )
    131c:	21052e19 	tstcs	r5, r9, lsl lr
    1320:	3d3b0535 	cfldr32cc	mvfx0, [fp, #-212]!	@ 0xffffff2c
    1324:	052e2305 	streq	r2, [lr, #-773]!	@ 0xfffffcfb
    1328:	12052021 	andne	r2, r5, #33	@ 0x21
    132c:	2f010532 	svccs	0x00010532
                xReturn = pdFALSE;
    1330:	01000502 	tsteq	r0, r2, lsl #10
                pxCurrentTCB->ulNotifiedValue[ uxIndexToWaitOn ] &= ~ulBitsToClearOnExit;
    1334:	Address 0x1334 is out of bounds.


Disassembly of section .debug_info:

00000000 <.debug_info>:
       0:	00000022 	andeq	r0, r0, r2, lsr #32
       4:	00000002 	andeq	r0, r0, r2
       8:	01040000 	mrseq	r0, (UNDEF: 4)
       c:	00000000 	andeq	r0, r0, r0
      10:	00000198 	muleq	r0, r8, r1
      14:	0000019c 	muleq	r0, ip, r1
      18:	00000000 	andeq	r0, r0, r0
      1c:	00000007 	andeq	r0, r0, r7
      20:	00000025 	andeq	r0, r0, r5, lsr #32
      24:	02118001 	andseq	r8, r1, #1
      28:	00050000 	andeq	r0, r5, r0
      2c:	00140401 	andseq	r0, r4, r1, lsl #8
      30:	47090000 	strmi	r0, [r9, -r0]
      34:	1d000000 	stcne	0, cr0, [r0, #-0]
      38:	0000018e 	andeq	r0, r0, lr, lsl #3
      3c:	00000007 	andeq	r0, r0, r7
      40:	0000019c 	muleq	r0, ip, r1
      44:	000000c8 	andeq	r0, r0, r8, asr #1
      48:	00000034 	andeq	r0, r0, r4, lsr r0
      4c:	6905040a 	stmdbvs	r5, {r1, r3, sl}
      50:	0b00746e 	bleq	1d210 <_edata+0x1adc0>
      54:	00000026 	andeq	r0, r0, r6, lsr #32
      58:	27070401 	strcs	r0, [r7, -r1, lsl #8]
      5c:	01000001 	tsteq	r0, r1
      60:	00bf0508 	adcseq	r0, pc, r8, lsl #10
      64:	08010000 	stmdaeq	r1, {}	@ <UNPREDICTABLE>
      68:	0000fb04 	andeq	pc, r0, r4, lsl #22
      6c:	06010100 	streq	r0, [r1], -r0, lsl #2
      70:	00000111 	andeq	r0, r0, r1, lsl r1
      74:	9a050201 	bls	140880 <_edata+0x13e430>
      78:	01000000 	mrseq	r0, (UNDEF: 0)
      7c:	00c40504 	sbceq	r0, r4, r4, lsl #10
      80:	01010000 	mrseq	r0, (UNDEF: 1)
      84:	00010f08 	andeq	r0, r1, r8, lsl #30
      88:	07020100 	streq	r0, [r2, -r0, lsl #2]
      8c:	00000157 	andeq	r0, r0, r7, asr r1
      90:	00013403 	andeq	r3, r1, r3, lsl #8
      94:	19340200 	ldmdbne	r4!, {r9}
      98:	00000076 	andeq	r0, r0, r6, ror r0
      9c:	22070401 	andcs	r0, r7, #16777216	@ 0x1000000
      a0:	01000001 	tsteq	r0, r1
      a4:	011d0708 	tsteq	sp, r8, lsl #14
      a8:	38030000 	stmdacc	r3, {}	@ <UNPREDICTABLE>
      ac:	03000000 	movweq	r0, #0
      b0:	00901124 	addseq	r1, r0, r4, lsr #2
      b4:	95040000 	strls	r0, [r4, #-0]
      b8:	0c000000 	stceq	0, cr0, [r0], {-0}
      bc:	000000a0 	andeq	r0, r0, r0, lsr #1
      c0:	0000a002 	andeq	sl, r0, r2
      c4:	040d0000 	streq	r0, [sp], #-0
      c8:	0000a005 	andeq	sl, r0, r5
      cc:	01820300 	orreq	r0, r2, r0, lsl #6
      d0:	3a040000 	bcc	1000d8 <_edata+0xfdc88>
      d4:	00006a1a 	andeq	r6, r0, sl, lsl sl
      d8:	00a70500 	adceq	r0, r7, r0, lsl #10
      dc:	77030000 	strvc	r0, [r3, -r0]
      e0:	04000001 	streq	r0, [r0], #-1
      e4:	00551a3b 	subseq	r1, r5, fp, lsr sl
      e8:	76030000 	strvc	r0, [r3], -r0
      ec:	04000001 	streq	r0, [r0], #-1
      f0:	00761a3c 	rsbseq	r1, r6, ip, lsr sl
      f4:	a4030000 	strge	r0, [r3], #-0
      f8:	05000000 	streq	r0, [r0, #-0]
      fc:	00dc2e5f 	sbcseq	r2, ip, pc, asr lr
     100:	e1040000 	mrs	r0, (UNDEF: 4)
     104:	0e000000 	cdpeq	0, 0, cr0, cr0, cr0, {0}
     108:	000000e7 	andeq	r0, r0, r7, ror #1
     10c:	0000f704 	andeq	pc, r0, r4, lsl #14
     110:	00e60500 	rsceq	r0, r6, r0, lsl #10
     114:	01010000 	mrseq	r0, (UNDEF: 1)
     118:	00011808 	andeq	r1, r1, r8, lsl #16
     11c:	00f00500 	rscseq	r0, r0, r0, lsl #10
     120:	31060000 	mrscc	r0, (UNDEF: 6)
     124:	1b000000 	blne	12c <_stext+0x12c>
     128:	0000006a 	andeq	r0, r0, sl, rrx
     12c:	0000b106 	andeq	fp, r0, r6, lsl #2
     130:	006a1c00 	rsbeq	r1, sl, r0, lsl #24
     134:	07060000 	streq	r0, [r6, -r0]
     138:	1d000001 	stcne	0, cr0, [r0, #-4]
     13c:	0000006a 	andeq	r0, r0, sl, rrx
     140:	00019606 	andeq	r9, r1, r6, lsl #12
     144:	006a1e00 	rsbeq	r1, sl, r0, lsl #28
     148:	cd060000 	stcgt	0, cr0, [r6, #-0]
     14c:	1f000000 	svcne	0x00000000
     150:	0000006a 	andeq	r0, r0, sl, rrx
     154:	0000d30f 	andeq	sp, r0, pc, lsl #6
     158:	05ef0500 	strbeq	r0, [pc, #1280]!	@ 660 <vTaskSuspendAll+0x14>
     15c:	016a1006 	cmneq	sl, r6
     160:	81050000 	mrshi	r0, (UNDEF: 5)
     164:	00b81001 	adcseq	r1, r8, r1
     168:	01670000 	cmneq	r7, r0
     16c:	84020000 	strhi	r0, [r2], #-0
     170:	02000000 	andeq	r0, r0, #0
     174:	000000eb 	andeq	r0, r0, fp, ror #1
     178:	0000b302 	andeq	fp, r0, r2, lsl #6
     17c:	00a20200 	adceq	r0, r2, r0, lsl #4
     180:	c4020000 	strgt	r0, [r2], #-0
     184:	02000000 	andeq	r0, r0, #0
     188:	0000016c 	andeq	r0, r0, ip, ror #2
     18c:	00d00400 	sbcseq	r0, r0, r0, lsl #8
     190:	67050000 	strvs	r0, [r5, -r0]
     194:	11000001 	tstne	r0, r1
     198:	00000151 	andeq	r0, r0, r1, asr r1
static void vTask1(void *pvParameters){
     19c:	c4062101 	strgt	r2, [r6], #-257	@ 0xfffffeff
     1a0:	a0000001 	andge	r0, r0, r1
    volatile int a = 0;
     1a4:	01000000 	mrseq	r0, (UNDEF: 0)
        a++;
     1a8:	0001b39c 	muleq	r1, ip, r3
     1ac:	074a1200 	strbeq	r1, [sl, -r0, lsl #4]
static void vTask2(void *pvParameters){
     1b0:	23010000 	movwcs	r0, #4096	@ 0x1000
     1b4:	0000b810 	andeq	fp, r0, r0, lsl r8
    volatile int b = 0;
     1b8:	6c910200 	lfmvs	f0, 4, [r1], {0}
        b++;
     1bc:	63727307 	cmnvs	r2, #469762048	@ 0x1c000000
     1c0:	b30f2500 	movwlt	r2, #62720	@ 0xf500
void start(){//<<=== 1. jumping here from boot.S reset_handler: is fine but jumping to function sachin() gives HardFault crash.
     1c4:	02000001 	andeq	r0, r0, #1
     1c8:	64077491 	strvs	r7, [r7], #-1169	@ 0xfffffb6f
    uint32_t *src = &_sidata; // source(flash)
     1cc:	26007473 			@ <UNDEFINED> instruction: 0x26007473
    uint32_t *dst = &_sdata; // Destination RAM
     1d0:	0001b30f 	andeq	fp, r1, pc, lsl #6
        *dst++ = *src++; // copy word and increment pointer
     1d4:	70910200 	addsvc	r0, r1, r0, lsl #4
     1d8:	006a0400 	rsbeq	r0, sl, r0, lsl #8
     1dc:	b8130000 	ldmdalt	r3, {}	@ <UNPREDICTABLE>
     1e0:	01000000 	mrseq	r0, (UNDEF: 0)
    while(dst < &_edata){
     1e4:	01b00d14 	lslseq	r0, r4, sp
     1e8:	00140000 	andseq	r0, r4, r0
    dst = &_sbss;
     1ec:	9c010000 	stcls	0, cr0, [r1], {-0}
    while(dst < &_ebss){
     1f0:	000001e8 	andeq	r0, r0, r8, ror #3
        *dst++ = 0; // zero word and increment pointer
     1f4:	00014408 	andeq	r4, r1, r8, lsl #8
     1f8:	00a01400 	adceq	r1, r0, r0, lsl #8
    while(dst < &_ebss){
     1fc:	91020000 	mrsls	r0, (UNDEF: 2)
     200:	0062076c 	rsbeq	r0, r2, ip, ror #14
    xReturn = xTaskCreate(vTask1, "T1",configMINIMAL_STACK_SIZE,NULL,1,NULL);//
     204:	002d1215 	eoreq	r1, sp, r5, lsl r2
     208:	91020000 	mrsls	r0, (UNDEF: 2)
     20c:	3d140074 	ldccc	0, cr0, [r4, #-464]	@ 0xfffffe30
     210:	01000001 	tsteq	r0, r1
     214:	019c0d0e 	orrseq	r0, ip, lr, lsl #26
     218:	00140000 	andseq	r0, r4, r0
    xReturn = xTaskCreate(vTask2, "T2",configMINIMAL_STACK_SIZE,NULL,1,NULL);//getting xReturn as -1 debug and foumd memory allocation was failing , few global variables were not holding changed values from heap_4.c files ..... => because .data section is nod defined in .ld script, only .text section is there.
     21c:	9c010000 	stcls	0, cr0, [r1], {-0}
     220:	00014408 	andeq	r4, r1, r8, lsl #8
     224:	00a00e00 	adceq	r0, r0, r0, lsl #28
     228:	91020000 	mrsls	r0, (UNDEF: 2)
     22c:	0061076c 	rsbeq	r0, r1, ip, ror #14
     230:	002d120f 	eoreq	r1, sp, pc, lsl #4
    vTaskStartScheduler();// if only this call then cpu lockup nothing to execute so does hardfault.
     234:	91020000 	mrsls	r0, (UNDEF: 2)
    return;
     238:	f6000074 			@ <UNDEFINED> instruction: 0xf6000074
}
     23c:	05000015 	streq	r0, [r0, #-21]	@ 0xffffffeb
     240:	43040100 	movwmi	r0, #16640	@ 0x4100
     244:	24000001 	strcs	r0, [r0], #-1
     248:	00000047 	andeq	r0, r0, r7, asr #32
     24c:	0008021d 	andeq	r0, r8, sp, lsl r2
     250:	00000700 	andeq	r0, r0, r0, lsl #14
     254:	00026400 	andeq	r6, r2, r0, lsl #8
     258:	0018ec00 	andseq	lr, r8, r0, lsl #24
     25c:	00015d00 	andeq	r5, r1, r0, lsl #26
     260:	05430700 	strbeq	r0, [r3, #-1792]	@ 0xfffff900
    {
     264:	d6030000 	strle	r0, [r3], -r0
     268:	00003217 	andeq	r3, r0, r7, lsl r2
     26c:	07040a00 	streq	r0, [r4, -r0, lsl #20]
     270:	00000127 	andeq	r0, r0, r7, lsr #2
            pxStack = pvPortMallocStack( ( ( ( size_t ) uxStackDepth ) * sizeof( StackType_t ) ) );
     274:	69050425 	stmdbvs	r5, {r0, r2, r5, sl}
     278:	0a00746e 	beq	1d438 <_edata+0x1afe8>
     27c:	00bf0508 	adcseq	r0, pc, r8, lsl #10
            if( pxStack != NULL )
     280:	080a0000 	stmdaeq	sl, {}	@ <UNPREDICTABLE>
                pxNewTCB = ( TCB_t * ) pvPortMalloc( sizeof( TCB_t ) );
     284:	0000fb04 	andeq	pc, r0, r4, lsl #22
     288:	06010a00 	streq	r0, [r1], -r0, lsl #20
                if( pxNewTCB != NULL )
     28c:	00000111 	andeq	r0, r0, r1, lsl r1
     290:	0f08010a 	svceq	0x0008010a
                    ( void ) memset( ( void * ) pxNewTCB, 0x00, sizeof( TCB_t ) );
     294:	0a000001 	beq	2a0 <prvCreateTask+0x3c>
     298:	009a0502 	addseq	r0, sl, r2, lsl #10
                    pxNewTCB->pxStack = pxStack;
     29c:	020a0000 	andeq	r0, sl, #0
     2a0:	00015707 	andeq	r5, r1, r7, lsl #14
                    vPortFreeStack( pxStack );
     2a4:	05040a00 	streq	r0, [r4, #-2560]	@ 0xfffff600
     2a8:	000000c4 	andeq	r0, r0, r4, asr #1
                pxNewTCB = NULL;
     2ac:	2207040a 	andcs	r0, r7, #167772160	@ 0xa000000
        if( pxNewTCB != NULL )
     2b0:	0a000001 	beq	2bc <prvCreateTask+0x58>
     2b4:	011d0708 	tsteq	sp, r8, lsl #14
            prvInitialiseNewTask( pxTaskCode, pcName, uxStackDepth, pvParameters, uxPriority, pxCreatedTask, pxNewTCB, NULL );
     2b8:	04260000 	strteq	r0, [r6], #-0
     2bc:	00007f05 	andeq	r7, r0, r5, lsl #30
     2c0:	008b0400 	addeq	r0, fp, r0, lsl #8
     2c4:	010a0000 	mrseq	r0, (UNDEF: 10)
     2c8:	00011808 	andeq	r1, r1, r8, lsl #16
     2cc:	008b0500 	addeq	r0, fp, r0, lsl #10
     2d0:	92040000 	andls	r0, r4, #0
    }
     2d4:	05000000 	streq	r0, [r0, #-0]
     2d8:	00000097 	muleq	r0, r7, r0
    {
     2dc:	0006be07 	andeq	fp, r6, r7, lsl #28
     2e0:	182e0400 	stmdane	lr!, {sl}
     2e4:	00000055 	andeq	r0, r0, r5, asr r0
     2e8:	0000a10b 	andeq	sl, r0, fp, lsl #2
        pxNewTCB = prvCreateTask( pxTaskCode, pcName, uxStackDepth, pvParameters, uxPriority, pxCreatedTask );
     2ec:	01340700 	teqeq	r4, r0, lsl #14
     2f0:	34040000 	strcc	r0, [r4], #-0
     2f4:	00007119 	andeq	r7, r0, r9, lsl r1
     2f8:	00b20b00 	adcseq	r0, r2, r0, lsl #22
     2fc:	38070000 	stmdacc	r7, {}	@ <UNPREDICTABLE>
        if( pxNewTCB != NULL )
     300:	05000000 	streq	r0, [r0, #-0]
     304:	00cf1124 	sbceq	r1, pc, r4, lsr #2
            prvAddNewTaskToReadyList( pxNewTCB );
     308:	d4040000 	strle	r0, [r4], #-0
            xReturn = pdPASS;
     30c:	27000000 	strcs	r0, [r0, -r0]
     310:	000000df 	ldrdeq	r0, [r0], -pc	@ <UNPREDICTABLE>
            xReturn = errCOULD_NOT_ALLOCATE_REQUIRED_MEMORY;
     314:	00007f08 	andeq	r7, r0, r8, lsl #30
        return xReturn;
     318:	82070000 	andhi	r0, r7, #0
    }
     31c:	02000001 	andeq	r0, r0, #1
     320:	00b21a3a 	adcseq	r1, r2, sl, lsr sl
{
     324:	df0b0000 	svcle	0x000b0000
     328:	05000000 	streq	r0, [r0, #-0]
     32c:	000000df 	ldrdeq	r0, [r0], -pc	@ <UNPREDICTABLE>
        pxTopOfStack = &( pxNewTCB->pxStack[ uxStackDepth - ( configSTACK_DEPTH_TYPE ) 1 ] );
     330:	00017707 	andeq	r7, r1, r7, lsl #14
     334:	1a3b0200 	bne	ec0b3c <_edata+0xebe6ec>
     338:	0000006a 	andeq	r0, r0, sl, rrx
     33c:	0000f50b 	andeq	pc, r0, fp, lsl #10
     340:	00f50500 	rscseq	r0, r5, r0, lsl #10
        pxTopOfStack = ( StackType_t * ) ( ( ( portPOINTER_SIZE_TYPE ) pxTopOfStack ) & ( ~( ( portPOINTER_SIZE_TYPE ) portBYTE_ALIGNMENT_MASK ) ) );
     344:	76070000 	strvc	r0, [r7], -r0
     348:	02000001 	andeq	r0, r0, #1
    if( pcName != NULL )
     34c:	00711a3c 	rsbseq	r1, r1, ip, lsr sl
        for( x = ( UBaseType_t ) 0; x < ( UBaseType_t ) configMAX_TASK_NAME_LEN; x++ )
     350:	0b0b0000 	bleq	2c0358 <_edata+0x2bdf08>
     354:	05000001 	streq	r0, [r0, #-1]
            pxNewTCB->pcTaskName[ x ] = pcName[ x ];
     358:	00000117 	andeq	r0, r0, r7, lsl r1
     35c:	0008a807 	andeq	sl, r8, r7, lsl #16
     360:	1a420200 	bne	1080b68 <_edata+0x107e718>
     364:	000000b2 	strheq	r0, [r0], -r2
     368:	0001210b 	andeq	r2, r1, fp, lsl #2
            if( pcName[ x ] == ( char ) 0x00 )
     36c:	01210500 			@ <UNDEFINED> instruction: 0x01210500
     370:	b8120000 	ldmdalt	r2, {}	@ <UNPREDICTABLE>
     374:	14000002 	strne	r0, [r0], #-2
        for( x = ( UBaseType_t ) 0; x < ( UBaseType_t ) configMAX_TASK_NAME_LEN; x++ )
     378:	86089006 	strhi	r9, [r8], -r6
     37c:	06000001 	streq	r0, [r0], -r1
     380:	0000095b 	andeq	r0, r0, fp, asr r9
                break;
     384:	21249306 			@ <UNDEFINED> instruction: 0x21249306
        pxNewTCB->pcTaskName[ configMAX_TASK_NAME_LEN - 1U ] = '\0';
     388:	00000001 	andeq	r0, r0, r1
     38c:	0007cd06 	andeq	ip, r7, r6, lsl #26
    if( uxPriority >= ( UBaseType_t ) configMAX_PRIORITIES )
     390:	2d940600 	ldccs	6, cr0, [r4]
        uxPriority = ( UBaseType_t ) configMAX_PRIORITIES - ( UBaseType_t ) 1U;
     394:	00000186 	andeq	r0, r0, r6, lsl #3
    pxNewTCB->uxPriority = uxPriority;
     398:	04e40604 	strbteq	r0, [r4], #1540	@ 0x604
     39c:	95060000 	strls	r0, [r6, #-0]
    vListInitialiseItem( &( pxNewTCB->xStateListItem ) );
     3a0:	0001862d 	andeq	r8, r1, sp, lsr #12
     3a4:	ce060800 	cdpgt	8, 0, cr0, cr6, cr0, {0}
    vListInitialiseItem( &( pxNewTCB->xEventListItem ) );
     3a8:	0600000a 	streq	r0, [r0], -sl
     3ac:	007f0c96 			@ <UNDEFINED> instruction: 0x007f0c96
     3b0:	060c0000 	streq	r0, [ip], -r0
    listSET_LIST_ITEM_OWNER( &( pxNewTCB->xStateListItem ), pxNewTCB );
     3b4:	00000902 	andeq	r0, r0, r2, lsl #18
    listSET_LIST_ITEM_VALUE( &( pxNewTCB->xEventListItem ), ( TickType_t ) configMAX_PRIORITIES - ( TickType_t ) uxPriority );
     3b8:	c0289706 	eorgt	r9, r8, r6, lsl #14
     3bc:	10000001 	andne	r0, r0, r1
     3c0:	01370400 	teqeq	r7, r0, lsl #8
    listSET_LIST_ITEM_OWNER( &( pxNewTCB->xEventListItem ), pxNewTCB );
     3c4:	70120000 	andsvc	r0, r2, r0
            pxNewTCB->pxTopOfStack = pxPortInitialiseStack( pxTopOfStack, pxTaskCode, pvParameters );
     3c8:	14000005 	strne	r0, [r0], #-5
     3cc:	c010ac06 	andsgt	sl, r0, r6, lsl #24
     3d0:	06000001 	streq	r0, [r0], -r1
     3d4:	000001af 	andeq	r0, r0, pc, lsr #3
    if( pxCreatedTask != NULL )
     3d8:	0b25af06 	bleq	96bff8 <_edata+0x969ba8>
     3dc:	00000001 	andeq	r0, r0, r1
        *pxCreatedTask = ( TaskHandle_t ) pxNewTCB;
     3e0:	00028a06 	andeq	r8, r2, r6, lsl #20
}
     3e4:	26b00600 	ldrtcs	r0, [r0], r0, lsl #12
     3e8:	00000212 	andeq	r0, r0, r2, lsl r2
    {
     3ec:	06750604 	ldrbteq	r0, [r5], -r4, lsl #12
     3f0:	b1060000 	mrslt	r0, (UNDEF: 6)
        taskENTER_CRITICAL();
     3f4:	00020614 	andeq	r0, r2, r4, lsl r6
            uxCurrentNumberOfTasks = ( UBaseType_t ) ( uxCurrentNumberOfTasks + 1U );
     3f8:	04000800 	streq	r0, [r0], #-2048	@ 0xfffff800
     3fc:	0000018b 	andeq	r0, r0, fp, lsl #3
     400:	00069a07 	andeq	r9, r6, r7, lsl #20
            if( pxCurrentTCB == NULL )
     404:	1b9a0600 	blne	fe681c0c <__StackTop+0xde67fc0c>
     408:	00000137 	andeq	r0, r0, r7, lsr r1
                pxCurrentTCB = pxNewTCB;
     40c:	00055512 	andeq	r5, r5, r2, lsl r5
                if( uxCurrentNumberOfTasks == ( UBaseType_t ) 1 )
     410:	9d060c00 	stcls	12, cr0, [r6, #-0]
     414:	0002060c 	andeq	r0, r2, ip, lsl #12
                    prvInitialiseTaskLists();
     418:	095b0600 	ldmdbeq	fp, {r9, sl}^
     41c:	a0060000 	andge	r0, r6, r0
                if( xSchedulerRunning == pdFALSE )
     420:	00012128 	andeq	r2, r1, r8, lsr #2
     424:	cd060000 	stcgt	0, cr0, [r6, #-0]
                    if( pxCurrentTCB->uxPriority <= pxNewTCB->uxPriority )
     428:	06000007 	streq	r0, [r0], -r7
     42c:	018631a1 	orreq	r3, r6, r1, lsr #3
     430:	06040000 	streq	r0, [r4], -r0
                        pxCurrentTCB = pxNewTCB;
     434:	000004e4 	andeq	r0, r0, r4, ror #9
     438:	8631a206 	ldrthi	sl, [r1], -r6, lsl #4
            uxTaskNumber++;
     43c:	08000001 	stmdaeq	r0, {r0}
     440:	06960700 	ldreq	r0, [r6], r0, lsl #14
            prvAddTaskToReadyList( pxNewTCB );
     444:	a4060000 	strge	r0, [r6], #-0
     448:	0001d124 	andeq	sp, r1, r4, lsr #2
     44c:	01c50400 	biceq	r0, r5, r0, lsl #8
     450:	12050000 	andne	r0, r5, #0
     454:	07000002 	streq	r0, [r0, -r2]
     458:	00000894 	muleq	r0, r4, r8
     45c:	8b03b306 	blhi	ed07c <_edata+0xeac2c>
     460:	05000001 	streq	r0, [r0, #-1]
     464:	0000021c 	andeq	r0, r0, ip, lsl r2
     468:	0000a407 	andeq	sl, r0, r7, lsl #8
     46c:	2e5f0700 	cdpcs	7, 5, cr0, cr15, cr0, {0}
     470:	00000239 	andeq	r0, r0, r9, lsr r2
     474:	00023e04 	andeq	r3, r2, r4, lsl #28
     478:	00e72800 	rsceq	r2, r7, r0, lsl #16
     47c:	014c0000 	mrseq	r0, (UNDEF: 76)
     480:	b5100176 	ldrlt	r0, [r0, #-374]	@ 0xfffffe8a
     484:	0d000002 	stceq	0, cr0, [r0, #-8]
     488:	00000be0 	andeq	r0, r0, r0, ror #23
     48c:	6d1c0178 	ldfvss	f0, [ip, #-480]	@ 0xfffffe20
     490:	00000003 	andeq	r0, r0, r3
     494:	000b990d 	andeq	r9, fp, sp, lsl #18
     498:	10018200 	andne	r8, r1, r0, lsl #4
     49c:	000001c5 	andeq	r0, r0, r5, asr #3
     4a0:	0b010d04 	bleq	438b8 <_edata+0x41468>
     4a4:	01830000 	orreq	r0, r3, r0
     4a8:	0001c510 	andeq	ip, r1, r0, lsl r5
     4ac:	e50d1800 	str	r1, [sp, #-2048]	@ 0xfffff800
     4b0:	84000001 	strhi	r0, [r0], #-1
     4b4:	010b1101 	tsteq	fp, r1, lsl #2
     4b8:	0d2c0000 	stceq	0, cr0, [ip, #-0]
     4bc:	00000997 	muleq	r0, r7, r9
     4c0:	68130185 	ldmdavs	r3, {r0, r2, r7, r8}
     4c4:	30000003 	andcc	r0, r0, r3
        taskEXIT_CRITICAL();
     4c8:	0001a40d 	andeq	sl, r1, sp, lsl #8
        if( xSchedulerRunning != pdFALSE )
     4cc:	0a018a00 	beq	62cd4 <_edata+0x60884>
     4d0:	00000372 	andeq	r0, r0, r2, ror r3
            taskYIELD_ANY_CORE_IF_USING_PREEMPTION( pxNewTCB );
     4d4:	05e00d34 	strbeq	r0, [r0, #3380]!	@ 0xd34
     4d8:	01b30000 			@ <UNDEFINED> instruction: 0x01b30000
     4dc:	0003921b 	andeq	r9, r3, fp, lsl r2
     4e0:	e70d4400 	str	r4, [sp, -r0, lsl #8]
     4e4:	b4000003 	strlt	r0, [r0], #-3
     4e8:	03a71a01 			@ <UNDEFINED> instruction: 0x03a71a01
     4ec:	00480000 	subeq	r0, r8, r0
    }
     4f0:	55010729 	strpl	r0, [r1, #-1833]	@ 0xfffff8d7
     4f4:	07000000 	streq	r0, [r0, -r0]
     4f8:	02e20175 	rsceq	r0, r2, #1073741853	@ 0x4000001d
     4fc:	41130000 	tstmi	r3, r0
     500:	00000002 	andeq	r0, r0, r2
     504:	0008c713 	andeq	ip, r8, r3, lsl r7
     508:	4a130100 	bmi	4c0910 <_edata+0x4be4c0>
     50c:	02000005 	andeq	r0, r0, #5
     510:	00046313 	andeq	r6, r4, r3, lsl r3
{
     514:	2b130300 	blcs	4c111c <_edata+0x4beccc>
     518:	04000006 	streq	r0, [r0], #-6
    BaseType_t xReturn = pdPASS;
     51c:	05350700 	ldreq	r0, [r5, #-1792]!	@ 0xfffff900
    char cIdleName[ configMAX_TASK_NAME_LEN ] = { 0 };
     520:	7b070000 	blvc	1c0528 <_edata+0x1be0d8>
     524:	0002b503 	andeq	fp, r2, r3, lsl #10
     528:	02921200 	addseq	r1, r2, #0, 4
    TaskFunction_t pxIdleTaskFunction = NULL;
     52c:	07080000 	streq	r0, [r8, -r0]
    for( xIdleTaskNameIndex = 0U; xIdleTaskNameIndex < ( configMAX_TASK_NAME_LEN - taskRESERVED_TASK_NAME_LENGTH ); xIdleTaskNameIndex++ )
     530:	03161080 	tsteq	r6, #128	@ 0x80
        cIdleName[ xIdleTaskNameIndex ] = configIDLE_TASK_NAME[ xIdleTaskNameIndex ];
     534:	69060000 	stmdbvs	r6, {}	@ <UNPREDICTABLE>
     538:	07000003 	streq	r0, [r0, -r3]
     53c:	00f51082 	rscseq	r1, r5, r2, lsl #1
     540:	06000000 	streq	r0, [r0], -r0
     544:	000007bd 			@ <UNDEFINED> instruction: 0x000007bd
        if( cIdleName[ xIdleTaskNameIndex ] == ( char ) 0x00 )
     548:	21108307 	tstcs	r0, r7, lsl #6
     54c:	04000001 	streq	r0, [r0], #-1
     550:	082f0700 	stmdaeq	pc!, {r8, r9, sl}	@ <UNPREDICTABLE>
    for( xIdleTaskNameIndex = 0U; xIdleTaskNameIndex < ( configMAX_TASK_NAME_LEN - taskRESERVED_TASK_NAME_LENGTH ); xIdleTaskNameIndex++ )
     554:	84070000 	strhi	r0, [r7], #-0
     558:	0002ee03 	andeq	lr, r2, r3, lsl #28
     55c:	08d01200 	ldmeq	r0, {r9, ip}^
            break;
     560:	070c0000 	streq	r0, [ip, -r0]
    cIdleName[ xIdleTaskNameIndex ] = '\0';
     564:	03571089 	cmpeq	r7, #137	@ 0x89
     568:	45060000 	strmi	r0, [r6, #-0]
    for( xCoreID = ( BaseType_t ) 0; xCoreID < ( BaseType_t ) configNUMBER_OF_CORES; xCoreID++ )
     56c:	0700000a 	streq	r0, [r0, -sl]
     570:	007f0c8b 	rsbseq	r0, pc, fp, lsl #25
            pxIdleTaskFunction = &prvIdleTask;
     574:	06000000 	streq	r0, [r0], -r0
            xReturn = xTaskCreate( pxIdleTaskFunction,
     578:	00000791 	muleq	r0, r1, r7
     57c:	b20e8c07 	andlt	r8, lr, #1792	@ 0x700
     580:	04000000 	streq	r0, [r0], #-0
     584:	0003ad06 	andeq	sl, r3, r6, lsl #26
     588:	0e8d0700 	cdpeq	7, 8, cr0, cr13, cr0, {0}
     58c:	000000b2 	strheq	r0, [r0], -r2
     590:	fc070008 	stc2	0, cr0, [r7], {8}
        if( xReturn != pdPASS )
     594:	07000006 	streq	r0, [r0, -r6]
     598:	0322038e 			@ <UNDEFINED> instruction: 0x0322038e
    for( xCoreID = ( BaseType_t ) 0; xCoreID < ( BaseType_t ) configNUMBER_OF_CORES; xCoreID++ )
     59c:	57050000 	strpl	r0, [r5, -r0]
     5a0:	04000003 	streq	r0, [r0], #-3
     5a4:	000000df 	ldrdeq	r0, [r0], -pc	@ <UNPREDICTABLE>
            break;
     5a8:	0000eb04 	andeq	lr, r0, r4, lsl #22
}
     5ac:	008b1000 	addeq	r1, fp, r0
     5b0:	03820000 	orreq	r0, r2, #0
     5b4:	32110000 	andscc	r0, r1, #0
     5b8:	0f000000 	svceq	0x00000000
     5bc:	00be1000 	adcseq	r1, lr, r0
{
     5c0:	03920000 	orrseq	r0, r2, #0
     5c4:	32110000 	andscc	r0, r1, #0
    xReturn = prvCreateIdleTasks();
     5c8:	00000000 	andeq	r0, r0, r0
    if( xReturn == pdPASS )
     5cc:	03820b00 	orreq	r0, r2, #0, 22
     5d0:	ad100000 	ldcge	0, cr0, [r0, #-0]
    __asm volatile
     5d4:	a7000000 	strge	r0, [r0, -r0]
     5d8:	11000003 	tstne	r0, r3
     5dc:	00000032 	andeq	r0, r0, r2, lsr r0
     5e0:	970b0000 	strls	r0, [fp, -r0]
}
     5e4:	1d000003 	stcne	0, cr0, [r0, #-12]
        xNextTaskUnblockTime = portMAX_DELAY;
     5e8:	000003c9 	andeq	r0, r0, r9, asr #7
     5ec:	3e0301c4 	adfccdm	f0, f3, f4
        xSchedulerRunning = pdTRUE;
     5f0:	1d000002 	stcne	0, cr0, [r0, #-8]
        xTickCount = ( TickType_t ) configINITIAL_TICK_COUNT;
     5f4:	00000ac8 	andeq	r0, r0, r8, asr #21
     5f8:	ac1001c8 	ldfges	f0, [r0], {200}	@ 0xc8
        ( void ) xPortStartScheduler();
     5fc:	2a000003 	bcs	610 <vTaskStartScheduler+0x50>
    ( void ) uxTopUsedPriority;
     600:	0000090e 	andeq	r0, r0, lr, lsl #18
}
     604:	3701ce01 	strcc	ip, [r1, -r1, lsl #28]
     608:	000003dc 	ldrdeq	r0, [r0], -ip
     60c:	00040305 	andeq	r0, r4, r5, lsl #6
     610:	b8042000 	stmdalt	r4, {sp}
     614:	0b000003 	bleq	628 <vTaskEndScheduler+0xc>
     618:	000003d7 	ldrdeq	r0, [r0], -r7
{
     61c:	00021c10 	andeq	r1, r2, r0, lsl ip
     620:	0003f100 	andeq	pc, r3, r0, lsl #2
    __asm volatile
     624:	00321100 	eorseq	r1, r2, r0, lsl #2
     628:	00040000 	andeq	r0, r4, r0
     62c:	0002c301 	andeq	ip, r2, r1, lsl #6
     630:	1f01db00 	svcne	0x0001db00
}
     634:	000003e1 	andeq	r0, r0, r1, ror #7
    xSchedulerRunning = pdFALSE;
     638:	00080305 	andeq	r0, r8, r5, lsl #6
    vPortEndScheduler();
     63c:	45012000 	strmi	r2, [r1, #-0]
}
     640:	dc000003 	stcle	0, cr0, [r0], {3}
     644:	021c1f01 	andseq	r1, ip, #1, 30
     648:	03050000 	movweq	r0, #20480	@ 0x5000
{
     64c:	2000006c 	andcs	r0, r0, ip, rrx
        uxSchedulerSuspended = ( UBaseType_t ) ( uxSchedulerSuspended + 1U );
     650:	00035701 	andeq	r5, r3, r1, lsl #14
     654:	1f01dd00 	svcne	0x0001dd00
     658:	0000021c 	andeq	r0, r0, ip, lsl r2
}
     65c:	00800305 	addeq	r0, r0, r5, lsl #6
     660:	75012000 	strvc	r2, [r1, #-0]
     664:	de000009 	cdple	0, 0, cr0, cr0, cr9, {0}
{
     668:	043e2a01 	ldrteq	r2, [lr], #-2561	@ 0xfffff5ff
     66c:	03050000 	movweq	r0, #20480	@ 0x5000
    TCB_t * pxTCB = NULL;
     670:	20000094 	mulcs	r0, r4, r0
    BaseType_t xAlreadyYielded = pdFALSE;
     674:	00021c04 	andeq	r1, r2, r4, lsl #24
        taskENTER_CRITICAL();
     678:	04390b00 	ldrteq	r0, [r9], #-2816	@ 0xfffff500
            const BaseType_t xCoreID = ( BaseType_t ) portGET_CORE_ID();
     67c:	39050000 	stmdbcc	r5, {}	@ <UNPREDICTABLE>
            uxSchedulerSuspended = ( UBaseType_t ) ( uxSchedulerSuspended - 1U );
     680:	01000004 	tsteq	r0, r4
     684:	0000059f 	muleq	r0, pc, r5	@ <UNPREDICTABLE>
            if( uxSchedulerSuspended == ( UBaseType_t ) 0U )
     688:	3e2a01df 	mcrcc	1, 1, r0, cr10, cr15, {6}
     68c:	05000004 	streq	r0, [r0, #-4]
     690:	00009803 	andeq	r9, r0, r3, lsl #16
                if( uxCurrentNumberOfTasks > ( UBaseType_t ) 0U )
     694:	04bb0120 	ldrteq	r0, [fp], #288	@ 0x120
     698:	01e00000 	mvneq	r0, r0
                    while( listLIST_IS_EMPTY( &xPendingReadyList ) == pdFALSE )
     69c:	00021c1f 	andeq	r1, r2, pc, lsl ip
                        pxTCB = listGET_OWNER_OF_HEAD_ENTRY( ( &xPendingReadyList ) );
     6a0:	9c030500 	cfstr32ls	mvfx0, [r3], {-0}
     6a4:	01200000 			@ <UNDEFINED> instruction: 0x01200000
                        listREMOVE_ITEM( &( pxTCB->xEventListItem ) );
     6a8:	00000b76 	andeq	r0, r0, r6, ror fp
     6ac:	172d01f6 			@ <UNDEFINED> instruction: 0x172d01f6
     6b0:	05000001 	streq	r0, [r0, #-1]
     6b4:	0000b003 	andeq	fp, r0, r3
     6b8:	05650120 	strbeq	r0, [r5, #-288]!	@ 0xfffffee0
     6bc:	01f70000 	mvnseq	r0, r0
     6c0:	00012d2c 	andeq	r2, r1, ip, lsr #26
     6c4:	b4030500 	strlt	r0, [r3], #-1280	@ 0xfffffb00
     6c8:	01200000 			@ <UNDEFINED> instruction: 0x01200000
     6cc:	0000024b 	andeq	r0, r0, fp, asr #4
     6d0:	172d01f8 			@ <UNDEFINED> instruction: 0x172d01f8
     6d4:	05000001 	streq	r0, [r0, #-1]
     6d8:	0000b803 	andeq	fp, r0, r3, lsl #16
     6dc:	02780120 	rsbseq	r0, r8, #32, 2
     6e0:	01f90000 	mvnseq	r0, r0
                        listREMOVE_ITEM( &( pxTCB->xStateListItem ) );
     6e4:	0001012c 	andeq	r0, r1, ip, lsr #2
     6e8:	bc030500 	cfstr32lt	mvfx0, [r3], {-0}
     6ec:	01200000 			@ <UNDEFINED> instruction: 0x01200000
     6f0:	00000b10 	andeq	r0, r0, r0, lsl fp
     6f4:	2d2c01fa 	stfcss	f0, [ip, #-1000]!	@ 0xfffffc18
     6f8:	05000001 	streq	r0, [r0, #-1]
     6fc:	0000c003 	andeq	ip, r0, r3
     700:	01011020 	tsteq	r1, r0, lsr #32
     704:	04d60000 	ldrbeq	r0, [r6], #0
     708:	32110000 	andscc	r0, r1, #0
     70c:	00000000 	andeq	r0, r0, r0
     710:	04c60b00 	strbeq	r0, [r6], #2816	@ 0xb00
     714:	1a010000 	bne	4071c <_edata+0x3e2cc>
     718:	fb000003 	blx	72e <xTaskResumeAll+0xc6>
     71c:	04d62c01 	ldrbeq	r2, [r6], #3073	@ 0xc01
     720:	03050000 	movweq	r0, #20480	@ 0x5000
                        prvAddTaskToReadyList( pxTCB );
     724:	200000c4 	andcs	r0, r0, r4, asr #1
     728:	0008f201 	andeq	pc, r8, r1, lsl #4
     72c:	2c01fc00 	stccs	12, cr15, [r1], {-0}
     730:	00000101 	andeq	r0, r0, r1, lsl #2
     734:	00c80305 	sbceq	r0, r8, r5, lsl #6
     738:	56012000 	strpl	r2, [r1], -r0
     73c:	fd000008 	stc2	0, cr0, [r0, #-32]	@ 0xffffffe0
     740:	010b2401 	tsteq	fp, r1, lsl #8
     744:	03050000 	movweq	r0, #20480	@ 0x5000
     748:	200000cc 	andcs	r0, r0, ip, asr #1
     74c:	00070b01 	andeq	r0, r7, r1, lsl #22
     750:	2c01fe00 	stccs	14, cr15, [r1], {-0}
     754:	0000012d 	andeq	r0, r0, sp, lsr #2
     758:	00d00305 	sbcseq	r0, r0, r5, lsl #6
     75c:	2d102000 	ldccs	0, cr2, [r0, #-0]
     760:	33000002 	movwcc	r0, #2
     764:	11000005 	tstne	r0, r5
     768:	00000032 	andeq	r0, r0, r2, lsr r0
     76c:	cf010000 	svcgt	0x00010000
     770:	ff000005 			@ <UNDEFINED> instruction: 0xff000005
     774:	05232501 	streq	r2, [r3, #-1281]!	@ 0xfffffaff
     778:	03050000 	movweq	r0, #20480	@ 0x5000
     77c:	200000d4 	ldrdcs	r0, [r0], -r4
     780:	00050601 	andeq	r0, r5, r1, lsl #12
     784:	23020400 	movwcs	r0, #9216	@ 0x2400
     788:	0000011c 	andeq	r0, r0, ip, lsl r1
     78c:	243c0305 	ldrtcs	r0, [ip], #-773	@ 0xfffffcfb
     790:	cb010000 	blgt	40798 <_edata+0x3e348>
     794:	1200000b 	andne	r0, r0, #11
     798:	01172d02 	tsteq	r7, r2, lsl #26
     79c:	03050000 	movweq	r0, #20480	@ 0x5000
     7a0:	200000d8 	ldrdcs	r0, [r0], -r8
                            if( pxTCB->uxPriority > pxCurrentTCB->uxPriority )
     7a4:	0003f52b 	andeq	pc, r3, fp, lsr #10
     7a8:	01f70600 	mvnseq	r0, r0, lsl #12
     7ac:	00010b0d 	andeq	r0, r1, sp, lsl #22
     7b0:	00058000 	andeq	r8, r5, r0
                                xYieldPendings[ xCoreID ] = pdTRUE;
     7b4:	02170800 	andseq	r0, r7, #0, 16
     7b8:	19000000 	stmdbne	r0, {}	@ <UNPREDICTABLE>
                    while( listLIST_IS_EMPTY( &xPendingReadyList ) == pdFALSE )
     7bc:	00000a90 	muleq	r0, r0, sl
     7c0:	059101b9 	ldreq	r0, [r1, #441]	@ 0x1b9
     7c4:	43080000 	movwmi	r0, #32768	@ 0x8000
                    if( pxTCB != NULL )
     7c8:	00000004 	andeq	r0, r0, r4
                        prvResetNextTaskUnblockTime();
     7cc:	000aae19 	andeq	sl, sl, r9, lsl lr
                        TickType_t xPendedCounts = xPendedTicks; /* Non-volatile copy. */
     7d0:	a701d100 	strge	sp, [r1, -r0, lsl #2]
     7d4:	08000005 	stmdaeq	r0, {r0, r2}
                        if( xPendedCounts > ( TickType_t ) 0U )
     7d8:	00000443 	andeq	r0, r0, r3, asr #8
                                if( xTaskIncrementTick() != pdFALSE )
     7dc:	00021708 	andeq	r1, r2, r8, lsl #14
     7e0:	fa1a0000 	blx	6807e8 <_edata+0x67e398>
     7e4:	0800000b 	stmdaeq	r0, {r0, r1, r3}
                                    xYieldPendings[ xCoreID ] = pdTRUE;
     7e8:	d12c06ec 	smulwtle	ip, ip, r6
     7ec:	08000001 	stmdaeq	r0, {r0}
                                --xPendedCounts;
     7f0:	00f50ce5 	rscseq	r0, r5, r5, ror #25
     7f4:	bf1a0000 	svclt	0x001a0000
                            } while( xPendedCounts > ( TickType_t ) 0U );
     7f8:	02000001 	andeq	r0, r0, #1
                            xPendedTicks = 0;
     7fc:	881a0d74 	ldmdahi	sl, {r2, r4, r5, r6, r8, sl, fp}
     800:	02000003 	andeq	r0, r0, #3
                    if( xYieldPendings[ xCoreID ] != pdFALSE )
     804:	331b0d73 	tstcc	fp, #7360	@ 0x1cc0
     808:	08000007 	stmdaeq	r0, {r0, r1, r2}
     80c:	0368178d 	cmneq	r8, #36962304	@ 0x2340000
                            xAlreadyYielded = pdTRUE;
     810:	05eb0000 	strbeq	r0, [fp, #0]!
                            taskYIELD_TASK_CORE_IF_USING_PREEMPTION( pxCurrentTCB );
     814:	68080000 	stmdavs	r8, {}	@ <UNPREDICTABLE>
     818:	08000003 	stmdaeq	r0, {r0, r1}
     81c:	000000c3 	andeq	r0, r0, r3, asr #1
     820:	00007f08 	andeq	r7, r0, r8, lsl #30
     824:	32190000 	andscc	r0, r9, #0
        taskEXIT_CRITICAL();
     828:	c4000009 	strgt	r0, [r0], #-9
}
     82c:	0005fc01 	andeq	pc, r5, r1, lsl #24
     830:	02170800 	andseq	r0, r7, #0, 16
     834:	2d000000 	stccs	0, cr0, [r0, #-0]
     838:	000009bc 			@ <UNDEFINED> instruction: 0x000009bc
     83c:	0e06c008 	cdpeq	0, 0, cr12, cr6, cr8, {0}
     840:	08000006 	stmdaeq	r0, {r1, r2}
     844:	0000007f 	andeq	r0, r0, pc, ror r0
     848:	07f11b00 	ldrbeq	r1, [r1, r0, lsl #22]!
     84c:	21090000 	mrscs	r0, (UNDEF: 9)
     850:	00007f09 	andeq	r7, r0, r9, lsl #30
     854:	00062e00 	andeq	r2, r6, r0, lsl #28
{
     858:	007f0800 	rsbseq	r0, pc, r0, lsl #16
     85c:	39080000 	stmdbcc	r8, {}	@ <UNPREDICTABLE>
        xTicks = xTickCount;
     860:	08000000 	stmdaeq	r0, {}	@ <UNPREDICTABLE>
    return xTicks;
     864:	00000026 	andeq	r0, r0, r6, lsr #32
}
     868:	0bed1b00 	bleq	ffb47470 <__StackTop+0xdfb45470>
     86c:	bd080000 	stclt	0, cr0, [r8, #-0]
     870:	00007f08 	andeq	r7, r0, r8, lsl #30
{
     874:	00064400 	andeq	r4, r6, r0, lsl #8
     878:	00260800 	eoreq	r0, r6, r0, lsl #16
    uxSavedInterruptStatus = portTICK_TYPE_SET_INTERRUPT_MASK_FROM_ISR();
     87c:	14000000 	strne	r0, [r0], #-0
        xReturn = xTickCount;
     880:	000004ef 	andeq	r0, r0, pc, ror #9
    return xReturn;
     884:	bc06226a 	sfmlt	f2, 4, [r6], {106}	@ 0x6a
}
     888:	9400001a 	strls	r0, [r0], #-26	@ 0xffffffe6
     88c:	01000000 	mrseq	r0, (UNDEF: 0)
     890:	00066a9c 	muleq	r6, ip, sl
{
     894:	019c0100 	orrseq	r0, ip, r0, lsl #2
    return uxCurrentNumberOfTasks;
     898:	226c0000 	rsbcs	r0, ip, #0
}
     89c:	0000f510 	andeq	pc, r0, r0, lsl r5	@ <UNPREDICTABLE>
     8a0:	74910200 	ldrvc	r0, [r1], #512	@ 0x200
     8a4:	0b361500 	bleq	d85cac <_edata+0xd8385c>
{
     8a8:	21830000 	orrcs	r0, r3, r0
     8ac:	001a100d 	andseq	r1, sl, sp
    pxTCB = prvGetTCBFromHandle( xTaskToQuery );
     8b0:	0000ac00 	andeq	sl, r0, r0, lsl #24
     8b4:	db9c0100 	blle	fe700cbc <__StackTop+0xde6fecbc>
     8b8:	02000006 	andeq	r0, r0, #6
     8bc:	00000aa1 	andeq	r0, r0, r1, lsr #21
    return &( pxTCB->pcTaskName[ 0 ] );
     8c0:	21382183 	teqcs	r8, r3, lsl #3
}
     8c4:	02000001 	andeq	r0, r0, #1
     8c8:	2f026491 	svccs	0x00026491
     8cc:	8400000a 	strhi	r0, [r0], #-10
     8d0:	01063e21 	tsteq	r6, r1, lsr #28
{
     8d4:	91020000 	mrsls	r0, (UNDEF: 2)
     8d8:	0b8d0160 	bleq	fe340e60 <__StackTop+0xde33ee60>
    vTaskSuspendAll();
     8dc:	21860000 	orrcs	r0, r6, r0
    taskENTER_CRITICAL();
     8e0:	00012110 	andeq	r2, r1, r0, lsl r1
        xPendedTicks += xTicksToCatchUp;
     8e4:	68910200 	ldmvs	r1, {r9}
     8e8:	00058801 	andeq	r8, r5, r1, lsl #16
     8ec:	16218700 	strtne	r8, [r1], -r0, lsl #14
    taskEXIT_CRITICAL();
     8f0:	00000132 	andeq	r0, r0, r2, lsr r1
    xYieldOccurred = xTaskResumeAll();
     8f4:	01749102 	cmneq	r4, r2, lsl #2
     8f8:	0000025e 	andeq	r0, r0, lr, asr r2
}
     8fc:	43142188 	tstmi	r4, #136, 2	@ 0x22
     900:	02000004 	andeq	r0, r0, #4
     904:	51017091 	swppl	r7, r1, [r1]	@ <UNPREDICTABLE>
{
     908:	8900000c 	stmdbhi	r0, {r2, r3}
     90c:	04431421 	strbeq	r1, [r3], #-1057	@ 0xfffffbdf
    BaseType_t xSwitchRequired = pdFALSE;
     910:	91020000 	mrsls	r0, (UNDEF: 2)
    if( uxSchedulerSuspended == ( UBaseType_t ) 0U )
     914:	5b0c006c 	blpl	300acc <_edata+0x2fe67c>
     918:	bc000007 	stclt	0, cr0, [r0], {7}
        const TickType_t xConstTickCount = xTickCount + ( TickType_t ) 1;
     91c:	00b20e20 	adcseq	r0, r2, r0, lsr #28
     920:	19b00000 	ldmibne	r0!, {}	@ <UNPREDICTABLE>
        xTickCount = xConstTickCount;
     924:	00600000 	rsbeq	r0, r0, r0
     928:	9c010000 	stcls	0, cr0, [r1], {-0}
        if( xConstTickCount == ( TickType_t ) 0U )
     92c:	00000741 	andeq	r0, r0, r1, asr #14
            taskSWITCH_DELAYED_LISTS();
     930:	0008c102 	andeq	ip, r8, r2, lsl #2
     934:	3a20bc00 	bcc	82f93c <_edata+0x82d4ec>
     938:	0000022d 	andeq	r0, r0, sp, lsr #4
     93c:	026c9102 	rsbeq	r9, ip, #-2147483648	@ 0x80000000
     940:	000003ba 			@ <UNDEFINED> instruction: 0x000003ba
     944:	0b3920bd 	bleq	e48c40 <_edata+0xe467f0>
     948:	02000001 	andeq	r0, r0, #1
     94c:	9c026891 	stcls	8, cr6, [r2], {145}	@ 0x91
     950:	be000002 	cdplt	0, 0, cr0, cr0, cr2, {0}
        if( xConstTickCount >= xNextTaskUnblockTime )
     954:	00b23620 	adcseq	r3, r2, r0, lsr #12
     958:	91020000 	mrsls	r0, (UNDEF: 2)
     95c:	0ba80164 	bleq	fea00ef4 <__StackTop+0xde9feef4>
                if( listLIST_IS_EMPTY( pxDelayedTaskList ) != pdFALSE )
     960:	20c00000 	sbccs	r0, r0, r0
     964:	0003d711 	andeq	sp, r3, r1, lsl r7
                    xNextTaskUnblockTime = portMAX_DELAY;
     968:	74910200 	ldrvc	r0, [r1], #512	@ 0x200
     96c:	00075201 	andeq	r5, r7, r1, lsl #4
                    break;
     970:	1220c100 	eorne	ip, r0, #0, 2
                    pxTCB = listGET_OWNER_OF_HEAD_ENTRY( pxDelayedTaskList );
     974:	000000b2 	strheq	r0, [r0], -r2
     978:	00709102 	rsbseq	r9, r0, r2, lsl #2
                    xItemValue = listGET_LIST_ITEM_VALUE( &( pxTCB->xStateListItem ) );
     97c:	000bae0c 	andeq	sl, fp, ip, lsl #28
     980:	10209500 	eorne	r9, r0, r0, lsl #10
                    if( xConstTickCount < xItemValue )
     984:	000000f5 	strdeq	r0, [r0], -r5
     988:	00001958 	andeq	r1, r0, r8, asr r9
                        xNextTaskUnblockTime = xItemValue;
     98c:	00000058 	andeq	r0, r0, r8, asr r0
                        break;
     990:	07989c01 	ldreq	r9, [r8, r1, lsl #24]
                    listREMOVE_ITEM( &( pxTCB->xStateListItem ) );
     994:	c1020000 	mrsgt	r0, (UNDEF: 2)
     998:	95000008 	strls	r0, [r0, #-8]
     99c:	022d3b20 	eoreq	r3, sp, #32, 22	@ 0x8000
     9a0:	91020000 	mrsls	r0, (UNDEF: 2)
     9a4:	03ba026c 			@ <UNDEFINED> instruction: 0x03ba026c
     9a8:	20960000 	addscs	r0, r6, r0
     9ac:	00010b3a 	andeq	r0, r1, sl, lsr fp
     9b0:	68910200 	ldmvs	r1, {r9}
     9b4:	000ba801 	andeq	sl, fp, r1, lsl #16
     9b8:	11209800 			@ <UNDEFINED> instruction: 0x11209800
     9bc:	000003d7 	ldrdeq	r0, [r0], -r7
     9c0:	01709102 	cmneq	r0, r2, lsl #2
     9c4:	0000074a 	andeq	r0, r0, sl, asr #14
     9c8:	f5142099 			@ <UNDEFINED> instruction: 0xf5142099
     9cc:	02000000 	andeq	r0, r0, #0
                    if( listLIST_ITEM_CONTAINER( &( pxTCB->xEventListItem ) ) != NULL )
     9d0:	14007491 	strne	r7, [r0], #-1169	@ 0xfffffb6f
     9d4:	00000a53 	andeq	r0, r0, r3, asr sl
                        listREMOVE_ITEM( &( pxTCB->xEventListItem ) );
     9d8:	9c0a2011 	stcls	0, cr2, [sl], {17}
     9dc:	bc000017 	stclt	0, cr0, [r0], {23}
     9e0:	01000001 	tsteq	r0, r1
     9e4:	00089d9c 	muleq	r8, ip, sp
     9e8:	08b30200 	ldmeq	r3!, {r9}
     9ec:	20110000 	andscs	r0, r1, r0
     9f0:	00022d36 	andeq	r2, r2, r6, lsr sp
     9f4:	4c910200 	lfmmi	f0, 4, [r1], {0}
     9f8:	000c1302 	andeq	r1, ip, r2, lsl #6
     9fc:	35201200 	strcc	r1, [r0, #-512]!	@ 0xfffffe00
     a00:	0000010b 	andeq	r0, r0, fp, lsl #2
     a04:	02489102 	subeq	r9, r8, #-2147483648	@ 0x80000000
     a08:	00000227 	andeq	r0, r0, r7, lsr #4
     a0c:	9d362013 	ldcls	0, cr2, [r6, #-76]!	@ 0xffffffb4
     a10:	02000008 	andeq	r0, r0, #8
     a14:	a8014491 	stmdage	r1, {r0, r4, r7, sl, lr}
                    prvAddTaskToReadyList( pxTCB );
     a18:	1500000b 	strne	r0, [r0, #-11]
     a1c:	03d71120 	bicseq	r1, r7, #32, 2
     a20:	91020000 	mrsls	r0, (UNDEF: 2)
     a24:	02d50174 	sbcseq	r0, r5, #116, 2
     a28:	20160000 	andscs	r0, r6, r0
     a2c:	0000a111 	andeq	sl, r0, r1, lsl r1
     a30:	6f910200 	svcvs	0x00910200
     a34:	0003d001 	andeq	sp, r3, r1
     a38:	15201700 	strne	r1, [r0, #-1792]!	@ 0xfffff900
     a3c:	0000010b 	andeq	r0, r0, fp, lsl #2
     a40:	03709102 	cmneq	r0, #-2147483648	@ 0x80000000
     a44:	0000180e 	andeq	r1, r0, lr, lsl #16
     a48:	0000003e 	andeq	r0, r0, lr, lsr r0
     a4c:	00000825 	andeq	r0, r0, r5, lsr #16
     a50:	000c0c01 	andeq	r0, ip, r1, lsl #24
     a54:	15204900 	strne	r4, [r0, #-2304]!	@ 0xfffff700
     a58:	00000443 	andeq	r0, r0, r3, asr #8
     a5c:	00649102 	rsbeq	r9, r4, r2, lsl #2
     a60:	00185e03 	andseq	r5, r8, r3, lsl #28
     a64:	00007000 	andeq	r7, r0, r0
     a68:	00084200 	andeq	r4, r8, r0, lsl #4
     a6c:	028a0100 	addeq	r0, sl, #0, 2
     a70:	204a0000 	subcs	r0, sl, r0
     a74:	00021715 	andeq	r1, r2, r5, lsl r7
     a78:	60910200 	addsvs	r0, r1, r0, lsl #4
     a7c:	18d00300 	ldmne	r0, {r8, r9}^
     a80:	00380000 	eorseq	r0, r8, r0
     a84:	085f0000 	ldmdaeq	pc, {}^	@ <UNPREDICTABLE>
     a88:	8a010000 	bhi	40a90 <_edata+0x3e640>
     a8c:	60000002 	andvs	r0, r0, r2
     a90:	02171520 	andseq	r1, r7, #32, 10	@ 0x8000000
     a94:	91020000 	mrsls	r0, (UNDEF: 2)
                            if( pxTCB->uxPriority > pxCurrentTCB->uxPriority )
     a98:	971e0068 	ldrls	r0, [lr, -r8, rrx]
     a9c:	ac000015 	stcge	0, cr0, [r0], {21}
     aa0:	1a000017 	bne	b04 <xTaskIncrementTick+0x1fc>
     aa4:	35000000 	strcc	r0, [r0, #-0]
                                xSwitchRequired = pdTRUE;
     aa8:	00088320 	andeq	r8, r8, r0, lsr #6
                if( listLIST_IS_EMPTY( pxDelayedTaskList ) != pdFALSE )
     aac:	15a80f00 	strne	r0, [r8, #3840]!	@ 0xf00
                if( listCURRENT_LIST_LENGTH( &( pxReadyTasksLists[ pxCurrentTCB->uxPriority ] ) ) > 1U )
     ab0:	91020000 	mrsls	r0, (UNDEF: 2)
     ab4:	15b30f5c 	ldrne	r0, [r3, #3932]!	@ 0xf5c
     ab8:	91020000 	mrsls	r0, (UNDEF: 2)
     abc:	81160058 	tsthi	r6, r8, asr r0
     ac0:	2c000015 	stccs	0, cr0, [r0], {21}
     ac4:	08000019 	stmdaeq	r0, {r0, r3, r4}
                    xSwitchRequired = pdTRUE;
     ac8:	8b000000 	blhi	ad0 <xTaskIncrementTick+0x1c8>
                if( xYieldPendings[ 0 ] != pdFALSE )
     acc:	8b1c0920 	blhi	702f54 <_edata+0x700b04>
     ad0:	02000015 	andeq	r0, r0, #21
                    xSwitchRequired = pdTRUE;
     ad4:	00005491 	muleq	r0, r1, r4
        xPendedTicks += 1U;
     ad8:	0000f504 	andeq	pc, r0, r4, lsl #10
     adc:	03000e00 	movweq	r0, #3584	@ 0xe00
     ae0:	1f5b0000 	svcne	0x005b0000
}
     ae4:	0000f510 	andeq	pc, r0, r0, lsl r5	@ <UNPREDICTABLE>
     ae8:	00155000 	andseq	r5, r5, r0
     aec:	00024c00 	andeq	r4, r2, r0, lsl #24
     af0:	e79c0100 	ldr	r0, [ip, r0, lsl #2]
     af4:	02000009 	andeq	r0, r0, #9
     af8:	000008b3 			@ <UNDEFINED> instruction: 0x000008b3
     afc:	2d381f5b 	ldccs	15, cr1, [r8, #-364]!	@ 0xfffffe94
     b00:	02000002 	andeq	r0, r0, #2
     b04:	13024c91 	movwne	r4, #11409	@ 0x2c91
     b08:	5c00000c 	stcpl	0, cr0, [r0], {12}
     b0c:	010b371f 	tsteq	fp, pc, lsl r7
     b10:	91020000 	mrsls	r0, (UNDEF: 2)
     b14:	099f0248 	ldmibeq	pc, {r3, r6, r9}	@ <UNPREDICTABLE>
    {
     b18:	1f5d0000 	svcne	0x005d0000
     b1c:	0000b234 	andeq	fp, r0, r4, lsr r2
        if( uxSchedulerSuspended != ( UBaseType_t ) 0U )
     b20:	44910200 	ldrmi	r0, [r1], #512	@ 0x200
     b24:	00086302 	andeq	r6, r8, r2, lsl #6
            xYieldPendings[ 0 ] = pdTRUE;
     b28:	391f5e00 	ldmdbcc	pc, {r9, sl, fp, ip, lr}	@ <UNPREDICTABLE>
    }
     b2c:	000002e2 	andeq	r0, r0, r2, ror #5
            xYieldPendings[ 0 ] = pdFALSE;
     b30:	02439102 	subeq	r9, r3, #-2147483648	@ 0x80000000
            taskSELECT_HIGHEST_PRIORITY_TASK();
     b34:	000007d4 	ldrdeq	r0, [r0], -r4
     b38:	e7361f5f 			@ <UNDEFINED> instruction: 0xe7361f5f
        __asm volatile ( "clz %0, %1" : "=r" ( ucReturn ) : "r" ( ulBitmap ) : "memory" );
     b3c:	02000009 	andeq	r0, r0, #9
     b40:	27020091 			@ <UNDEFINED> instruction: 0x27020091
     b44:	60000002 	andvs	r0, r0, r2
     b48:	089d381f 	ldmeq	sp, {r0, r1, r2, r3, r4, fp, ip, sp}
     b4c:	91020000 	mrsls	r0, (UNDEF: 2)
     b50:	0ba80104 	bleq	fea00f68 <__StackTop+0xde9fef68>
     b54:	1f620000 	svcne	0x00620000
     b58:	0003d711 	andeq	sp, r3, r1, lsl r7
     b5c:	70910200 	addsvc	r0, r1, r0, lsl #4
     b60:	0002d501 	andeq	sp, r2, r1, lsl #10
     b64:	111f6300 	tstne	pc, r0, lsl #6
     b68:	000000a1 	andeq	r0, r0, r1, lsr #1
     b6c:	016b9102 	cmneq	fp, r2, lsl #2
     b70:	0000074a 	andeq	r0, r0, sl, asr #14
     b74:	f5141f64 			@ <UNDEFINED> instruction: 0xf5141f64
     b78:	02000000 	andeq	r0, r0, #0
     b7c:	d0017491 	mulle	r1, r1, r4
     b80:	65000003 	strvs	r0, [r0, #-3]
            portTASK_SWITCH_HOOK( pxCurrentTCB );
     b84:	010b151f 	tsteq	fp, pc, lsl r5
    }
     b88:	91020000 	mrsls	r0, (UNDEF: 2)
     b8c:	1650036c 	ldrbne	r0, [r0], -ip, ror #6
     b90:	003e0000 	eorseq	r0, lr, r0
     b94:	096f0000 	stmdbeq	pc!, {}^	@ <UNPREDICTABLE>
     b98:	0c010000 	stceq	0, cr0, [r1], {-0}
     b9c:	c300000c 	movwgt	r0, #12
     ba0:	0443151f 	strbeq	r1, [r3], #-1311	@ 0xfffffae1
{
     ba4:	91020000 	mrsls	r0, (UNDEF: 2)
     ba8:	a0030060 	andge	r0, r3, r0, rrx
     bac:	70000016 	andvc	r0, r0, r6, lsl r0
    vListInsert( pxEventList, &( pxCurrentTCB->xEventListItem ) );
     bb0:	8c000000 	stchi	0, cr0, [r0], {-0}
     bb4:	01000009 	tsteq	r0, r9
     bb8:	0000028a 	andeq	r0, r0, sl, lsl #5
    prvAddCurrentTaskToDelayedList( xTicksToWait, pdTRUE );
     bbc:	17151fc4 	ldrne	r1, [r5, -r4, asr #31]
     bc0:	02000002 	andeq	r0, r0, #2
}
     bc4:	03005c91 	movweq	r5, #3217	@ 0xc91
     bc8:	00001712 	andeq	r1, r0, r2, lsl r7
     bcc:	00000038 	andeq	r0, r0, r8, lsr r0
{
     bd0:	000009a9 	andeq	r0, r0, r9, lsr #19
     bd4:	00028a01 	andeq	r8, r2, r1, lsl #20
     bd8:	151fda00 	ldrne	sp, [pc, #-2560]	@ 1e0 <start+0x1c>
    listSET_LIST_ITEM_VALUE( &( pxCurrentTCB->xEventListItem ), xItemValue | taskEVENT_LIST_ITEM_VALUE_IN_USE );
     bdc:	00000217 	andeq	r0, r0, r7, lsl r2
     be0:	00649102 	rsbeq	r9, r4, r2, lsl #2
     be4:	0015971e 	andseq	r9, r5, lr, lsl r7
    listINSERT_END( pxEventList, &( pxCurrentTCB->xEventListItem ) );
     be8:	00156600 	andseq	r6, r5, r0, lsl #12
     bec:	00001a00 	andeq	r1, r0, r0, lsl #20
     bf0:	cd1f8300 	ldcgt	3, cr8, [pc, #-0]	@ bf8 <vTaskPlaceOnUnorderedEventList+0x28>
     bf4:	0f000009 	svceq	0x00000009
     bf8:	000015a8 	andeq	r1, r0, r8, lsr #11
     bfc:	0f589102 	svceq	0x00589102
     c00:	000015b3 			@ <UNDEFINED> instruction: 0x000015b3
     c04:	00549102 	subseq	r9, r4, r2, lsl #2
     c08:	00158116 	andseq	r8, r5, r6, lsl r1
     c0c:	00176e00 	andseq	r6, r7, r0, lsl #28
     c10:	00000800 	andeq	r0, r0, r0, lsl #16
     c14:	09200500 	stmdbeq	r0!, {r8, sl}
     c18:	00158b1c 	andseq	r8, r5, ip, lsl fp
     c1c:	50910200 	addspl	r0, r1, r0, lsl #4
     c20:	b2040000 	andlt	r0, r4, #0
     c24:	0c000000 	stceq	0, cr0, [r0], {-0}
     c28:	00000414 	andeq	r0, r0, r4, lsl r4
    prvAddCurrentTaskToDelayedList( xTicksToWait, pdTRUE );
     c2c:	f5101ee3 			@ <UNDEFINED> instruction: 0xf5101ee3
     c30:	7c000000 	stcvc	0, cr0, [r0], {-0}
}
     c34:	d4000013 	strle	r0, [r0], #-19	@ 0xffffffed
     c38:	01000001 	tsteq	r0, r1
     c3c:	000ab59c 	muleq	sl, ip, r5
{
     c40:	08b30200 	ldmeq	r3!, {r9}
     c44:	1ee30000 	cdpne	0, 14, cr0, cr3, cr0, {0}
    pxUnblockedTCB = listGET_OWNER_OF_HEAD_ENTRY( pxEventList );
     c48:	00022d31 	andeq	r2, r2, r1, lsr sp
     c4c:	5c910200 	lfmpl	f0, 4, [r1], {0}
    listREMOVE_ITEM( &( pxUnblockedTCB->xEventListItem ) );
     c50:	000c1302 	andeq	r1, ip, r2, lsl #6
     c54:	301ee400 	andscc	lr, lr, r0, lsl #8
     c58:	0000010b 	andeq	r0, r0, fp, lsl #2
     c5c:	02589102 	subseq	r9, r8, #-2147483648	@ 0x80000000
     c60:	0000099f 	muleq	r0, pc, r9	@ <UNPREDICTABLE>
     c64:	b22d1ee5 	eorlt	r1, sp, #3664	@ 0xe50
     c68:	02000000 	andeq	r0, r0, #0
     c6c:	63025491 	movwvs	r5, #9361	@ 0x2491
     c70:	e6000008 	str	r0, [r0], -r8
     c74:	02e2321e 	rsceq	r3, r2, #-536870911	@ 0xe0000001
     c78:	91020000 	mrsls	r0, (UNDEF: 2)
     c7c:	07d40253 			@ <UNDEFINED> instruction: 0x07d40253
     c80:	1ee70000 	cdpne	0, 14, cr0, cr7, cr0, {0}
     c84:	0009e72f 	andeq	lr, r9, pc, lsr #14
     c88:	00910200 	addseq	r0, r1, r0, lsl #4
     c8c:	000ba801 	andeq	sl, fp, r1, lsl #16
    if( uxSchedulerSuspended == ( UBaseType_t ) 0U )
     c90:	111ee900 	tstne	lr, r0, lsl #18
     c94:	000003d7 	ldrdeq	r0, [r0], -r7
        listREMOVE_ITEM( &( pxUnblockedTCB->xStateListItem ) );
     c98:	01709102 	cmneq	r0, r2, lsl #2
     c9c:	0000074a 	andeq	r0, r0, sl, asr #14
     ca0:	f5141eea 			@ <UNDEFINED> instruction: 0xf5141eea
     ca4:	02000000 	andeq	r0, r0, #0
     ca8:	d5017491 	strle	r7, [r1, #-1169]	@ 0xfffffb6f
     cac:	eb000002 	bl	cbc <xTaskRemoveFromEventList+0x7c>
     cb0:	00a1111e 	adceq	r1, r1, lr, lsl r1
     cb4:	91020000 	mrsls	r0, (UNDEF: 2)
     cb8:	1452036f 	ldrbne	r0, [r2], #-879	@ 0xfffffc91
     cbc:	003e0000 	eorseq	r0, lr, r0
     cc0:	0a9b0000 	beq	fe6c0cc8 <__StackTop+0xde6becc8>
     cc4:	0c010000 	stceq	0, cr0, [r1], {-0}
     cc8:	3000000c 	andcc	r0, r0, ip
     ccc:	0443111f 	strbeq	r1, [r3], #-287	@ 0xfffffee1
     cd0:	91020000 	mrsls	r0, (UNDEF: 2)
        prvAddTaskToReadyList( pxUnblockedTCB );
     cd4:	a2090068 	andge	r0, r9, #104	@ 0x68
     cd8:	70000014 	andvc	r0, r0, r4, lsl r0
     cdc:	01000000 	mrseq	r0, (UNDEF: 0)
     ce0:	0000028a 	andeq	r0, r0, sl, lsl #5
     ce4:	17111f31 			@ <UNDEFINED> instruction: 0x17111f31
     ce8:	02000002 	andeq	r0, r0, #2
     cec:	00006491 	muleq	r0, r1, r4
     cf0:	0006520c 	andeq	r5, r6, ip, lsl #4
     cf4:	101e7100 	andsne	r7, lr, r0, lsl #2
     cf8:	000000f5 	strdeq	r0, [r0], -r5
     cfc:	00001258 	andeq	r1, r0, r8, asr r2
     d00:	00000124 	andeq	r0, r0, r4, lsr #2
     d04:	0b489c01 	bleq	1227d10 <_edata+0x12258c0>
     d08:	67020000 	strvs	r0, [r2, -r0]
     d0c:	7100000c 	tstvc	r0, ip
     d10:	010b341e 	tsteq	fp, lr, lsl r4
     d14:	91020000 	mrsls	r0, (UNDEF: 2)
     d18:	04930264 	ldreq	r0, [r3], #612	@ 0x264
     d1c:	1e720000 	cdpne	0, 7, cr0, cr2, cr0, {0}
     d20:	0000b231 	andeq	fp, r0, r1, lsr r2
     d24:	60910200 	addsvs	r0, r1, r0, lsl #4
     d28:	0001fc02 	andeq	pc, r1, r2, lsl #24
     d2c:	311e7300 	tstcc	lr, r0, lsl #6
     d30:	000000b2 	strheq	r0, [r0], -r2
     d34:	025c9102 	subseq	r9, ip, #-2147483648	@ 0x80000000
     d38:	000009e2 	andeq	r0, r0, r2, ror #19
     d3c:	e7331e74 			@ <UNDEFINED> instruction: 0xe7331e74
     d40:	02000009 	andeq	r0, r0, #9
     d44:	a1025891 			@ <UNDEFINED> instruction: 0xa1025891
     d48:	7500000a 	strvc	r0, [r0, #-10]
     d4c:	0121331e 			@ <UNDEFINED> instruction: 0x0121331e
     d50:	91020000 	mrsls	r0, (UNDEF: 2)
     d54:	074a0100 	strbeq	r0, [sl, -r0, lsl #2]
        listINSERT_END( &( xPendingReadyList ), &( pxUnblockedTCB->xEventListItem ) );
     d58:	1e770000 	cdpne	0, 7, cr0, cr7, cr0, {0}
     d5c:	0000f514 	andeq	pc, r0, r4, lsl r5	@ <UNPREDICTABLE>
     d60:	74910200 	ldrvc	r0, [r1], #512	@ 0x200
     d64:	000ad601 	andeq	sp, sl, r1, lsl #12
     d68:	1d1e7700 	ldcne	7, cr7, [lr, #-0]
     d6c:	000000f5 	strdeq	r0, [r0], -r5
     d70:	016c9102 	cmneq	ip, r2, lsl #2
     d74:	0000091b 	andeq	r0, r0, fp, lsl r9
     d78:	f52e1e77 			@ <UNDEFINED> instruction: 0xf52e1e77
     d7c:	02000000 	andeq	r0, r0, #0
     d80:	0c007091 	stceq	0, cr7, [r0], {145}	@ 0x91
     d84:	0000067e 	andeq	r0, r0, lr, ror r6
     d88:	b20e1e0b 	andlt	r1, lr, #11, 28	@ 0xb0
     d8c:	68000000 	stmdavs	r0, {}	@ <UNPREDICTABLE>
        if( pxUnblockedTCB->uxPriority > pxCurrentTCB->uxPriority )
     d90:	f0000011 			@ <UNDEFINED> instruction: 0xf0000011
     d94:	01000000 	mrseq	r0, (UNDEF: 0)
     d98:	000bbd9c 	muleq	fp, ip, sp
     d9c:	0c670200 	sfmeq	f0, 2, [r7], #-0
            xReturn = pdTRUE;
     da0:	1e0b0000 	cdpne	0, 0, cr0, cr11, cr0, {0}
            xYieldPendings[ 0 ] = pdTRUE;
     da4:	00010b33 	andeq	r0, r1, r3, lsr fp
     da8:	64910200 	ldrvs	r0, [r1], #512	@ 0x200
            xReturn = pdFALSE;
     dac:	00043602 	andeq	r3, r4, r2, lsl #12
}
     db0:	321e0c00 	andscc	r0, lr, #0, 24
     db4:	000000f5 	strdeq	r0, [r0], -r5
     db8:	02609102 	rsbeq	r9, r0, #-2147483648	@ 0x80000000
     dbc:	00000aa1 	andeq	r0, r0, r1, lsr #21
     dc0:	21321e0d 	teqcs	r2, sp, lsl #28
     dc4:	02000001 	andeq	r0, r0, #1
     dc8:	52015c91 	andpl	r5, r1, #37120	@ 0x9100
     dcc:	0f000007 	svceq	0x00000007
     dd0:	00b2121e 	adcseq	r1, r2, lr, lsl r2
{
     dd4:	91020000 	mrsls	r0, (UNDEF: 2)
     dd8:	0ad6016c 	beq	ff581390 <__StackTop+0xdf57f390>
     ddc:	1e100000 	cdpne	0, 1, cr0, cr0, cr0, {0}
    listSET_LIST_ITEM_VALUE( pxEventListItem, xItemValue | taskEVENT_LIST_ITEM_VALUE_IN_USE );
     de0:	0000f514 	andeq	pc, r0, r4, lsl r5	@ <UNPREDICTABLE>
     de4:	70910200 	addsvc	r0, r1, r0, lsl #4
    pxUnblockedTCB = listGET_LIST_ITEM_OWNER( pxEventListItem );
     de8:	00091b01 	andeq	r1, r9, r1, lsl #22
     dec:	251e1000 	ldrcs	r1, [lr, #-0]
    listREMOVE_ITEM( pxEventListItem );
     df0:	000000f5 	strdeq	r0, [r0], -r5
     df4:	00749102 	rsbseq	r9, r4, r2, lsl #2
     df8:	00087a0e 	andeq	r7, r8, lr, lsl #20
     dfc:	0c1dde00 	ldceq	14, cr13, [sp], {-0}
     e00:	00000121 	andeq	r0, r0, r1, lsr #2
     e04:	00001138 	andeq	r1, r0, r8, lsr r1
     e08:	00000030 	andeq	r0, r0, r0, lsr r0
     e0c:	0be79c01 	bleq	ff9e7e18 <__StackTop+0xdf9e5e18>
     e10:	49010000 	stmdbmi	r1, {}	@ <UNPREDICTABLE>
     e14:	e0000007 	and	r0, r0, r7
     e18:	0121101d 			@ <UNDEFINED> instruction: 0x0121101d
     e1c:	91020000 	mrsls	r0, (UNDEF: 2)
     e20:	550e0074 	strpl	r0, [lr, #-116]	@ 0xffffff8c
     e24:	ae00000b 	cdpge	0, 0, cr0, cr0, cr11, {0}
     e28:	022d1219 	eoreq	r1, sp, #-1879048191	@ 0x90000001
    listREMOVE_ITEM( &( pxUnblockedTCB->xStateListItem ) );
     e2c:	11080000 	mrsne	r0, (UNDEF: 8)
     e30:	00300000 	eorseq	r0, r0, r0
     e34:	9c010000 	stcls	0, cr0, [r1], {-0}
     e38:	00000c20 	andeq	r0, r0, r0, lsr #24
     e3c:	00019c02 	andeq	r9, r1, r2, lsl #24
     e40:	3f19ae00 	svccc	0x0019ae00
     e44:	000000f5 	strdeq	r0, [r0], -r5
     e48:	016c9102 	cmneq	ip, r2, lsl #2
     e4c:	0000074a 	andeq	r0, r0, sl, asr #14
     e50:	2d1619b0 	vldrcs.16	s2, [r6, #-352]	@ 0xfffffea0	@ <UNPREDICTABLE>
     e54:	02000002 	andeq	r0, r0, #2
     e58:	0e007491 	mcreq	4, 0, r7, cr0, cr1, {4}
     e5c:	00000ae6 	andeq	r0, r0, r6, ror #21
     e60:	2d16198b 	vldrcs.16	s2, [r6, #-278]	@ 0xfffffeea	@ <UNPREDICTABLE>
     e64:	ec000002 	stc	0, cr0, [r0], {2}
    prvAddTaskToReadyList( pxUnblockedTCB );
     e68:	1c000010 	stcne	0, cr0, [r0], {16}
     e6c:	01000000 	mrseq	r0, (UNDEF: 0)
     e70:	000c4a9c 	muleq	ip, ip, sl
     e74:	074a0100 	strbeq	r0, [sl, -r0, lsl #2]
     e78:	198d0000 	stmibne	sp, {}	@ <UNPREDICTABLE>
     e7c:	00022d1a 	andeq	r2, r2, sl, lsl sp
     e80:	74910200 	ldrvc	r0, [r1], #512	@ 0x200
     e84:	07a11f00 	streq	r1, [r1, r0, lsl #30]!
     e88:	19730000 	ldmdbne	r3!, {}^	@ <UNPREDICTABLE>
     e8c:	000010b8 	strheq	r1, [r0], -r8
     e90:	00000034 	andeq	r0, r0, r4, lsr r0
     e94:	311f9c01 	tstcc	pc, r1, lsl #24
     e98:	d300000c 	movwle	r0, #12
     e9c:	0010ac17 	andseq	sl, r0, r7, lsl ip
     ea0:	00000c00 	andeq	r0, r0, r0, lsl #24
     ea4:	159c0100 	ldrne	r0, [ip, #256]	@ 0x100
     ea8:	000004cd 	andeq	r0, r0, sp, asr #9
     eac:	400d17b3 			@ <UNDEFINED> instruction: 0x400d17b3
     eb0:	6c000010 	stcvs	0, cr0, [r0], {16}
     eb4:	01000000 	mrseq	r0, (UNDEF: 0)
     eb8:	000c929c 	muleq	ip, ip, r2
     ebc:	01e50100 	mvneq	r0, r0, lsl #2
     ec0:	17b50000 	ldrne	r0, [r5, r0]!
     ec4:	00010b11 	andeq	r0, r1, r1, lsl fp
     ec8:	74910200 	ldrvc	r0, [r1], #512	@ 0x200
     ecc:	06691500 	strbteq	r1, [r9], -r0, lsl #10
     ed0:	16a90000 	strtne	r0, [r9], r0
     ed4:	00101008 	andseq	r1, r0, r8
     ed8:	00003000 	andeq	r3, r0, r0
     edc:	b89c0100 	ldmlt	ip, {r8}
     ee0:	0200000c 	andeq	r0, r0, #12
     ee4:	00000144 	andeq	r0, r0, r4, asr #2
     ee8:	7f0816a9 	svcvc	0x000816a9
        if( pxUnblockedTCB->uxPriority > pxCurrentTCB->uxPriority )
     eec:	02000000 	andeq	r0, r0, #0
     ef0:	20007491 	mulcs	r0, r1, r4
     ef4:	000009f7 	strdeq	r0, [r0], -r7
            xYieldPendings[ 0 ] = pdTRUE;
     ef8:	0ff81618 	svceq	0x00f81618
     efc:	00180000 	andseq	r0, r8, r0
}
     f00:	9c010000 	stcls	0, cr0, [r1], {-0}
     f04:	0009a70c 	andeq	sl, r9, ip, lsl #14
     f08:	0c15d300 	ldceq	3, cr13, [r5], {-0}
     f0c:	000000f5 	strdeq	r0, [r0], -r5
     f10:	00000f74 	andeq	r0, r0, r4, ror pc
     f14:	00000084 	andeq	r0, r0, r4, lsl #1
{
     f18:	0d399c01 	ldceq	12, cr9, [r9, #-4]!
     f1c:	f8020000 			@ <UNDEFINED> instruction: 0xf8020000
    taskENTER_CRITICAL();
     f20:	d3000007 	movwle	r0, #7
        pxTimeOut->xOverflowCount = xNumOfOverflows;
     f24:	0d3e3415 	cfldrseq	mvf3, [lr, #-84]!	@ 0xffffffac
     f28:	91020000 	mrsls	r0, (UNDEF: 2)
        pxTimeOut->xTimeOnEntering = xTickCount;
     f2c:	0aa00264 	beq	fe8018c4 <__StackTop+0xde7ff8c4>
     f30:	15d40000 	ldrbne	r0, [r4]
    taskEXIT_CRITICAL();
     f34:	000d4835 	andeq	r4, sp, r5, lsr r8
}
     f38:	60910200 	addsvs	r0, r1, r0, lsl #4
     f3c:	00074a01 	andeq	r4, r7, r1, lsl #20
     f40:	1015d600 	andsne	sp, r5, r0, lsl #12
     f44:	000000f5 	strdeq	r0, [r0], -r5
{
     f48:	09749102 	ldmdbeq	r4!, {r1, r8, ip, pc}^
     f4c:	00000f82 	andeq	r0, r0, r2, lsl #31
    pxTimeOut->xOverflowCount = xNumOfOverflows;
     f50:	0000005e 	andeq	r0, r0, lr, asr r0
     f54:	00058801 	andeq	r8, r5, r1, lsl #16
    pxTimeOut->xTimeOnEntering = xTickCount;
     f58:	1a15e000 	bne	578f60 <_edata+0x576b10>
     f5c:	00000132 	andeq	r0, r0, r2, lsr r1
}
     f60:	01709102 	cmneq	r0, r2, lsl #2
     f64:	00000456 	andeq	r0, r0, r6, asr r4
     f68:	321a15e1 	andscc	r1, sl, #943718400	@ 0x38400000
     f6c:	02000001 	andeq	r0, r0, #1
     f70:	00006c91 	muleq	r0, r1, ip
{
     f74:	00031604 	andeq	r1, r3, r4, lsl #12
     f78:	0d390500 	cfldr32eq	mvfx0, [r9, #-0]
     f7c:	21040000 	mrscs	r0, (UNDEF: 4)
    taskENTER_CRITICAL();
     f80:	05000001 	streq	r0, [r0, #-1]
        const TickType_t xConstTickCount = xTickCount;
     f84:	00000d43 	andeq	r0, r0, r3, asr #26
        const TickType_t xElapsedTime = xConstTickCount - pxTimeOut->xTimeOnEntering;
     f88:	00083914 	andeq	r3, r8, r4, lsl r9
     f8c:	0615c700 	ldreq	ip, [r5], -r0, lsl #14
     f90:	00000f48 	andeq	r0, r0, r8, asr #30
        if( ( xNumOfOverflows != pxTimeOut->xOverflowCount ) && ( xConstTickCount >= pxTimeOut->xTimeOnEntering ) )
     f94:	0000002c 	andeq	r0, r0, ip, lsr #32
     f98:	0d739c01 	ldcleq	12, cr9, [r3, #-4]!
     f9c:	f8020000 			@ <UNDEFINED> instruction: 0xf8020000
     fa0:	c7000007 	strgt	r0, [r0, -r7]
     fa4:	0d3e3615 	ldceq	6, cr3, [lr, #-84]!	@ 0xffffffac
            xReturn = pdTRUE;
     fa8:	91020000 	mrsls	r0, (UNDEF: 2)
            *pxTicksToWait = ( TickType_t ) 0;
     fac:	eb170074 	bl	5c1184 <_edata+0x5bed34>
     fb0:	b7000002 	strlt	r0, [r0, -r2]
        else if( xElapsedTime < *pxTicksToWait )
     fb4:	000f1815 	andeq	r1, pc, r5, lsl r8	@ <UNPREDICTABLE>
     fb8:	00003000 	andeq	r3, r0, r0
     fbc:	989c0100 	ldmls	ip, {r8}
            *pxTicksToWait -= xElapsedTime;
     fc0:	0200000d 	andeq	r0, r0, #13
     fc4:	000007f8 	strdeq	r0, [r0], -r8
     fc8:	3e2e15b7 	mcrcc	5, 1, r1, cr14, cr7, {5}
            vTaskInternalSetTimeOutState( pxTimeOut );
     fcc:	0200000d 	andeq	r0, r0, #13
            xReturn = pdFALSE;
     fd0:	14007491 	strne	r7, [r0], #-1169	@ 0xfffffb6f
     fd4:	000005f0 	strdeq	r0, [r0], -r0	@ <UNPREDICTABLE>
            *pxTicksToWait = ( TickType_t ) 0;
     fd8:	d406156f 	strle	r1, [r6], #-1391	@ 0xfffffa91
            xReturn = pdTRUE;
     fdc:	4400000d 	strmi	r0, [r0], #-13
    taskEXIT_CRITICAL();
     fe0:	01000001 	tsteq	r0, r1
    return xReturn;
     fe4:	000e2f9c 	muleq	lr, ip, pc	@ <UNPREDICTABLE>
}
     fe8:	0b000200 	bleq	17f0 <vTaskGenericNotifyGiveFromISR+0x54>
     fec:	156f0000 	strbne	r0, [pc, #-0]!	@ ff4 <xTaskCheckForTimeOut+0x80>
     ff0:	00021236 	andeq	r1, r2, r6, lsr r2
     ff4:	64910200 	ldrvs	r0, [r1], #512	@ 0x200
{
     ff8:	00095b02 	andeq	r5, r9, r2, lsl #22
    xYieldPendings[ portGET_CORE_ID() ] = pdTRUE;
     ffc:	3a157000 	bcc	55d004 <_edata+0x55abb4>
    1000:	00000132 	andeq	r0, r0, r2, lsr r1
}
    1004:	01609102 	cmneq	r0, r2, lsl #2
    1008:	00000427 	andeq	r0, r0, r7, lsr #8
    100c:	d70d1572 	smlsdxle	sp, r2, r5, r1
{
    1010:	02000003 	andeq	r0, r0, #3
    1014:	ee037491 	mcr	4, 0, r7, cr3, cr1, {4}
        prvCheckTasksWaitingTermination();
    1018:	3c00000d 	stccc	0, cr0, [r0], {13}
            if( listCURRENT_LIST_LENGTH( &( pxReadyTasksLists[ tskIDLE_PRIORITY ] ) ) > ( UBaseType_t ) configNUMBER_OF_CORES )
    101c:	f8000000 			@ <UNDEFINED> instruction: 0xf8000000
    1020:	0100000d 	tsteq	r0, sp
                taskYIELD();
    1024:	00000c0c 	andeq	r0, r0, ip, lsl #24
    1028:	43051584 	movwmi	r1, #21892	@ 0x5584
    102c:	02000004 	andeq	r0, r0, #4
    1030:	03007091 	movweq	r7, #145	@ 0x91
        prvCheckTasksWaitingTermination();
    1034:	00000e2a 	andeq	r0, r0, sl, lsr #28
    1038:	0000003e 	andeq	r0, r0, lr, lsr r0
    103c:	00000e15 	andeq	r0, r0, r5, lsl lr
{
    1040:	000c0c01 	andeq	r0, ip, r1, lsl #24
    1044:	05159700 	ldreq	r9, [r5, #-1792]	@ 0xfffff900
    for( uxPriority = ( UBaseType_t ) 0U; uxPriority < ( UBaseType_t ) configMAX_PRIORITIES; uxPriority++ )
    1048:	00000443 	andeq	r0, r0, r3, asr #8
        vListInitialise( &( pxReadyTasksLists[ uxPriority ] ) );
    104c:	006c9102 	rsbeq	r9, ip, r2, lsl #2
    1050:	000e7a09 	andeq	r7, lr, r9, lsl #20
    1054:	00007000 	andeq	r7, r0, r0
    1058:	028a0100 	addeq	r0, sl, #0, 2
    105c:	15980000 	ldrne	r0, [r8]
    for( uxPriority = ( UBaseType_t ) 0U; uxPriority < ( UBaseType_t ) configMAX_PRIORITIES; uxPriority++ )
    1060:	00021705 	andeq	r1, r2, r5, lsl #14
    1064:	68910200 	ldmvs	r1, {r9}
    1068:	120e0000 	andne	r0, lr, #0
    vListInitialise( &xDelayedTaskList1 );
    106c:	12000006 	andne	r0, r0, #6
    1070:	00f50c15 	rscseq	r0, r5, r5, lsl ip
    vListInitialise( &xDelayedTaskList2 );
    1074:	0c400000 	mareq	acc0, r0, r0
    vListInitialise( &xPendingReadyList );
    1078:	01940000 	orrseq	r0, r4, r0
    107c:	9c010000 	stcls	0, cr0, [r1], {-0}
    pxDelayedTaskList = &xDelayedTaskList1;
    1080:	00000ee7 	andeq	r0, r0, r7, ror #29
    pxOverflowDelayedTaskList = &xDelayedTaskList2;
    1084:	00026c02 	andeq	r6, r2, r2, lsl #24
    1088:	3b151200 	blcc	545890 <_edata+0x543440>
}
    108c:	00000eec 	andeq	r0, r0, ip, ror #29
    1090:	015c9102 	cmpeq	ip, r2, lsl #2
    1094:	00000427 	andeq	r0, r0, r7, lsr #8
    1098:	d70d1514 	smladle	sp, r4, r5, r1
    109c:	02000003 	andeq	r0, r0, #3
    10a0:	4a017091 	bmi	5d2ec <_edata+0x5ae9c>
    10a4:	15000007 	strne	r0, [r0, #-7]
    10a8:	00f51015 	rscseq	r1, r5, r5, lsl r0
{
    10ac:	91020000 	mrsls	r0, (UNDEF: 2)
}
    10b0:	0c500374 	mrrceq	3, 7, r0, r0, cr4	@ <UNPREDICTABLE>
    10b4:	003e0000 	eorseq	r0, lr, r0
{
    10b8:	0e930000 	cdpeq	0, 9, cr0, cr3, cr0, {0}
    if( listLIST_IS_EMPTY( pxDelayedTaskList ) != pdFALSE )
    10bc:	0c010000 	stceq	0, cr0, [r1], {-0}
    10c0:	2b00000c 	blcs	10f8 <xTaskGetCurrentTaskHandle+0xc>
    10c4:	04430515 	strbeq	r0, [r3], #-1301	@ 0xfffffaeb
        xNextTaskUnblockTime = portMAX_DELAY;
    10c8:	91020000 	mrsls	r0, (UNDEF: 2)
    10cc:	9603006c 	strls	r0, [r3], -ip, rrx
        xNextTaskUnblockTime = listGET_ITEM_VALUE_OF_HEAD_ENTRY( pxDelayedTaskList );
    10d0:	3e00000c 	cdpcc	0, 0, cr0, cr0, cr12, {0}
    10d4:	b0000000 	andlt	r0, r0, r0
    10d8:	0100000e 	tsteq	r0, lr
}
    10dc:	00000c0c 	andeq	r0, r0, ip, lsl #24
    10e0:	4309152f 	movwmi	r1, #38191	@ 0x952f
    10e4:	02000004 	andeq	r0, r0, #4
    10e8:	03006491 	movweq	r6, #1169	@ 0x491
        {
    10ec:	00000ce6 	andeq	r0, r0, r6, ror #25
    10f0:	00000070 	andeq	r0, r0, r0, ror r0
            xReturn = pxCurrentTCB;
    10f4:	00000ecd 	andeq	r0, r0, sp, asr #29
            return xReturn;
    10f8:	00028a01 	andeq	r8, r2, r1, lsl #20
        }
    10fc:	09153000 	ldmdbeq	r5, {ip, sp}
    1100:	00000217 	andeq	r0, r0, r7, lsl r2
    1104:	00609102 	rsbeq	r9, r0, r2, lsl #2
    {
    1108:	000d5809 	andeq	r5, sp, r9, lsl #16
    110c:	00003800 	andeq	r3, r0, r0, lsl #16
        TaskHandle_t xReturn = NULL;
    1110:	028a0100 	addeq	r0, sl, #0, 2
        if( taskVALID_CORE_ID( xCoreID ) != pdFALSE )
    1114:	15440000 	strbne	r0, [r4, #-0]
    1118:	00021709 	andeq	r1, r2, r9, lsl #14
    111c:	68910200 	ldmvs	r1, {r9}
                xReturn = pxCurrentTCB;
    1120:	28040000 	stmdacs	r4, {}	@ <UNPREDICTABLE>
    1124:	05000002 	streq	r0, [r0, #-2]
    }
    1128:	00000ee7 	andeq	r0, r0, r7, ror #29
    112c:	000a7117 	andeq	r7, sl, r7, lsl r1
    1130:	d014cd00 	andsle	ip, r4, r0, lsl #26
    1134:	7000000b 	andvc	r0, r0, fp
{
    1138:	01000000 	mrseq	r0, (UNDEF: 0)
    113c:	000f4d9c 	muleq	pc, ip, sp	@ <UNPREDICTABLE>
    uxReturn = listGET_LIST_ITEM_VALUE( &( pxCurrentTCB->xEventListItem ) );
    1140:	026c0200 	rsbeq	r0, ip, #0, 4
    1144:	14cd0000 	strbne	r0, [sp], #0
    listSET_LIST_ITEM_VALUE( &( pxCurrentTCB->xEventListItem ), ( ( TickType_t ) configMAX_PRIORITIES - ( TickType_t ) pxCurrentTCB->uxPriority ) );
    1148:	0004392f 	andeq	r3, r4, pc, lsr #18
    114c:	6c910200 	lfmvs	f0, 4, [r1], {0}
    1150:	00095b02 	andeq	r5, r9, r2, lsl #22
    1154:	3714ce00 	ldrcc	ip, [r4, -r0, lsl #28]
}
    1158:	00000132 	andeq	r0, r0, r2, lsr r1
    115c:	02689102 	rsbeq	r9, r8, #-2147483648	@ 0x80000000
    1160:	00000aa1 	andeq	r0, r0, r1, lsr #21
    1164:	323714cf 	eorscc	r1, r7, #-822083584	@ 0xcf000000
    {
    1168:	02000001 	andeq	r0, r0, #1
    116c:	e8096491 	stmda	r9, {r0, r4, r7, sl, sp, lr}
    1170:	4200000b 	andmi	r0, r0, #11
        BaseType_t xAlreadyYielded, xShouldBlock = pdFALSE;
    1174:	01000000 	mrseq	r0, (UNDEF: 0)
        if( ( pxCurrentTCB->ulNotifiedValue[ uxIndexToWaitOn ] == 0U ) && ( xTicksToWait > ( TickType_t ) 0 ) )
    1178:	0000028a 	andeq	r0, r0, sl, lsl #5
    117c:	170514e3 	strne	r1, [r5, -r3, ror #9]
    1180:	02000002 	andeq	r0, r0, #2
    1184:	00007491 	muleq	r0, r1, r4
    1188:	0005b917 	andeq	fp, r5, r7, lsl r9
    118c:	a414b000 	ldrge	fp, [r4], #-0
            vTaskSuspendAll();
    1190:	2c00000b 	stccs	0, cr0, [r0], {11}
                taskENTER_CRITICAL();
    1194:	01000000 	mrseq	r0, (UNDEF: 0)
                    if( pxCurrentTCB->ulNotifiedValue[ uxIndexToWaitOn ] == 0U )
    1198:	000f819c 	muleq	pc, ip, r1	@ <UNPREDICTABLE>
    119c:	026c0200 	rsbeq	r0, ip, #0, 4
    11a0:	14b00000 	ldrtne	r0, [r0], #0
    11a4:	0004432c 	andeq	r4, r4, ip, lsr #6
    11a8:	74910200 	ldrvc	r0, [r1], #512	@ 0x200
                        pxCurrentTCB->ucNotifyState[ uxIndexToWaitOn ] = taskWAITING_NOTIFICATION;
    11ac:	000aa102 	andeq	sl, sl, r2, lsl #2
    11b0:	2e14b100 	mnfcss	f3, f0
    11b4:	00000132 	andeq	r0, r0, r2, lsr r1
                        xShouldBlock = pdTRUE;
    11b8:	00709102 	rsbseq	r9, r0, r2, lsl #2
                taskEXIT_CRITICAL();
    11bc:	0008df14 	andeq	sp, r8, r4, lsl pc
                if( xShouldBlock == pdTRUE )
    11c0:	0a13f500 	beq	4fe5c8 <_edata+0x4fc178>
    11c4:	00000b18 	andeq	r0, r0, r8, lsl fp
                    prvAddCurrentTaskToDelayedList( xTicksToWait, pdTRUE );
    11c8:	0000008c 	andeq	r0, r0, ip, lsl #1
    11cc:	0fef9c01 	svceq	0x00ef9c01
            xAlreadyYielded = xTaskResumeAll();
    11d0:	34090000 	strcc	r0, [r9], #-0
            if( ( xShouldBlock == pdTRUE ) && ( xAlreadyYielded == pdFALSE ) )
    11d4:	4e00000b 	cdpmi	0, 0, cr0, cr0, cr11, {0}
    11d8:	01000000 	mrseq	r0, (UNDEF: 0)
    11dc:	00000aba 			@ <UNDEFINED> instruction: 0x00000aba
                taskYIELD_WITHIN_API();
    11e0:	0b0d142f 	bleq	3462a4 <_edata+0x343e54>
    11e4:	02000001 	andeq	r0, r0, #1
    11e8:	4a037491 	bmi	de434 <_edata+0xdbfe4>
    11ec:	3800000b 	stmdacc	r0, {r0, r1, r3}
        taskENTER_CRITICAL();
    11f0:	cc000000 	stcgt	0, cr0, [r0], {-0}
            ulReturn = pxCurrentTCB->ulNotifiedValue[ uxIndexToWaitOn ];
    11f4:	0100000f 	tsteq	r0, pc
    11f8:	000001f0 	strdeq	r0, [r0], -r0	@ <UNPREDICTABLE>
    11fc:	430d142f 	movwmi	r1, #54319	@ 0xd42f
    1200:	02000004 	andeq	r0, r0, #4
            if( ulReturn != 0U )
    1204:	16007091 			@ <UNDEFINED> instruction: 0x16007091
    1208:	000015d5 	ldrdeq	r1, [r0], -r5
                if( xClearCountOnExit != pdFALSE )
    120c:	00000b3a 	andeq	r0, r0, sl, lsr fp
                    pxCurrentTCB->ulNotifiedValue[ uxIndexToWaitOn ] = ( uint32_t ) 0U;
    1210:	0000000a 	andeq	r0, r0, sl
    1214:	1c0d142f 	cfstrsne	mvf1, [sp], {47}	@ 0x2f
    1218:	000015e2 	andeq	r1, r0, r2, ror #11
    121c:	0f6c9102 	svceq	0x006c9102
    1220:	000015ed 	andeq	r1, r0, sp, ror #11
                    pxCurrentTCB->ulNotifiedValue[ uxIndexToWaitOn ] = ulReturn - ( uint32_t ) 1;
    1224:	006b9102 	rsbeq	r9, fp, r2, lsl #2
    1228:	290c0000 	stmdbcs	ip, {}	@ <UNPREDICTABLE>
    122c:	75000003 	strvc	r0, [r0, #-3]
    1230:	00f50c12 	rscseq	r0, r5, r2, lsl ip
            pxCurrentTCB->ucNotifyState[ uxIndexToWaitOn ] = taskNOT_WAITING_NOTIFICATION;
    1234:	09080000 	stmdbeq	r8, {}	@ <UNPREDICTABLE>
    1238:	02100000 	andseq	r0, r0, #0
    123c:	9c010000 	stcls	0, cr0, [r1], {-0}
    1240:	000010c0 	andeq	r1, r0, r0, asr #1
        taskEXIT_CRITICAL();
    1244:	000ba801 	andeq	sl, fp, r1, lsl #16
    }
    1248:	0d127700 	ldceq	7, cr7, [r2, #-0]
    124c:	000003d7 	ldrdeq	r0, [r0], -r7
    1250:	01689102 	cmneq	r8, r2, lsl #2
    1254:	0000095b 	andeq	r0, r0, fp, asr r9
    {
    1258:	21101278 	tstcs	r0, r8, ror r2
    125c:	02000001 	andeq	r0, r0, #1
    1260:	87016491 			@ <UNDEFINED> instruction: 0x87016491
    1264:	79000009 	stmdbvc	r0, {r0, r3}
        BaseType_t xReturn, xAlreadyYielded, xShouldBlock = pdFALSE;
    1268:	00f51012 	rscseq	r1, r5, r2, lsl r0
        if( ( pxCurrentTCB->ucNotifyState[ uxIndexToWaitOn ] != taskNOTIFICATION_RECEIVED ) && ( xTicksToWait > ( TickType_t ) 0 ) )
    126c:	91020000 	mrsls	r0, (UNDEF: 2)
    1270:	091c0974 	ldmdbeq	ip, {r2, r4, r5, r6, r8, fp}
    1274:	01bc0000 			@ <UNDEFINED> instruction: 0x01bc0000
    1278:	88010000 	stmdahi	r1, {}	@ <UNPREDICTABLE>
    127c:	8a000005 	bhi	1298 <xTaskGenericNotifyWait+0x40>
    1280:	01321a12 	teqeq	r2, r2, lsl sl
            vTaskSuspendAll();
    1284:	91020000 	mrsls	r0, (UNDEF: 2)
                taskENTER_CRITICAL();
    1288:	09300370 	ldmdbeq	r0!, {r4, r5, r6, r8, r9}
                    if( pxCurrentTCB->ucNotifyState[ uxIndexToWaitOn ] != taskNOTIFICATION_RECEIVED )
    128c:	00220000 	eoreq	r0, r2, r0
    1290:	106b0000 	rsbne	r0, fp, r0
    1294:	ff010000 			@ <UNDEFINED> instruction: 0xff010000
    1298:	92000004 	andls	r0, r0, #4
                        pxCurrentTCB->ulNotifiedValue[ uxIndexToWaitOn ] &= ~ulBitsToClearOnEntry;
    129c:	04390d12 	ldrteq	r0, [r9], #-3346	@ 0xfffff2ee
    12a0:	91020000 	mrsls	r0, (UNDEF: 2)
    12a4:	9203006c 	andls	r0, r3, #108	@ 0x6c
    12a8:	3e000009 	cdpcc	0, 0, cr0, cr0, cr9, {0}
    12ac:	88000000 	stmdahi	r0, {}	@ <UNPREDICTABLE>
    12b0:	01000010 	tsteq	r0, r0, lsl r0
    12b4:	00000c0c 	andeq	r0, r0, ip, lsl #24
    12b8:	431512c7 	tstmi	r5, #1879048204	@ 0x7000000c
                        pxCurrentTCB->ucNotifyState[ uxIndexToWaitOn ] = taskWAITING_NOTIFICATION;
    12bc:	02000004 	andeq	r0, r0, #4
    12c0:	03006091 	movweq	r6, #145	@ 0x91
    12c4:	000009d8 	ldrdeq	r0, [r0], -r8
                        xShouldBlock = pdTRUE;
    12c8:	0000003e 	andeq	r0, r0, lr, lsr r0
                taskEXIT_CRITICAL();
    12cc:	000010a5 	andeq	r1, r0, r5, lsr #1
                if( xShouldBlock == pdTRUE )
    12d0:	000c0c01 	andeq	r0, ip, r1, lsl #24
    12d4:	1912cd00 	ldmdbne	r2, {r8, sl, fp, lr, pc}
                    prvAddCurrentTaskToDelayedList( xTicksToWait, pdTRUE );
    12d8:	00000443 	andeq	r0, r0, r3, asr #8
    12dc:	005c9102 	subseq	r9, ip, r2, lsl #2
            xAlreadyYielded = xTaskResumeAll();
    12e0:	000a2809 	andeq	r2, sl, r9, lsl #16
            if( ( xShouldBlock == pdTRUE ) && ( xAlreadyYielded == pdFALSE ) )
    12e4:	00007000 	andeq	r7, r0, r0
    12e8:	028a0100 	addeq	r0, sl, #0, 2
    12ec:	12d60000 	sbcsne	r0, r6, #0
                taskYIELD_WITHIN_API();
    12f0:	00021715 	andeq	r1, r2, r5, lsl r7
    12f4:	58910200 	ldmpl	r1, {r9}
    12f8:	0c000000 	stceq	0, cr0, [r0], {-0}
    12fc:	0000039b 	muleq	r0, fp, r3
        taskENTER_CRITICAL();
    1300:	f50c11f9 			@ <UNDEFINED> instruction: 0xf50c11f9
            if( pulNotificationValue != NULL )
    1304:	d4000000 	strle	r0, [r0], #-0
    1308:	34000008 	strcc	r0, [r0], #-8
                *pulNotificationValue = pxCurrentTCB->ulNotifiedValue[ uxIndexToWaitOn ];
    130c:	01000000 	mrseq	r0, (UNDEF: 0)
    1310:	0010f99c 	mulseq	r0, ip, r9
    1314:	0b1d0200 	bleq	741b1c <_edata+0x73f6cc>
    1318:	11f90000 	mvnsne	r0, r0
            if( pxCurrentTCB->ucNotifyState[ uxIndexToWaitOn ] != taskNOTIFICATION_RECEIVED )
    131c:	0001212a 	andeq	r2, r1, sl, lsr #2
    1320:	6c910200 	lfmvs	f0, 4, [r1], {0}
    1324:	0006ed01 	andeq	lr, r6, r1, lsl #26
    1328:	1011fb00 	andsne	pc, r1, r0, lsl #22
    132c:	000000f5 	strdeq	r0, [r0], -r5
                xReturn = pdFALSE;
    1330:	00749102 	rsbseq	r9, r4, r2, lsl #2
                pxCurrentTCB->ulNotifiedValue[ uxIndexToWaitOn ] &= ~ulBitsToClearOnExit;
    1334:	000a1a0e 	andeq	r1, sl, lr, lsl #20
    1338:	08108200 	ldmdaeq	r0, {r9, pc}
    133c:	00000086 	andeq	r0, r0, r6, lsl #1
    1340:	000008a8 	andeq	r0, r0, r8, lsr #17
    1344:	0000002c 	andeq	r0, r0, ip, lsr #32
    1348:	11329c01 	teqne	r2, r1, lsl #24
    134c:	9b020000 	blls	81354 <_edata+0x7ef04>
    1350:	82000008 	andhi	r0, r0, #8
                xReturn = pdTRUE;
    1354:	022d2410 	eoreq	r2, sp, #16, 8	@ 0x10000000
            pxCurrentTCB->ucNotifyState[ uxIndexToWaitOn ] = taskNOT_WAITING_NOTIFICATION;
    1358:	91020000 	mrsls	r0, (UNDEF: 2)
    135c:	0ba8016c 	bleq	fea01914 <__StackTop+0xde9ff914>
    1360:	10840000 	addne	r0, r4, r0
        taskEXIT_CRITICAL();
    1364:	0003d70d 	andeq	sp, r3, sp, lsl #14
        return xReturn;
    1368:	74910200 	ldrvc	r0, [r1], #512	@ 0x200
    }
    136c:	02102e00 	andseq	r2, r0, #0, 28
    1370:	76010000 	strvc	r0, [r1], -r0
    1374:	010b0d10 	tsteq	fp, r0, lsl sp
    1378:	08940000 	ldmeq	r4, {}	@ <UNPREDICTABLE>
    {
    137c:	00140000 	andseq	r0, r4, r0
    1380:	9c010000 	stcls	0, cr0, [r1], {-0}
    1384:	00047a0e 	andeq	r7, r4, lr, lsl #20
    1388:	0c105300 	ldceq	3, cr5, [r0], {-0}
        BaseType_t xReturn = pdPASS;
    138c:	00000121 	andeq	r0, r0, r1, lsr #2
        pxTCB = xTaskToNotify;
    1390:	00000874 	andeq	r0, r0, r4, ror r8
        taskENTER_CRITICAL();
    1394:	00000020 	andeq	r0, r0, r0, lsr #32
            if( pulPreviousNotificationValue != NULL )
    1398:	11829c01 	orrne	r9, r2, r1, lsl #24
                *pulPreviousNotificationValue = pxTCB->ulNotifiedValue[ uxIndexToNotify ];
    139c:	4a010000 	bmi	413a4 <_edata+0x3ef54>
    13a0:	55000007 	strpl	r0, [r0, #-7]
    13a4:	01211010 			@ <UNDEFINED> instruction: 0x01211010
    13a8:	91020000 	mrsls	r0, (UNDEF: 2)
            ucOriginalNotifyState = pxTCB->ucNotifyState[ uxIndexToNotify ];
    13ac:	03d00170 	bicseq	r0, r0, #112, 2
    13b0:	10560000 	subsne	r0, r6, r0
    13b4:	00010b11 	andeq	r0, r1, r1, lsl fp
            pxTCB->ucNotifyState[ uxIndexToNotify ] = taskNOTIFICATION_RECEIVED;
    13b8:	74910200 	ldrvc	r0, [r1], #512	@ 0x200
    13bc:	081d0e00 	ldmdaeq	sp, {r9, sl, fp}
    13c0:	10400000 	subne	r0, r0, r0
            switch( eAction )
    13c4:	0001210c 	andeq	r2, r1, ip, lsl #2
    13c8:	00085800 	andeq	r5, r8, r0, lsl #16
    13cc:	00001c00 	andeq	r1, r0, r0, lsl #24
    13d0:	ac9c0100 	ldfges	f0, [ip], {0}
    13d4:	01000011 	tsteq	r0, r1, lsl r0
    13d8:	00000a28 	andeq	r0, r0, r8, lsr #20
    13dc:	21101042 	tstcs	r0, r2, asr #32
    13e0:	02000001 	andeq	r0, r0, #1
                    pxTCB->ulNotifiedValue[ uxIndexToNotify ] |= ulValue;
    13e4:	0c007491 	cfstrseq	mvf7, [r0], {145}	@ 0x91
    13e8:	00000966 	andeq	r0, r0, r6, ror #18
    13ec:	f50c0fab 			@ <UNDEFINED> instruction: 0xf50c0fab
    13f0:	68000000 	stmdavs	r0, {}	@ <UNPREDICTABLE>
    13f4:	f0000006 			@ <UNDEFINED> instruction: 0xf0000006
    13f8:	01000001 	tsteq	r0, r1
    13fc:	00126e9c 	mulseq	r2, ip, lr
                    break;
    1400:	0ba80100 	bleq	fea01808 <__StackTop+0xde9ff808>
                    ( pxTCB->ulNotifiedValue[ uxIndexToNotify ] )++;
    1404:	0fad0000 	svceq	0x00ad0000
    1408:	0003d70d 	andeq	sp, r3, sp, lsl #14
    140c:	74910200 	ldrvc	r0, [r1], #512	@ 0x200
    1410:	000ad601 	andeq	sp, sl, r1, lsl #12
    1414:	100fae00 	andne	sl, pc, r0, lsl #28
    1418:	000000f5 	strdeq	r0, [r0], -r5
                    break;
    141c:	09709102 	ldmdbeq	r0!, {r1, r8, ip, pc}^
                    pxTCB->ulNotifiedValue[ uxIndexToNotify ] = ulValue;
    1420:	0000067a 	andeq	r0, r0, sl, ror r6
    1424:	000001ac 	andeq	r0, r0, ip, lsr #3
    1428:	00019c01 	andeq	r9, r1, r1, lsl #24
                    break;
    142c:	1e0fbd00 	cdpne	13, 0, cr11, cr15, cr0, {0}
                    if( ucOriginalNotifyState != taskNOTIFICATION_RECEIVED )
    1430:	00000106 	andeq	r0, r0, r6, lsl #2
                        pxTCB->ulNotifiedValue[ uxIndexToNotify ] = ulValue;
    1434:	03689102 	cmneq	r8, #-2147483648	@ 0x80000000
    1438:	000006a6 	andeq	r0, r0, r6, lsr #13
    143c:	0000003e 	andeq	r0, r0, lr, lsr r0
    1440:	00001219 	andeq	r1, r0, r9, lsl r2
                        xReturn = pdFAIL;
    1444:	000c0c01 	andeq	r0, ip, r1, lsl #24
                    break;
    1448:	190fd200 	stmdbne	pc, {r9, ip, lr, pc}	@ <UNPREDICTABLE>
            if( ucOriginalNotifyState == taskWAITING_NOTIFICATION )
    144c:	00000443 	andeq	r0, r0, r3, asr #8
    1450:	00649102 	rsbeq	r9, r4, r2, lsl #2
                listREMOVE_ITEM( &( pxTCB->xStateListItem ) );
    1454:	0006e403 	andeq	lr, r6, r3, lsl #8
    1458:	00003e00 	andeq	r3, r0, r0, lsl #28
    145c:	00123600 	andseq	r3, r2, r0, lsl #12
    1460:	0c0c0100 	stfeqs	f0, [ip], {-0}
    1464:	0fd40000 	svceq	0x00d40000
    1468:	00044319 	andeq	r4, r4, r9, lsl r3
    146c:	60910200 	addsvs	r0, r1, r0, lsl #4
    1470:	07340300 	ldreq	r0, [r4, -r0, lsl #6]!
    1474:	00700000 	rsbseq	r0, r0, r0
    1478:	12530000 	subsne	r0, r3, #0
    147c:	8a010000 	bhi	41484 <_edata+0x3f034>
    1480:	d5000002 	strle	r0, [r0, #-2]
    1484:	0217190f 	andseq	r1, r7, #245760	@ 0x3c000
    1488:	91020000 	mrsls	r0, (UNDEF: 2)
    148c:	d009005c 	andle	r0, r9, ip, asr r0
                prvAddTaskToReadyList( pxTCB );
    1490:	32000007 	andcc	r0, r0, #7
    1494:	01000000 	mrseq	r0, (UNDEF: 0)
    1498:	000002aa 	andeq	r0, r0, sl, lsr #5
    149c:	21241002 			@ <UNDEFINED> instruction: 0x21241002
    14a0:	02000001 	andeq	r0, r0, #1
    14a4:	00006c91 	muleq	r0, r1, ip
    14a8:	05182000 	ldreq	r2, [r8, #-0]
    14ac:	0efd0000 	cdpeq	0, 15, cr0, cr13, cr0, {0}
    14b0:	0000064c 	andeq	r0, r0, ip, asr #12
    14b4:	0000001c 	andeq	r0, r0, ip, lsl r0
    14b8:	76179c01 	ldrvc	r9, [r7], -r1, lsl #24
    14bc:	d2000005 	andle	r0, r0, #5
    14c0:	00061c0e 	andeq	r1, r6, lr, lsl #24
    14c4:	00003000 	andeq	r3, r0, r0
    14c8:	ae9c0100 	fmlgee	f0, f4, f0
    14cc:	16000012 			@ <UNDEFINED> instruction: 0x16000012
    14d0:	000015bf 			@ <UNDEFINED> instruction: 0x000015bf
    14d4:	00000622 	andeq	r0, r0, r2, lsr #12
    14d8:	00000014 	andeq	r0, r0, r4, lsl r0
    14dc:	0f050ef2 	svceq	0x00050ef2
    14e0:	000015c9 	andeq	r1, r0, r9, asr #11
    14e4:	00749102 	rsbseq	r9, r4, r2, lsl #2
    14e8:	00d31700 	sbcseq	r1, r3, r0, lsl #14
    14ec:	0e690000 	cdpeq	0, 6, cr0, cr9, cr0, {0}
    14f0:	000005c0 	andeq	r0, r0, r0, asr #11
    14f4:	0000005c 	andeq	r0, r0, ip, asr r0
    14f8:	12ec9c01 	rscne	r9, ip, #256	@ 0x100
    14fc:	4a010000 	bmi	41504 <_edata+0x3f0b4>
    1500:	6b000007 	blvs	1524 <xTaskGenericNotify+0x1a8>
    1504:	00f5100e 	rscseq	r1, r5, lr
    1508:	91020000 	mrsls	r0, (UNDEF: 2)
    150c:	15bf1674 	ldrne	r1, [pc, #1652]!	@ 1b88 <pvPortMalloc+0x38>
    1510:	05d20000 	ldrbeq	r0, [r2]
                taskYIELD_ANY_CORE_IF_USING_PREEMPTION( pxTCB );
    1514:	00140000 	andseq	r0, r4, r0
    1518:	0e960000 	cdpeq	0, 9, cr0, cr6, cr0, {0}
    151c:	15c90f09 	strbne	r0, [r9, #3849]	@ 0xf09
    1520:	91020000 	mrsls	r0, (UNDEF: 2)
    1524:	21000070 	tstcs	r0, r0, ror r0
    1528:	000006c6 	andeq	r0, r0, r6, asr #13
    152c:	f5130dd4 			@ <UNDEFINED> instruction: 0xf5130dd4
        taskEXIT_CRITICAL();
    1530:	14000000 	strne	r0, [r0], #-0
        return xReturn;
    1534:	ac000005 	stcge	0, cr0, [r0], {5}
    }
    1538:	01000000 	mrseq	r0, (UNDEF: 0)
    153c:	0013529c 	mulseq	r3, ip, r2
    1540:	074a0100 	strbeq	r0, [sl, -r0, lsl #2]
    1544:	0dd60000 	ldcleq	0, cr0, [r6]
    1548:	0000f510 	andeq	pc, r0, r0, lsl r5	@ <UNPREDICTABLE>
    154c:	74910200 	ldrvc	r0, [r1], #512	@ 0x200
    {
    1550:	00019c01 	andeq	r9, r1, r1, lsl #24
    1554:	100dd700 	andne	sp, sp, r0, lsl #14
    1558:	000000f5 	strdeq	r0, [r0], -r5
    155c:	01709102 	cmneq	r0, r2, lsl #2
        BaseType_t xReturn = pdPASS;
    1560:	00000928 	andeq	r0, r0, r8, lsr #18
        pxTCB = xTaskToNotify;
    1564:	720a0dd8 	andvc	r0, sl, #216, 26	@ 0x3600
    __asm volatile
    1568:	02000003 	andeq	r0, r0, #3
    156c:	c6015891 			@ <UNDEFINED> instruction: 0xc6015891
    1570:	d9000009 	stmdble	r0, {r0, r3}
    1574:	00c3140d 	sbceq	r1, r3, sp, lsl #8
    1578:	91020000 	mrsls	r0, (UNDEF: 2)
    157c:	04a80168 	strteq	r0, [r8], #360	@ 0x168
        uxSavedInterruptStatus = ( UBaseType_t ) taskENTER_CRITICAL_FROM_ISR();
    1580:	0dda0000 	ldcleq	0, cr0, [sl]
            if( pulPreviousNotificationValue != NULL )
    1584:	00010b11 	andeq	r0, r1, r1, lsl fp
                *pulPreviousNotificationValue = pxTCB->ulNotifiedValue[ uxIndexToNotify ];
    1588:	6c910200 	lfmvs	f0, 4, [r1], {0}
    158c:	06a51500 	strteq	r1, [r5], r0, lsl #10
    1590:	07f90000 	ldrbeq	r0, [r9, r0]!
    1594:	0003ec11 	andeq	lr, r3, r1, lsl ip
            ucOriginalNotifyState = pxTCB->ucNotifyState[ uxIndexToNotify ];
    1598:	00012800 	andeq	r2, r1, r0, lsl #16
    159c:	919c0100 	orrsls	r0, ip, r0, lsl #2
    15a0:	02000013 	andeq	r0, r0, #19
    15a4:	000006d9 	ldrdeq	r0, [r0], -r9
            pxTCB->ucNotifyState[ uxIndexToNotify ] = taskNOTIFICATION_RECEIVED;
    15a8:	d73307f9 			@ <UNDEFINED> instruction: 0xd73307f9
    15ac:	02000003 	andeq	r0, r0, #3
    15b0:	56096c91 			@ <UNDEFINED> instruction: 0x56096c91
            switch( eAction )
    15b4:	70000004 	andvc	r0, r0, r4
    15b8:	01000000 	mrseq	r0, (UNDEF: 0)
    15bc:	0000028a 	andeq	r0, r0, sl, lsl #5
    15c0:	170d0833 	smladxne	sp, r3, r8, r0
    15c4:	02000002 	andeq	r0, r0, #2
    15c8:	00007491 	muleq	r0, r1, r4
    15cc:	00094615 	andeq	r4, r9, r5, lsl r6
    15d0:	0d071700 	stceq	7, cr1, [r7, #-0]
                    pxTCB->ulNotifiedValue[ uxIndexToNotify ] |= ulValue;
    15d4:	00000322 	andeq	r0, r0, r2, lsr #6
    15d8:	000000ca 	andeq	r0, r0, sl, asr #1
    15dc:	143d9c01 	ldrtne	r9, [sp], #-3073	@ 0xfffff3ff
    15e0:	e2020000 	and	r0, r2, #0
    15e4:	17000006 	strne	r0, [r0, -r6]
    15e8:	00c33207 	sbceq	r3, r3, r7, lsl #4
    15ec:	91020000 	mrsls	r0, (UNDEF: 2)
                    break;
    15f0:	0598026c 	ldreq	r0, [r8, #620]	@ 0x26c
                    ( pxTCB->ulNotifiedValue[ uxIndexToNotify ] )++;
    15f4:	07180000 	ldreq	r0, [r8, -r0]
    15f8:	00009c36 	andeq	r9, r0, r6, lsr ip
    15fc:	68910200 	ldmvs	r1, {r9}
    1600:	00052802 	andeq	r2, r5, r2, lsl #16
    1604:	40071900 	andmi	r1, r7, r0, lsl #18
    1608:	000000f0 	strdeq	r0, [r0], -r0	@ <UNPREDICTABLE>
                    break;
    160c:	02649102 	rsbeq	r9, r4, #-2147483648	@ 0x80000000
                    pxTCB->ulNotifiedValue[ uxIndexToNotify ] = ulValue;
    1610:	00000144 	andeq	r0, r0, r4, asr #2
    1614:	8130071a 	teqhi	r0, sl, lsl r7
    1618:	02000000 	andeq	r0, r0, #0
                    break;
    161c:	e5026091 	str	r6, [r2, #-145]	@ 0xffffff6f
                    if( ucOriginalNotifyState != taskNOTIFICATION_RECEIVED )
    1620:	1b000001 	blne	162c <xTaskGenericNotifyFromISR+0xdc>
    1624:	010b2f07 	tsteq	fp, r7, lsl #30
                        pxTCB->ulNotifiedValue[ uxIndexToNotify ] = ulValue;
    1628:	91020000 	mrsls	r0, (UNDEF: 2)
    162c:	0c230200 	sfmeq	f0, 4, [r3], #-0
    1630:	071c0000 	ldreq	r0, [ip, -r0]
                    break;
    1634:	00144238 	andseq	r4, r4, r8, lsr r2
                        xReturn = pdFAIL;
    1638:	04910200 	ldreq	r0, [r1], #512	@ 0x200
                    break;
    163c:	0006d902 	andeq	sp, r6, r2, lsl #18
            if( ucOriginalNotifyState == taskWAITING_NOTIFICATION )
    1640:	2b071d00 	blcs	1c8a48 <_edata+0x1c65f8>
    1644:	000003d7 	ldrdeq	r0, [r0], -r7
                if( uxSchedulerSuspended == ( UBaseType_t ) 0U )
    1648:	02089102 	andeq	r9, r8, #-2147483648	@ 0x80000000
    164c:	00000b2d 	andeq	r0, r0, sp, lsr #22
                    listREMOVE_ITEM( &( pxTCB->xStateListItem ) );
    1650:	4c40071e 	mcrrmi	7, 1, r0, r0, cr14
    1654:	02000014 	andeq	r0, r0, #20
    1658:	e0010c91 	mul	r1, r1, ip
    165c:	2000000b 	andcs	r0, r0, fp
    1660:	03681307 	cmneq	r8, #469762048	@ 0x1c000000
    1664:	91020000 	mrsls	r0, (UNDEF: 2)
    1668:	00782f70 	rsbseq	r2, r8, r0, ror pc
    166c:	11072101 	tstne	r7, r1, lsl #2
    1670:	0000010b 	andeq	r0, r0, fp, lsl #2
    1674:	00749102 	rsbseq	r9, r4, r2, lsl #2
    1678:	00022d04 	andeq	r2, r2, r4, lsl #26
    167c:	143d0500 	ldrtne	r0, [sp], #-1280	@ 0xfffffb00
    1680:	63040000 	movwvs	r0, #16384	@ 0x4000
    1684:	05000003 	streq	r0, [r0, #-3]
    1688:	00001447 	andeq	r1, r0, r7, asr #8
    168c:	00016a0c 	andeq	r6, r1, ip, lsl #20
                    prvAddTaskToReadyList( pxTCB );
    1690:	1006cc00 	andne	ip, r6, r0, lsl #24
    1694:	000000f5 	strdeq	r0, [r0], -r5
    1698:	000002dc 	ldrdeq	r0, [r0], -ip
    169c:	00000046 	andeq	r0, r0, r6, asr #32
    16a0:	14e49c01 	strbtne	r9, [r4], #3073	@ 0xc01
    16a4:	e2020000 	and	r0, r2, #0
    16a8:	cc000006 	stcgt	0, cr0, [r0], {6}
    16ac:	00c32c06 	sbceq	r2, r3, r6, lsl #24
    16b0:	91020000 	mrsls	r0, (UNDEF: 2)
    16b4:	0598026c 	ldreq	r0, [r8, #620]	@ 0x26c
    16b8:	06cd0000 	strbeq	r0, [sp], r0
    16bc:	00009c30 	andeq	r9, r0, r0, lsr ip
    16c0:	68910200 	ldmvs	r1, {r9}
    16c4:	00052802 	andeq	r2, r5, r2, lsl #16
    16c8:	3a06ce00 	bcc	1b4ed0 <_edata+0x1b2a80>
    16cc:	000000f0 	strdeq	r0, [r0], -r0	@ <UNPREDICTABLE>
    16d0:	02649102 	rsbeq	r9, r4, #-2147483648	@ 0x80000000
    16d4:	00000144 	andeq	r0, r0, r4, asr #2
    16d8:	812a06cf 	smlawthi	sl, pc, r6, r0
    16dc:	02000000 	andeq	r0, r0, #0
    16e0:	e5026091 	str	r6, [r2, #-145]	@ 0xffffff6f
    16e4:	d0000001 	andle	r0, r0, r1
    16e8:	010b2906 	tsteq	fp, r6, lsl #18
    16ec:	91020000 	mrsls	r0, (UNDEF: 2)
    16f0:	0c230200 	sfmeq	f0, 4, [r3], #-0
    16f4:	06d10000 	ldrbeq	r0, [r1], r0
    16f8:	00144232 	andseq	r4, r4, r2, lsr r2
    16fc:	04910200 	ldreq	r0, [r1], #512	@ 0x200
    1700:	0006d901 	andeq	sp, r6, r1, lsl #18
    1704:	1106d300 	mrsne	sp, LR_und
    1708:	000003d7 	ldrdeq	r0, [r0], -r7
    170c:	01709102 	cmneq	r0, r2, lsl #2
    1710:	0000074a 	andeq	r0, r0, sl, asr #14
                    listINSERT_END( &( xPendingReadyList ), &( pxTCB->xEventListItem ) );
    1714:	f51406d4 			@ <UNDEFINED> instruction: 0xf51406d4
    1718:	02000000 	andeq	r0, r0, #0
    171c:	21007491 			@ <UNDEFINED> instruction: 0x21007491
    1720:	00000448 	andeq	r0, r0, r8, asr #8
    1724:	d714066a 	ldrle	r0, [r4, -sl, ror #12]
    1728:	64000003 	strvs	r0, [r0], #-3
    172c:	78000002 	stmdavc	r0, {r1}
    1730:	01000000 	mrseq	r0, (UNDEF: 0)
    1734:	0015819c 	mulseq	r5, ip, r1
    1738:	06e20200 	strbteq	r0, [r2], r0, lsl #4
    173c:	066a0000 	strbteq	r0, [sl], -r0
    1740:	0000c332 	andeq	ip, r0, r2, lsr r3
    1744:	6c910200 	lfmvs	f0, 4, [r1], {0}
    1748:	00059802 	andeq	r9, r5, r2, lsl #16
                    if( pxTCB->uxPriority > pxCurrentTCB->uxPriority )
    174c:	36066b00 	strcc	r6, [r6], -r0, lsl #22
    1750:	0000009c 	muleq	r0, ip, r0
    1754:	02689102 	rsbeq	r9, r8, #-2147483648	@ 0x80000000
                        if( pxHigherPriorityTaskWoken != NULL )
    1758:	00000528 	andeq	r0, r0, r8, lsr #10
    175c:	f040066c 			@ <UNDEFINED> instruction: 0xf040066c
                            *pxHigherPriorityTaskWoken = pdTRUE;
    1760:	02000000 	andeq	r0, r0, #0
                        xYieldPendings[ 0 ] = pdTRUE;
    1764:	44026491 	strmi	r6, [r2], #-1169	@ 0xfffffb6f
    1768:	6d000001 	stcvs	0, cr0, [r0, #-4]
    176c:	00813006 	addeq	r3, r1, r6
    __asm volatile
    1770:	91020000 	mrsls	r0, (UNDEF: 2)
}
    1774:	01e50260 	mvneq	r0, r0, ror #4
    }
    1778:	066e0000 	strbteq	r0, [lr], -r0
    177c:	00010b2f 	andeq	r0, r1, pc, lsr #22
    1780:	00910200 	addseq	r0, r1, r0, lsl #4
    1784:	000c2302 	andeq	r2, ip, r2, lsl #6
    1788:	38066f00 	stmdacc	r6, {r8, r9, sl, fp, sp, lr}
    178c:	00001442 	andeq	r1, r0, r2, asr #8
    1790:	01049102 	tsteq	r4, r2, lsl #2
    1794:	000006d9 	ldrdeq	r0, [r0], -r9
    1798:	d7110671 			@ <UNDEFINED> instruction: 0xd7110671
    {
    179c:	02000003 	andeq	r0, r0, #3
    17a0:	72097491 	andvc	r7, r9, #-1862270976	@ 0x91000000
    17a4:	3e000002 	cdpcc	0, 0, cr0, cr0, cr2, {0}
        pxTCB = xTaskToNotify;
    17a8:	01000000 	mrseq	r0, (UNDEF: 0)
    __asm volatile
    17ac:	00000997 	muleq	r0, r7, r9
    17b0:	681b0696 	ldmdavs	fp, {r1, r2, r4, r7, r9, sl}
    17b4:	02000003 	andeq	r0, r0, #3
    17b8:	00007091 	muleq	r0, r1, r0
    17bc:	00037822 	andeq	r7, r3, r2, lsr #16
    17c0:	1597f800 	ldrne	pc, [r7, #2048]	@ 0x800
    return ulOriginalBASEPRI;
    17c4:	6b230000 	blvs	8c17cc <_edata+0x8bf37c>
            ucOriginalNotifyState = pxTCB->ucNotifyState[ uxIndexToNotify ];
    17c8:	f8000008 			@ <UNDEFINED> instruction: 0xf8000008
    17cc:	0000b238 	andeq	fp, r0, r8, lsr r2
    17d0:	20300000 	eorscs	r0, r0, r0
    17d4:	02000007 	andeq	r0, r0, #7
            pxTCB->ucNotifyState[ uxIndexToNotify ] = taskNOTIFICATION_RECEIVED;
    17d8:	00b222e4 	adcseq	r2, r2, r4, ror #5
    17dc:	bf030000 	svclt	0x00030000
    17e0:	18000015 	stmdane	r0, {r0, r2, r4}
            ( pxTCB->ulNotifiedValue[ uxIndexToNotify ] )++;
    17e4:	00000402 	andeq	r0, r0, r2, lsl #8
    17e8:	00b20ee6 	adcseq	r0, r2, r6, ror #29
    17ec:	45180000 	ldrmi	r0, [r8, #-0]
    17f0:	e6000006 	str	r0, [r0], -r6
    17f4:	0000b221 	andeq	fp, r0, r1, lsr #4
    17f8:	08220000 	stmdaeq	r2!, {}	@ <UNPREDICTABLE>
            if( ucOriginalNotifyState == taskWAITING_NOTIFICATION )
    17fc:	d400000a 	strle	r0, [r0], #-10
    1800:	000015d5 	ldrdeq	r1, [r0], -r5
    1804:	00064518 	andeq	r4, r6, r8, lsl r5
                if( uxSchedulerSuspended == ( UBaseType_t ) 0U )
    1808:	b20ed600 	andlt	sp, lr, #0, 12
    180c:	00000000 	andeq	r0, r0, r0
                    listREMOVE_ITEM( &( pxTCB->xStateListItem ) );
    1810:	00077931 	andeq	r7, r7, r1, lsr r9
    1814:	3e940200 	cdpcc	2, 9, cr0, cr4, cr0, {0}
    1818:	000000a1 	andeq	r0, r0, r1, lsr #1
    181c:	033c2303 	teqeq	ip, #201326592	@ 0xc000000
    1820:	60940000 	addsvs	r0, r4, r0
    1824:	000000b2 	strheq	r0, [r0], -r2
    1828:	0009d918 	andeq	sp, r9, r8, lsl r9
    182c:	a1119600 	tstge	r1, r0, lsl #12
    1830:	00000000 	andeq	r0, r0, r0
    1834:	00049c00 	andeq	r9, r4, r0, lsl #24
    1838:	01000500 	tsteq	r0, r0, lsl #10
    183c:	00049d04 	andeq	r9, r4, r4, lsl #26
    1840:	00471000 	subeq	r1, r7, r0
    1844:	6c1d0000 	ldcvs	0, cr0, [sp], {-0}
    1848:	0700000e 	streq	r0, [r0, -lr]
                    prvAddTaskToReadyList( pxTCB );
    184c:	50000000 	andpl	r0, r0, r0
    1850:	e800001b 	stmda	r0, {r0, r1, r3, r4}
    1854:	7f000004 	svcvc	0x00000004
    1858:	0500000b 	streq	r0, [r0, #-11]
    185c:	00000543 	andeq	r0, r0, r3, asr #10
    1860:	3717d602 	ldrcc	sp, [r7, -r2, lsl #12]
    1864:	11000000 	mrsne	r0, (UNDEF: 0)
    1868:	00000026 	andeq	r0, r0, r6, lsr #32
    186c:	27070402 	strcs	r0, [r7, -r2, lsl #8]
    1870:	12000001 	andne	r0, r0, #1
    1874:	6e690504 	cdpvs	5, 6, cr0, cr9, cr4, {0}
    1878:	08020074 	stmdaeq	r2, {r2, r4, r5, r6}
    187c:	0000bf05 	andeq	fp, r0, r5, lsl #30
    1880:	04080200 	streq	r0, [r8], #-512	@ 0xfffffe00
    1884:	000000fb 	strdeq	r0, [r0], -fp
    1888:	11060102 	tstne	r6, r2, lsl #2
    188c:	02000001 	andeq	r0, r0, #1
    1890:	010f0801 	tsteq	pc, r1, lsl #16
    1894:	02020000 	andeq	r0, r2, #0
    1898:	00009a05 	andeq	r9, r0, r5, lsl #20
    189c:	07020200 	streq	r0, [r2, -r0, lsl #4]
    18a0:	00000157 	andeq	r0, r0, r7, asr r1
    18a4:	c4050402 	strgt	r0, [r5], #-1026	@ 0xfffffbfe
    18a8:	02000000 	andeq	r0, r0, #0
    18ac:	01220704 			@ <UNDEFINED> instruction: 0x01220704
    18b0:	08020000 	stmdaeq	r2, {}	@ <UNPREDICTABLE>
    18b4:	00011d07 	andeq	r1, r1, r7, lsl #26
    18b8:	02041300 	andeq	r1, r4, #0, 6
    18bc:	01180801 	tsteq	r8, r1, lsl #16
    18c0:	be050000 	cdplt	0, 0, cr0, cr5, cr0, {0}
    18c4:	03000006 	movweq	r0, #6
    18c8:	005a182e 	subseq	r1, sl, lr, lsr #16
    18cc:	34050000 	strcc	r0, [r5], #-0
                    listINSERT_END( &( xPendingReadyList ), &( pxTCB->xEventListItem ) );
    18d0:	03000001 	movweq	r0, #1
    18d4:	00761934 	rsbseq	r1, r6, r4, lsr r9
    18d8:	77050000 	strvc	r0, [r5, -r0]
    18dc:	04000001 	streq	r0, [r0], #-1
    18e0:	006f1a3b 	rsbeq	r1, pc, fp, lsr sl	@ <UNPREDICTABLE>
    18e4:	8d060000 	stchi	0, cr0, [r6, #-0]
    18e8:	0b000000 	bleq	18f0 <vTaskGenericNotifyGiveFromISR+0x154>
    18ec:	00000c88 	andeq	r0, r0, r8, lsl #25
    18f0:	1e9c051c 	mrcne	5, 4, r0, cr12, cr12, {0}
    18f4:	04000001 	streq	r0, [r0], #-1
    18f8:	00000e44 	andeq	r0, r0, r4, asr #28
    18fc:	260c9e05 	strcs	r9, [ip], -r5, lsl #28
    1900:	00000000 	andeq	r0, r0, r0
    1904:	000ead04 	andeq	sl, lr, r4, lsl #26
                    if( pxTCB->uxPriority > pxCurrentTCB->uxPriority )
    1908:	0c9f0500 	cfldr32eq	mvfx0, [pc], {0}
    190c:	00000026 	andeq	r0, r0, r6, lsr #32
    1910:	0d460404 	cfstrdeq	mvd0, [r6, #-16]
    1914:	a0050000 	andge	r0, r5, r0
                        if( pxHigherPriorityTaskWoken != NULL )
    1918:	0000260c 	andeq	r2, r0, ip, lsl #12
                            *pxHigherPriorityTaskWoken = pdTRUE;
    191c:	cf040800 	svcgt	0x00040800
    1920:	0500000c 	streq	r0, [r0, #-12]
                        xYieldPendings[ 0 ] = pdTRUE;
    1924:	00260ca1 	eoreq	r0, r6, r1, lsr #25
    1928:	040c0000 	streq	r0, [ip], #-0
    __asm volatile
    192c:	00000c93 	muleq	r0, r3, ip
    1930:	260ca205 	strcs	sl, [ip], -r5, lsl #4
    }
    1934:	10000000 	andne	r0, r0, r0
    1938:	000e2504 	andeq	r2, lr, r4, lsl #10
    193c:	0ca30500 	cfstr32eq	mvfx0, [r3]
    1940:	00000026 	andeq	r0, r0, r6, lsr #32
    1944:	0f120414 	svceq	0x00120414
    1948:	a4050000 	strge	r0, [r5], #-0
    194c:	0000260c 	andeq	r2, r0, ip, lsl #12
    1950:	05001800 	streq	r1, [r0, #-2048]	@ 0xfffff800
    1954:	00000cb2 			@ <UNDEFINED> instruction: 0x00000cb2
    {
    1958:	b603a505 	strlt	sl, [r3], -r5, lsl #10
    195c:	14000000 	strne	r0, [r0], #-0
    1960:	0000008d 	andeq	r0, r0, sp, lsl #1
        pxTCB = prvGetTCBFromHandle( xTask );
    1964:	0000013b 	andeq	r0, r0, fp, lsr r1
    1968:	00003715 	andeq	r3, r0, r5, lsl r7
    196c:	000fff00 	andeq	pc, pc, r0, lsl #30
    1970:	000f9601 	andeq	r9, pc, r1, lsl #12
        taskENTER_CRITICAL();
    1974:	2a245f00 	bcs	91957c <_edata+0x91712c>
            if( pxTCB->ucNotifyState[ uxIndexToClear ] == taskNOTIFICATION_RECEIVED )
    1978:	05000001 	streq	r0, [r0, #-1]
    197c:	0000dc03 	andeq	sp, r0, r3, lsl #24
    1980:	0d2a0b20 	vstmdbeq	sl!, {d0-d15}
    1984:	01080000 	mrseq	r0, (UNDEF: 8)
                pxTCB->ucNotifyState[ uxIndexToClear ] = taskNOT_WAITING_NOTIFICATION;
    1988:	00017364 	andeq	r7, r1, r4, ror #6
    198c:	0ef30400 	cdpeq	4, 15, cr0, cr3, cr0, {0}
    1990:	66010000 	strvs	r0, [r1], -r0
                xReturn = pdPASS;
    1994:	0001731b 	andeq	r7, r1, fp, lsl r3
                xReturn = pdFAIL;
    1998:	2b040000 	blcs	1019a0 <_edata+0xff550>
        taskEXIT_CRITICAL();
    199c:	0100000f 	tsteq	r0, pc
        return xReturn;
    19a0:	00260c67 	eoreq	r0, r6, r7, ror #24
    }
    19a4:	00040000 	andeq	r0, r4, r0
    19a8:	00014c06 	andeq	r4, r1, r6, lsl #24
    19ac:	0e190500 	cfmul32eq	mvfx0, mvfx9, mvfx0
    {
    19b0:	68010000 	stmdavs	r1, {}	@ <UNPREDICTABLE>
    19b4:	00014c03 	andeq	r4, r1, r3, lsl #24
    19b8:	0d660100 	stfeqe	f0, [r6, #-0]
        pxTCB = prvGetTCBFromHandle( xTask );
    19bc:	159e0000 	ldrne	r0, [lr]
    19c0:	00000032 	andeq	r0, r0, r2, lsr r0
    19c4:	24480305 	strbcs	r0, [r8], #-773	@ 0xfffffcfb
    19c8:	36010000 	strcc	r0, [r1], -r0
        taskENTER_CRITICAL();
    19cc:	a100000f 	tstge	r0, pc
            ulReturn = pxTCB->ulNotifiedValue[ uxIndexToClear ];
    19d0:	00017824 	andeq	r7, r1, r4, lsr #16
    19d4:	dc030500 	cfstr32le	mvfx0, [r3], {-0}
    19d8:	01200010 			@ <UNDEFINED> instruction: 0x01200010
    19dc:	00000ce3 	andeq	r0, r0, r3, ror #25
            pxTCB->ulNotifiedValue[ uxIndexToClear ] &= ~ulBitsToClear;
    19e0:	01b726a2 			@ <UNDEFINED> instruction: 0x01b726a2
    19e4:	03050000 	movweq	r0, #20480	@ 0x5000
    19e8:	200010e4 	andcs	r1, r0, r4, ror #1
    19ec:	00017806 	andeq	r7, r1, r6, lsl #16
    19f0:	0e990100 	fmleqe	f0, f1, f0
    19f4:	1fa60000 	svcne	0x00a60000
    19f8:	00000026 	andeq	r0, r0, r6, lsr #32
        taskEXIT_CRITICAL();
    19fc:	10e80305 	rscne	r0, r8, r5, lsl #6
        return ulReturn;
    1a00:	93012000 	movwls	r2, #4096	@ 0x1000
    }
    1a04:	a700000c 	strge	r0, [r0, -ip]
    1a08:	0000261f 	andeq	r2, r0, pc, lsl r6
    1a0c:	ec030500 	cfstr32	mvfx0, [r3], {-0}
{
    1a10:	01200010 			@ <UNDEFINED> instruction: 0x01200010
    1a14:	00000e25 	andeq	r0, r0, r5, lsr #28
    1a18:	00261fa8 	eoreq	r1, r6, r8, lsr #31
    const TickType_t xConstTickCount = xTickCount;
    1a1c:	03050000 	movweq	r0, #20480	@ 0x5000
    List_t * const pxDelayedList = pxDelayedTaskList;
    1a20:	200010f0 	strdcs	r1, [r0], -r0
    1a24:	000f1201 	andeq	r1, pc, r1, lsl #4
    List_t * const pxOverflowDelayedList = pxOverflowDelayedTaskList;
    1a28:	261fa900 	ldrcs	sl, [pc], -r0, lsl #18
    if( uxListRemove( &( pxCurrentTCB->xStateListItem ) ) == ( UBaseType_t ) 0 )
    1a2c:	05000000 	streq	r0, [r0, #-0]
    1a30:	0010f403 	andseq	pc, r0, r3, lsl #8
    1a34:	01bf0c20 			@ <UNDEFINED> instruction: 0x01bf0c20
    1a38:	0c740000 	ldcleq	0, cr0, [r4], #-0
    1a3c:	00000388 	andeq	r0, r0, r8, lsl #7
        portRESET_READY_PRIORITY( pxCurrentTCB->uxPriority, uxTopReadyPriority );
    1a40:	07f11673 			@ <UNDEFINED> instruction: 0x07f11673
    1a44:	21070000 	mrscs	r0, (UNDEF: 7)
    1a48:	00008409 	andeq	r8, r0, r9, lsl #8
    1a4c:	00022c00 	andeq	r2, r2, r0, lsl #24
    1a50:	00840800 	addeq	r0, r4, r0, lsl #16
    1a54:	3e080000 	cdpcc	0, 0, cr0, cr8, cr0, {0}
        xTimeToWake = xConstTickCount + xTicksToWait;
    1a58:	08000000 	stmdaeq	r0, {}	@ <UNPREDICTABLE>
    1a5c:	00000026 	andeq	r0, r0, r6, lsr #32
        listSET_LIST_ITEM_VALUE( &( pxCurrentTCB->xStateListItem ), xTimeToWake );
    1a60:	09661700 	stmdbeq	r6!, {r8, r9, sl, ip}^
    1a64:	96060000 	strls	r0, [r6], -r0
        if( xTimeToWake < xConstTickCount )
    1a68:	00a50c06 	adceq	r0, r5, r6, lsl #24
    1a6c:	18180000 	ldmdane	r8, {}	@ <UNPREDICTABLE>
            vListInsert( pxOverflowDelayedList, &( pxCurrentTCB->xStateListItem ) );
    1a70:	06000005 	streq	r0, [r0], -r5
    1a74:	0906065e 	stmdbeq	r6, {r1, r2, r3, r4, r6, r9, sl}
    1a78:	00000ddc 	ldrdeq	r0, [r0], -ip
}
    1a7c:	1ff80275 	svcne	0x00f80275
            vListInsert( pxDelayedList, &( pxCurrentTCB->xStateListItem ) );
    1a80:	00400000 	subeq	r0, r0, r0
    1a84:	9c010000 	stcls	0, cr0, [r1], {-0}
    1a88:	000f7d0d 	andeq	r7, pc, sp, lsl #26
            if( xTimeToWake < xNextTaskUnblockTime )
    1a8c:	3c023c00 	stccc	12, cr3, [r2], {-0}
    1a90:	bc00001f 	stclt	0, cr0, [r0], {31}
    1a94:	01000000 	mrseq	r0, (UNDEF: 0)
                xNextTaskUnblockTime = xTimeToWake;
    1a98:	0002b49c 	muleq	r2, ip, r4
}
    1a9c:	0c870700 	stceq	7, cr0, [r7], {0}
    1aa0:	023c0000 	eorseq	r0, ip, #0
    1aa4:	0002b427 	andeq	fp, r2, r7, lsr #8
    1aa8:	64910200 	ldrvs	r0, [r1], #512	@ 0x200
    1aac:	000cbe03 	andeq	fp, ip, r3, lsl #28
    1ab0:	13023e00 	movwne	r3, #11776	@ 0x2e00
    1ab4:	000001b7 			@ <UNDEFINED> instruction: 0x000001b7
    1ab8:	03749102 	cmneq	r4, #-2147483648	@ 0x80000000
{
    1abc:	00000f3d 	andeq	r0, r0, sp, lsr pc
    1ac0:	260c023f 			@ <UNDEFINED> instruction: 0x260c023f
        pxCurrentTCB = NULL;
    1ac4:	02000000 	andeq	r0, r0, #0
    uxCurrentNumberOfTasks = ( UBaseType_t ) 0U;
    1ac8:	f0037091 			@ <UNDEFINED> instruction: 0xf0037091
    1acc:	3f00000d 	svccc	0x0000000d
    xTickCount = ( TickType_t ) configINITIAL_TICK_COUNT;
    1ad0:	00261902 	eoreq	r1, r6, r2, lsl #18
    uxTopReadyPriority = tskIDLE_PRIORITY;
    1ad4:	91020000 	mrsls	r0, (UNDEF: 2)
    1ad8:	0cc6036c 	stcleq	3, cr0, [r6], {108}	@ 0x6c
    xSchedulerRunning = pdFALSE;
    1adc:	023f0000 	eorseq	r0, pc, #0
    xPendedTicks = ( TickType_t ) 0U;
    1ae0:	00002627 	andeq	r2, r0, r7, lsr #12
    1ae4:	68910200 	ldmvs	r1, {r9}
    for( xCoreID = 0; xCoreID < configNUMBER_OF_CORES; xCoreID++ )
    1ae8:	011e0600 	tsteq	lr, r0, lsl #12
        xYieldPendings[ xCoreID ] = pdFALSE;
    1aec:	e90e0000 	stmdb	lr, {}	@ <UNPREDICTABLE>
    1af0:	f800000c 			@ <UNDEFINED> instruction: 0xf800000c
    1af4:	001e8c01 	andseq	r8, lr, r1, lsl #24
    for( xCoreID = 0; xCoreID < configNUMBER_OF_CORES; xCoreID++ )
    1af8:	0000b000 	andeq	fp, r0, r0
    1afc:	fc9c0100 	ldc2	1, cr0, [ip], {0}
    1b00:	07000002 	streq	r0, [r0, -r2]
    xNumOfOverflows = ( BaseType_t ) 0;
    1b04:	00000ee3 	andeq	r0, r0, r3, ror #29
    uxTaskNumber = ( UBaseType_t ) 0U;
    1b08:	b73701f8 			@ <UNDEFINED> instruction: 0xb73701f8
    1b0c:	02000001 	andeq	r0, r0, #1
    xNextTaskUnblockTime = ( TickType_t ) 0U;
    1b10:	cc036c91 	stcgt	12, cr6, [r3], {145}	@ 0x91
    uxSchedulerSuspended = ( UBaseType_t ) 0U;
    1b14:	fa00000e 	blx	1b54 <pvPortMalloc+0x4>
    1b18:	01b71301 			@ <UNDEFINED> instruction: 0x01b71301
}
    1b1c:	91020000 	mrsls	r0, (UNDEF: 2)
    1b20:	75700a74 	ldrbvc	r0, [r0, #-2676]!	@ 0xfffff58c
    1b24:	01fb0063 	mvnseq	r0, r3, rrx
    1b28:	0000b10f 	andeq	fp, r0, pc, lsl #2
    1b2c:	70910200 	addsvc	r0, r1, r0, lsl #4
    1b30:	0ed70e00 	cdpeq	14, 13, cr0, cr7, cr0, {0}
    1b34:	01c80000 	biceq	r0, r8, r0
    1b38:	00001dd8 	ldrdeq	r1, [r0], -r8
    1b3c:	000000b4 	strheq	r0, [r0], -r4
    1b40:	034e9c01 	movteq	r9, #60417	@ 0xec01
    1b44:	4a030000 	bmi	c1b4c <_edata+0xbf6fc>
    1b48:	ca00000f 	bgt	1b8c <pvPortMalloc+0x3c>
    1b4c:	01b71301 			@ <UNDEFINED> instruction: 0x01b71301
{
    1b50:	91020000 	mrsls	r0, (UNDEF: 2)
    1b54:	0d370368 	ldceq	3, cr0, [r7, #-416]!	@ 0xfffffe60
    void * pvReturn = NULL;
    1b58:	01cb0000 	biceq	r0, fp, r0
    size_t xAllocatedBlockSize = 0;
    1b5c:	0000991b 	andeq	r9, r0, fp, lsl r9
    if( xWantedSize > 0 )
    1b60:	74910200 	ldrvc	r0, [r1], #512	@ 0x200
    1b64:	000d8a03 	andeq	r8, sp, r3, lsl #20
        if( heapADD_WILL_OVERFLOW( xWantedSize, xHeapStructSize ) == 0 )
    1b68:	2b01cb00 	blcs	74770 <_edata+0x72320>
    1b6c:	00000099 	muleq	r0, r9, r0
            xWantedSize += xHeapStructSize;
    1b70:	036c9102 	cmneq	ip, #-2147483648	@ 0x80000000
    1b74:	00000f03 	andeq	r0, r0, r3, lsl #30
            if( ( xWantedSize & portBYTE_ALIGNMENT_MASK ) != 0x00 )
    1b78:	260c01cc 	strcs	r0, [ip], -ip, asr #3
    1b7c:	02000000 	andeq	r0, r0, #0
    1b80:	19007091 	stmdbne	r0, {r0, r4, r7, ip, sp, lr}
                xAdditionalRequiredSize = portBYTE_ALIGNMENT - ( xWantedSize & portBYTE_ALIGNMENT_MASK );
    1b84:	00000e5f 	andeq	r0, r0, pc, asr lr
    1b88:	0801b501 	stmdaeq	r1, {r0, r8, sl, ip, sp, pc}
    1b8c:	00000084 	andeq	r0, r0, r4, lsl #1
                if( heapADD_WILL_OVERFLOW( xWantedSize, xAdditionalRequiredSize ) == 0 )
    1b90:	00001d78 	andeq	r1, r0, r8, ror sp
    1b94:	00000060 	andeq	r0, r0, r0, rrx
                    xWantedSize += xAdditionalRequiredSize;
    1b98:	03969c01 	orrseq	r9, r6, #256	@ 0x100
    1b9c:	45070000 	strmi	r0, [r7, #-0]
    1ba0:	b500000f 	strlt	r0, [r0, #-15]
                    xWantedSize = 0;
    1ba4:	00261d01 	eoreq	r1, r6, r1, lsl #26
            xWantedSize = 0;
    1ba8:	91020000 	mrsls	r0, (UNDEF: 2)
    vTaskSuspendAll();
    1bac:	0df3076c 	ldcleq	7, cr0, [r3, #432]!	@ 0x1b0
        if( pxEnd == NULL )
    1bb0:	01b60000 			@ <UNDEFINED> instruction: 0x01b60000
    1bb4:	0000261d 	andeq	r2, r0, sp, lsl r6
            prvHeapInit();
    1bb8:	68910200 	ldmvs	r1, {r9}
        if( heapBLOCK_SIZE_IS_VALID( xWantedSize ) != 0 )
    1bbc:	0076700a 	rsbseq	r7, r6, sl
    1bc0:	840c01b8 	strhi	r0, [ip], #-440	@ 0xfffffe48
            if( ( xWantedSize > 0 ) && ( xWantedSize <= xFreeBytesRemaining ) )
    1bc4:	02000000 	andeq	r0, r0, #0
    1bc8:	09007491 	stmdbeq	r0, {r0, r4, r7, sl, ip, sp, lr}
    1bcc:	00000f67 	andeq	r0, r0, r7, ror #30
    1bd0:	1d6c01af 	stfnee	f0, [ip, #-700]!	@ 0xfffffd44
                pxPreviousBlock = &xStart;
    1bd4:	000c0000 	andeq	r0, ip, r0
                pxBlock = heapPROTECT_BLOCK_POINTER( xStart.pxNextFreeBlock );
    1bd8:	9c010000 	stcls	0, cr0, [r1], {-0}
                while( ( pxBlock->xBlockSize < xWantedSize ) && ( pxBlock->pxNextFreeBlock != heapPROTECT_BLOCK_POINTER( NULL ) ) )
    1bdc:	000d0409 	andeq	r0, sp, r9, lsl #8
                    pxPreviousBlock = pxBlock;
    1be0:	5001a900 	andpl	sl, r1, r0, lsl #18
                    pxBlock = heapPROTECT_BLOCK_POINTER( pxBlock->pxNextFreeBlock );
    1be4:	1c00001d 	stcne	0, cr0, [r0], {29}
                while( ( pxBlock->xBlockSize < xWantedSize ) && ( pxBlock->pxNextFreeBlock != heapPROTECT_BLOCK_POINTER( NULL ) ) )
    1be8:	01000000 	mrseq	r0, (UNDEF: 0)
    1bec:	0df90f9c 	ldcleq	15, cr0, [r9, #624]!	@ 0x270
    1bf0:	01a30000 			@ <UNDEFINED> instruction: 0x01a30000
    1bf4:	00000026 	andeq	r0, r0, r6, lsr #32
    1bf8:	00001d3c 	andeq	r1, r0, ip, lsr sp
                if( pxBlock != pxEnd )
    1bfc:	00000014 	andeq	r0, r0, r4, lsl r0
    1c00:	a60f9c01 	strge	r9, [pc], -r1, lsl #24
                    pvReturn = ( void * ) ( ( ( uint8_t * ) heapPROTECT_BLOCK_POINTER( pxPreviousBlock->pxNextFreeBlock ) ) + xHeapStructSize );
    1c04:	9d00000d 	stcls	0, cr0, [r0, #-52]	@ 0xffffffcc
    1c08:	00002601 	andeq	r2, r0, r1, lsl #12
    1c0c:	001d2800 	andseq	r2, sp, r0, lsl #16
                    pxPreviousBlock->pxNextFreeBlock = pxBlock->pxNextFreeBlock;
    1c10:	00001400 	andeq	r1, r0, r0, lsl #8
    1c14:	0d9c0100 	ldfeqs	f0, [ip]
                    if( ( pxBlock->xBlockSize - xWantedSize ) > heapMINIMUM_BLOCK_SIZE )
    1c18:	000009bc 			@ <UNDEFINED> instruction: 0x000009bc
    1c1c:	1cb40162 	ldfnes	f0, [r4], #392	@ 0x188
    1c20:	00740000 	rsbseq	r0, r4, r0
    1c24:	9c010000 	stcls	0, cr0, [r1], {-0}
                        pxNewBlockLink = ( void * ) ( ( ( uint8_t * ) pxBlock ) + xWantedSize );
    1c28:	00000425 	andeq	r0, r0, r5, lsr #8
    1c2c:	0076701a 	rsbseq	r7, r6, sl, lsl r0
                        pxNewBlockLink->xBlockSize = pxBlock->xBlockSize - xWantedSize;
    1c30:	18016201 	stmdane	r1, {r0, r9, sp, lr}
    1c34:	00000084 	andeq	r0, r0, r4, lsl #1
    1c38:	0a6c9102 	beq	1b26048 <_edata+0x1b23bf8>
                        pxBlock->xBlockSize = xWantedSize;
    1c3c:	00637570 	rsbeq	r7, r3, r0, ror r5
                        pxNewBlockLink->pxNextFreeBlock = pxPreviousBlock->pxNextFreeBlock;
    1c40:	b10f0164 	tstlt	pc, r4, ror #2
    1c44:	02000000 	andeq	r0, r0, #0
                        pxPreviousBlock->pxNextFreeBlock = heapPROTECT_BLOCK_POINTER( pxNewBlockLink );
    1c48:	8f037491 	svchi	0x00037491
    1c4c:	6500000f 	strvs	r0, [r0, #-15]
                    xFreeBytesRemaining -= pxBlock->xBlockSize;
    1c50:	01b71301 			@ <UNDEFINED> instruction: 0x01b71301
    1c54:	91020000 	mrsls	r0, (UNDEF: 2)
    1c58:	ed1b0070 	ldc	0, cr0, [fp, #-448]	@ 0xfffffe40
                    if( xFreeBytesRemaining < xMinimumEverFreeBytesRemaining )
    1c5c:	0100000b 	tsteq	r0, fp
    1c60:	008408ad 	addeq	r0, r4, sp, lsr #17
    1c64:	1b500000 	blne	1401c6c <_edata+0x13ff81c>
                        xMinimumEverFreeBytesRemaining = xFreeBytesRemaining;
    1c68:	01640000 	cmneq	r4, r0
    1c6c:	9c010000 	stcls	0, cr0, [r1], {-0}
                    xAllocatedBlockSize = pxBlock->xBlockSize;
    1c70:	000f5b1c 	andeq	r5, pc, ip, lsl fp	@ <UNPREDICTABLE>
    1c74:	1dad0100 	stfnes	f0, [sp]
                    heapALLOCATE_BLOCK( pxBlock );
    1c78:	00000026 	andeq	r0, r0, r6, lsr #32
    1c7c:	015c9102 	cmpeq	ip, r2, lsl #2
    1c80:	00000cbe 			@ <UNDEFINED> instruction: 0x00000cbe
                    pxBlock->pxNextFreeBlock = heapPROTECT_BLOCK_POINTER( NULL );
    1c84:	01b713af 			@ <UNDEFINED> instruction: 0x01b713af
                    xNumberOfSuccessfulAllocations++;
    1c88:	91020000 	mrsls	r0, (UNDEF: 2)
    1c8c:	0c770174 	ldfeqe	f0, [r7], #-464	@ 0xfffffe30
    1c90:	13b00000 	movsne	r0, #0
    ( void ) xTaskResumeAll();
    1c94:	000001b7 			@ <UNDEFINED> instruction: 0x000001b7
}
    1c98:	01709102 	cmneq	r0, r2, lsl #2
    1c9c:	00000d97 	muleq	r0, r7, sp
    1ca0:	01b713b1 			@ <UNDEFINED> instruction: 0x01b713b1
    1ca4:	91020000 	mrsls	r0, (UNDEF: 2)
    1ca8:	0dd30160 	ldfeqe	f0, [r3, #384]	@ 0x180
    1cac:	0cb20000 	ldceq	0, cr0, [r2]
    1cb0:	00000084 	andeq	r0, r0, r4, lsl #1
{
    1cb4:	016c9102 	cmneq	ip, r2, lsl #2
    1cb8:	00000dbb 			@ <UNDEFINED> instruction: 0x00000dbb
    uint8_t * puc = ( uint8_t * ) pv;
    1cbc:	00260cb3 	strhteq	r0, [r6], -r3
    if( pv != NULL )
    1cc0:	91020000 	mrsls	r0, (UNDEF: 2)
    1cc4:	0d760164 	ldfeqe	f0, [r6, #-400]!	@ 0xfffffe70
        puc -= xHeapStructSize;
    1cc8:	0cb40000 	ldceq	0, cr0, [r4]
    1ccc:	00000026 	andeq	r0, r0, r6, lsr #32
        pxLink = ( void * ) puc;
    1cd0:	00689102 	rsbeq	r9, r8, r2, lsl #2
        if( heapBLOCK_IS_ALLOCATED( pxLink ) != 0 )
    1cd4:	0000a200 	andeq	sl, r0, r0, lsl #4
    1cd8:	01000500 	tsteq	r0, r0, lsl #10
            if( pxLink->pxNextFreeBlock == heapPROTECT_BLOCK_POINTER( NULL ) )
    1cdc:	00069004 	andeq	r9, r6, r4
    1ce0:	00470300 	subeq	r0, r7, r0, lsl #6
                heapFREE_BLOCK( pxLink );
    1ce4:	a21d0000 	andsge	r0, sp, #0
    1ce8:	0700000f 	streq	r0, [r0, -pc]
    1cec:	38000000 	stmdacc	r0, {}	@ <UNPREDICTABLE>
                vTaskSuspendAll();
    1cf0:	3a000020 	bcc	1d78 <pvPortCalloc>
                    xFreeBytesRemaining += pxLink->xBlockSize;
    1cf4:	2f000000 	svccs	0x00000000
    1cf8:	0400000f 	streq	r0, [r0], #-15
    1cfc:	000007f1 	strdeq	r0, [r0], -r1
    1d00:	88070301 	stmdahi	r7, {r0, r8, r9}
                    prvInsertBlockIntoFreeList( ( ( BlockLink_t * ) pxLink ) );
    1d04:	38000000 	stmdacc	r0, {}	@ <UNPREDICTABLE>
                    xNumberOfSuccessfulFrees++;
    1d08:	3a000020 	bcc	1d90 <pvPortCalloc+0x18>
    1d0c:	01000000 	mrseq	r0, (UNDEF: 0)
    1d10:	0000889c 	muleq	r0, ip, r8
                ( void ) xTaskResumeAll();
    1d14:	73640500 	cmnvc	r4, #0, 10
}
    1d18:	03010074 	movweq	r0, #4212	@ 0x1074
    1d1c:	00008814 	andeq	r8, r0, r4, lsl r8
    1d20:	6c910200 	lfmvs	f0, 4, [r1], {0}
    1d24:	000fb601 	andeq	fp, pc, r1, lsl #12
{
    1d28:	008a1d00 	addeq	r1, sl, r0, lsl #26
    return xFreeBytesRemaining;
    1d2c:	91020000 	mrsls	r0, (UNDEF: 2)
}
    1d30:	0f9d0168 	svceq	0x009d0168
    1d34:	91310000 	teqls	r1, r0
    1d38:	02000000 	andeq	r0, r0, #0
{
    1d3c:	70066491 	mulvc	r6, r1, r4
    return xMinimumEverFreeBytesRemaining;
    1d40:	01007274 	tsteq	r0, r4, ror r2
}
    1d44:	00981404 	addseq	r1, r8, r4, lsl #8
    1d48:	91020000 	mrsls	r0, (UNDEF: 2)
    1d4c:	0fb10774 	svceq	0x00b10774
{
    1d50:	05010000 	streq	r0, [r1, #-0]
    xMinimumEverFreeBytesRemaining = xFreeBytesRemaining;
    1d54:	00009e13 	andeq	r9, r0, r3, lsl lr
    1d58:	73910200 	orrsvc	r0, r1, #0, 4
}
    1d5c:	09040800 	stmdbeq	r4, {fp}
    1d60:	6e690504 	cdpvs	5, 6, cr0, cr9, cr4, {0}
    1d64:	04020074 	streq	r0, [r2], #-116	@ 0xffffff8c
    1d68:	00012707 	andeq	r2, r1, r7, lsl #14
{
    1d6c:	9e040a00 	vmlals.f32	s0, s8, s0
}
    1d70:	02000000 	andeq	r0, r0, #0
    1d74:	010f0801 	tsteq	pc, r1, lsl #16
{
    1d78:	07000000 	streq	r0, [r0, -r0]
    1d7c:	05000003 	streq	r0, [r0, #-3]
    1d80:	2d040100 	stfcss	f0, [r4, #-0]
    void * pv = NULL;
    1d84:	0c000007 	stceq	0, cr0, [r0], {7}
    if( heapMULTIPLY_WILL_OVERFLOW( xNum, xSize ) == 0 )
    1d88:	00000047 	andeq	r0, r0, r7, asr #32
    1d8c:	00102e1d 	andseq	r2, r0, sp, lsl lr
    1d90:	00000700 	andeq	r0, r0, r0, lsl #14
    1d94:	00207400 	eoreq	r7, r0, r0, lsl #8
    1d98:	00026000 	andeq	r6, r2, r0
    1d9c:	000f8800 	andeq	r8, pc, r0, lsl #16
    1da0:	05040d00 	streq	r0, [r4, #-3328]	@ 0xfffff300
    1da4:	00746e69 	rsbseq	r6, r4, r9, ror #28
        pv = pvPortMalloc( xNum * xSize );
    1da8:	27070401 	strcs	r0, [r7, -r1, lsl #8]
    1dac:	01000001 	tsteq	r0, r1
    1db0:	00bf0508 	adcseq	r0, pc, r8, lsl #10
    1db4:	08010000 	stmdaeq	r1, {}	@ <UNPREDICTABLE>
        if( pv != NULL )
    1db8:	0000fb04 	andeq	pc, r0, r4, lsl #22
            ( void ) memset( pv, 0, xNum * xSize );
    1dbc:	06010100 	streq	r0, [r1], -r0, lsl #2
    1dc0:	00000111 	andeq	r0, r0, r1, lsl r1
    1dc4:	9a050201 	bls	1425d0 <_edata+0x140180>
    1dc8:	01000000 	mrseq	r0, (UNDEF: 0)
    1dcc:	00c40504 	sbceq	r0, r4, r4, lsl #10
}
    1dd0:	01010000 	mrseq	r0, (UNDEF: 1)
    1dd4:	00010f08 	andeq	r0, r1, r8, lsl #30
{
    1dd8:	07020100 	streq	r0, [r2, -r0, lsl #2]
    1ddc:	00000157 	andeq	r0, r0, r7, asr r1
    size_t xTotalHeapSize = configTOTAL_HEAP_SIZE;
    1de0:	00013402 	andeq	r3, r1, r2, lsl #8
    uxStartAddress = ( portPOINTER_SIZE_TYPE ) ucHeap;
    1de4:	19340300 	ldmdbne	r4!, {r8, r9}
    if( ( uxStartAddress & portBYTE_ALIGNMENT_MASK ) != 0 )
    1de8:	00000076 	andeq	r0, r0, r6, ror r0
    1dec:	0000650e 	andeq	r6, r0, lr, lsl #10
    1df0:	07040100 	streq	r0, [r4, -r0, lsl #2]
        uxStartAddress += ( portBYTE_ALIGNMENT - 1 );
    1df4:	00000122 	andeq	r0, r0, r2, lsr #2
        uxStartAddress &= ~( ( portPOINTER_SIZE_TYPE ) portBYTE_ALIGNMENT_MASK );
    1df8:	1d070801 	stcne	8, cr0, [r7, #-4]
    1dfc:	02000001 	andeq	r0, r0, #1
        xTotalHeapSize -= ( size_t ) ( uxStartAddress - ( portPOINTER_SIZE_TYPE ) ucHeap );
    1e00:	00000038 	andeq	r0, r0, r8, lsr r0
    1e04:	90112404 	andsls	r2, r1, r4, lsl #8
    1e08:	03000000 	movweq	r0, #0
    xStart.pxNextFreeBlock = ( void * ) heapPROTECT_BLOCK_POINTER( uxStartAddress );
    1e0c:	00000095 	muleq	r0, r5, r0
    1e10:	0000a00f 	andeq	sl, r0, pc
    xStart.xBlockSize = ( size_t ) 0;
    1e14:	00a01000 	adceq	r1, r0, r0
    uxEndAddress = uxStartAddress + ( portPOINTER_SIZE_TYPE ) xTotalHeapSize;
    1e18:	11000000 	mrsne	r0, (UNDEF: 0)
    1e1c:	01820204 	orreq	r0, r2, r4, lsl #4
    uxEndAddress -= ( portPOINTER_SIZE_TYPE ) xHeapStructSize;
    1e20:	3a020000 	bcc	81e28 <_edata+0x7f9d8>
    1e24:	0000651a 	andeq	r6, r0, sl, lsl r5
    uxEndAddress &= ~( ( portPOINTER_SIZE_TYPE ) portBYTE_ALIGNMENT_MASK );
    1e28:	01770200 	cmneq	r7, r0, lsl #4
    1e2c:	3b020000 	blcc	81e34 <_edata+0x7f9e4>
    pxEnd = ( BlockLink_t * ) uxEndAddress;
    1e30:	0000501a 	andeq	r5, r0, sl, lsl r0
    1e34:	01760200 	cmneq	r6, r0, lsl #4
    pxEnd->xBlockSize = 0;
    1e38:	3c020000 	stccc	0, cr0, [r2], {-0}
    1e3c:	0000761a 	andeq	r7, r0, sl, lsl r6
    pxEnd->pxNextFreeBlock = heapPROTECT_BLOCK_POINTER( NULL );
    1e40:	08010100 	stmdaeq	r1, {r8}
    1e44:	00000118 	andeq	r0, r0, r8, lsl r1
    pxFirstFreeBlock = ( BlockLink_t * ) uxStartAddress;
    1e48:	0000a203 	andeq	sl, r0, r3, lsl #4
    pxFirstFreeBlock->xBlockSize = ( size_t ) ( uxEndAddress - ( portPOINTER_SIZE_TYPE ) pxFirstFreeBlock );
    1e4c:	106b0200 	rsbne	r0, fp, r0, lsl #4
    1e50:	26010000 	strcs	r0, [r1], -r0
    pxFirstFreeBlock->pxNextFreeBlock = heapPROTECT_BLOCK_POINTER( pxEnd );
    1e54:	0000e312 	andeq	lr, r0, r2, lsl r3
    1e58:	00d20800 	sbcseq	r0, r2, r0, lsl #16
    xMinimumEverFreeBytesRemaining = pxFirstFreeBlock->xBlockSize;
    1e5c:	e8030000 	stmda	r3, {}	@ <UNPREDICTABLE>
    1e60:	12000000 	andne	r0, r0, #0
    xFreeBytesRemaining = pxFirstFreeBlock->xBlockSize;
    1e64:	00100309 	andseq	r0, r0, r9, lsl #6
    1e68:	ba148d00 	blt	525270 <_edata+0x522e20>
}
    1e6c:	05000000 	streq	r0, [r0, #-0]
    1e70:	00244c03 	eoreq	r4, r4, r3, lsl #24
    1e74:	03291300 			@ <UNDEFINED> instruction: 0x03291300
    1e78:	ad050000 	stcge	0, cr0, [r5, #-0]
    1e7c:	00ae0c0d 	adceq	r0, lr, sp, lsl #24
    1e80:	df140000 	svcle	0x00140000
    1e84:	05000008 	streq	r0, [r0, #-8]
    1e88:	041b0e08 	ldreq	r0, [fp], #-3592	@ 0xfffff1f8
{
    1e8c:	00001015 	andeq	r1, r0, r5, lsl r0
    1e90:	a02002e7 	eorge	r0, r0, r7, ror #5
    for( pxIterator = &xStart; heapPROTECT_BLOCK_POINTER( pxIterator->pxNextFreeBlock ) < pxBlockToInsert; pxIterator = heapPROTECT_BLOCK_POINTER( pxIterator->pxNextFreeBlock ) )
    1e94:	34000022 	strcc	r0, [r0], #-34	@ 0xffffffde
    1e98:	01000000 	mrseq	r0, (UNDEF: 0)
    1e9c:	0fef159c 	svceq	0x00ef159c
    1ea0:	eb010000 	bl	41ea8 <_edata+0x3fa58>
    1ea4:	225a0601 	subscs	r0, sl, #1048576	@ 0x100000
    1ea8:	00460000 	subeq	r0, r6, r0
    puc = ( uint8_t * ) pxIterator;
    1eac:	9c010000 	stcls	0, cr0, [r1], {-0}
    if( ( puc + pxIterator->xBlockSize ) == ( uint8_t * ) pxBlockToInsert )
    1eb0:	00000171 	andeq	r0, r0, r1, ror r1
    1eb4:	0002f416 	andeq	pc, r2, r6, lsl r4	@ <UNPREDICTABLE>
    1eb8:	00226000 	eoreq	r6, r2, r0
        pxIterator->xBlockSize += pxBlockToInsert->xBlockSize;
    1ebc:	00001400 	andeq	r1, r0, r0, lsl #8
    1ec0:	01f10100 	mvnseq	r0, r0, lsl #2
    1ec4:	00015705 	andeq	r5, r1, r5, lsl #14
    1ec8:	02fd0500 	rscseq	r0, sp, #0, 10
        pxBlockToInsert = pxIterator;
    1ecc:	91020000 	mrsls	r0, (UNDEF: 2)
    puc = ( uint8_t * ) pxBlockToInsert;
    1ed0:	da060074 	ble	1820a8 <_edata+0x17fc58>
    if( ( puc + pxBlockToInsert->xBlockSize ) == ( uint8_t * ) heapPROTECT_BLOCK_POINTER( pxIterator->pxNextFreeBlock ) )
    1ed4:	8a000002 	bhi	1ee4 <prvInsertBlockIntoFreeList+0x58>
    1ed8:	08000022 	stmdaeq	r0, {r1, r5}
    1edc:	02000000 	andeq	r0, r0, #0
    1ee0:	e70a0502 	str	r0, [sl, -r2, lsl #10]
        if( heapPROTECT_BLOCK_POINTER( pxIterator->pxNextFreeBlock ) != pxEnd )
    1ee4:	02000002 	andeq	r0, r0, #2
    1ee8:	00007091 	muleq	r0, r1, r0
    1eec:	000fc304 	andeq	ip, pc, r4, lsl #6
            pxBlockToInsert->xBlockSize += heapPROTECT_BLOCK_POINTER( pxIterator->pxNextFreeBlock )->xBlockSize;
    1ef0:	0601c700 	streq	ip, [r1], -r0, lsl #14
    1ef4:	00002214 	andeq	r2, r0, r4, lsl r2
    1ef8:	00000046 	andeq	r0, r0, r6, asr #32
    1efc:	bf0b9c01 	svclt	0x000b9c01
            pxBlockToInsert->pxNextFreeBlock = heapPROTECT_BLOCK_POINTER( pxIterator->pxNextFreeBlock )->pxNextFreeBlock;
    1f00:	bb000001 	bllt	1f0c <prvInsertBlockIntoFreeList+0x80>
    1f04:	0021e001 	eoreq	lr, r1, r1
    1f08:	00003400 	andeq	r3, r0, r0, lsl #8
            pxBlockToInsert->pxNextFreeBlock = heapPROTECT_BLOCK_POINTER( pxEnd );
    1f0c:	b29c0100 	addslt	r0, ip, #0, 2
    1f10:	06000001 	streq	r0, [r0], -r1
        pxBlockToInsert->pxNextFreeBlock = pxIterator->pxNextFreeBlock;
    1f14:	000002da 	ldrdeq	r0, [r0], -sl
    1f18:	000021fc 	strdeq	r2, [r0], -ip
    if( pxIterator != pxBlockToInsert )
    1f1c:	00000008 	andeq	r0, r0, r8
    1f20:	0a0901c2 	beq	242630 <_edata+0x2401e0>
        pxIterator->pxNextFreeBlock = heapPROTECT_BLOCK_POINTER( pxBlockToInsert );
    1f24:	000002e7 	andeq	r0, r0, r7, ror #5
    1f28:	00749102 	rsbseq	r9, r4, r2, lsl #2
}
    1f2c:	03880b00 	orreq	r0, r8, #0, 22
    1f30:	01aa0000 			@ <UNDEFINED> instruction: 0x01aa0000
    1f34:	000021ac 	andeq	r2, r0, ip, lsr #3
    1f38:	00000034 	andeq	r0, r0, r4, lsr r0
{
    1f3c:	01e19c01 	mvneq	r9, r1, lsl #24
    1f40:	f4060000 	vst4.8	{d0-d3}, [r6], r0
    size_t xBlocks = 0, xMaxSize = 0, xMinSize = SIZE_MAX;
    1f44:	b2000002 	andlt	r0, r0, #2
    1f48:	14000021 	strne	r0, [r0], #-33	@ 0xffffffdf
    1f4c:	ac000000 	stcge	0, cr0, [r0], {-0}
    1f50:	fd050501 	stc2	5, cr0, [r5, #-4]
    vTaskSuspendAll();
    1f54:	02000002 	andeq	r0, r0, #2
        pxBlock = heapPROTECT_BLOCK_POINTER( xStart.pxNextFreeBlock );
    1f58:	00007491 	muleq	r0, r1, r4
        if( pxBlock != NULL )
    1f5c:	000bfa04 	andeq	pc, fp, r4, lsl #20
    1f60:	0601a200 	streq	sl, [r1], -r0, lsl #4
                xBlocks++;
    1f64:	000021a0 	andeq	r2, r0, r0, lsr #3
    1f68:	0000000c 	andeq	r0, r0, ip
                if( pxBlock->xBlockSize > xMaxSize )
    1f6c:	d1179c01 	tstle	r7, r1, lsl #24
    1f70:	01000001 	tsteq	r0, r1
                    xMaxSize = pxBlock->xBlockSize;
    1f74:	ae0c010c 	adfgee	f0, f4, #4.0
    1f78:	46000000 	strmi	r0, [r0], -r0
                if( pxBlock->xBlockSize < xMinSize )
    1f7c:	5a000021 	bpl	2008 <vPortHeapResetState+0x10>
    1f80:	01000000 	mrseq	r0, (UNDEF: 0)
                    xMinSize = pxBlock->xBlockSize;
    1f84:	0002299c 	muleq	r2, ip, r9
    1f88:	214c1800 	cmpcs	ip, r0, lsl #16
                pxBlock = heapPROTECT_BLOCK_POINTER( pxBlock->pxNextFreeBlock );
    1f8c:	00060000 	andeq	r0, r6, r0
            while( pxBlock != pxEnd )
    1f90:	5d190000 	ldcpl	0, cr0, [r9, #-0]
    1f94:	01000010 	tsteq	r0, r0, lsl r0
    1f98:	2e21011c 	mcrcs	1, 1, r0, cr1, cr12, {0}
    ( void ) xTaskResumeAll();
    1f9c:	02000002 	andeq	r0, r0, #2
    pxHeapStats->xSizeOfLargestFreeBlockInBytes = xMaxSize;
    1fa0:	00007491 	muleq	r0, r1, r4
    pxHeapStats->xSizeOfSmallestFreeBlockInBytes = xMinSize;
    1fa4:	0000de03 	andeq	sp, r0, r3, lsl #28
    1fa8:	02290800 	eoreq	r0, r9, #0, 16
    pxHeapStats->xNumberOfFreeBlocks = xBlocks;
    1fac:	851a0000 	ldrhi	r0, [sl, #-0]
    taskENTER_CRITICAL();
    1fb0:	01000010 	tsteq	r0, r0, lsl r0
        pxHeapStats->xAvailableHeapSpaceInBytes = xFreeBytesRemaining;
    1fb4:	21260df7 	strdcs	r0, [r6, -r7]!
    1fb8:	00200000 	eoreq	r0, r0, r0
        pxHeapStats->xNumberOfSuccessfulAllocations = xNumberOfSuccessfulAllocations;
    1fbc:	9c010000 	stcls	0, cr0, [r1], {-0}
    1fc0:	0010751b 	andseq	r7, r0, fp, lsl r5
        pxHeapStats->xNumberOfSuccessfulFrees = xNumberOfSuccessfulFrees;
    1fc4:	06e40100 	strbteq	r0, [r4], r0, lsl #2
    1fc8:	000020fe 	strdeq	r2, [r0], -lr
        pxHeapStats->xMinimumEverFreeBytesRemaining = xMinimumEverFreeBytesRemaining;
    1fcc:	00000028 	andeq	r0, r0, r8, lsr #32
    1fd0:	d61c9c01 	ldrle	r9, [ip], -r1, lsl #24
    taskEXIT_CRITICAL();
    1fd4:	0100000f 	tsteq	r0, pc
}
    1fd8:	20cc0dca 	sbccs	r0, ip, sl, asr #27
    1fdc:	00320000 	eorseq	r0, r2, r0
    1fe0:	9c010000 	stcls	0, cr0, [r1], {-0}
    1fe4:	00000295 	muleq	r0, r5, r2
    1fe8:	000fe709 	andeq	lr, pc, r9, lsl #14
    1fec:	7117cc00 	tstvc	r7, r0, lsl #24
    1ff0:	02000000 	andeq	r0, r0, #0
    1ff4:	f41d7091 			@ <UNDEFINED> instruction: 0xf41d7091
{
    1ff8:	d6000002 	strle	r0, [r0], -r2
    pxEnd = NULL;
    1ffc:	14000020 	strne	r0, [r0], #-32	@ 0xffffffe0
    2000:	01000000 	mrseq	r0, (UNDEF: 0)
    xFreeBytesRemaining = ( size_t ) 0U;
    2004:	fd0505d5 	stc2	5, cr0, [r5, #-852]	@ 0xfffffcac
    xMinimumEverFreeBytesRemaining = ( size_t ) 0U;
    2008:	02000002 	andeq	r0, r0, #2
    200c:	00007491 	muleq	r0, r1, r4
    xNumberOfSuccessfulAllocations = ( size_t ) 0U;
    2010:	0007331e 	andeq	r3, r7, lr, lsl r3
    xNumberOfSuccessfulFrees = ( size_t ) 0U;
    2014:	0fb60100 	svceq	0x00b60100
    2018:	000000cd 	andeq	r0, r0, sp, asr #1
}
    201c:	00002074 	andeq	r2, r0, r4, ror r0
    2020:	00000058 	andeq	r0, r0, r8, asr r0
    2024:	02da9c01 	sbcseq	r9, sl, #256	@ 0x100
    2028:	e0070000 	and	r0, r7, r0
    202c:	b600000b 	strlt	r0, [r0], -fp
    2030:	0000cd34 	andeq	ip, r0, r4, lsr sp
    2034:	74910200 	ldrvc	r0, [r1], #512	@ 0x200
void* memset(void *dst, int value, unsigned int size){
    2038:	000fbc07 	andeq	fp, pc, r7, lsl #24
    203c:	8435b700 	ldrthi	fp, [r5], #-1792	@ 0xfffff900
    2040:	02000000 	andeq	r0, r0, #0
    unsigned char *ptr = (unsigned char* )dst;
    2044:	44077091 	strmi	r7, [r7], #-145	@ 0xffffff6f
    unsigned char byte_value = (unsigned char)value;
    2048:	b8000001 	stmdalt	r0, {r0}
    while(size > 0) {
    204c:	0000a02d 	andeq	sl, r0, sp, lsr #32
        *ptr = byte_value;
    2050:	6c910200 	lfmvs	f0, 4, [r1], {0}
        ptr++;
    2054:	03781f00 	cmneq	r8, #0, 30
    2058:	f8020000 			@ <UNDEFINED> instruction: 0xf8020000
        size--;
    205c:	02f4031e 	rscseq	r0, r4, #2013265920	@ 0x78000000
    while(size > 0) {
    2060:	6b200000 	blvs	802068 <_edata+0x7ffc18>
    2064:	02000008 	andeq	r0, r0, #8
    2068:	006538f8 	strdeq	r3, [r5], #-136	@ 0xffffff78	@ <UNPREDICTABLE>
    206c:	21000000 	mrscs	r0, (UNDEF: 0)
    2070:	00000a08 	andeq	r0, r0, r8, lsl #20
{
    2074:	031ed402 	tsteq	lr, #33554432	@ 0x2000000
    2078:	00064522 	andeq	r4, r6, r2, lsr #10
    207c:	0ed60200 	cdpeq	2, 13, cr0, cr6, cr0, {0}
    pxTopOfStack--;                                                      /* Offset added to account for the way the MCU uses the stack on entry/exit of interrupts. */
    2080:	00000065 	andeq	r0, r0, r5, rrx
    2084:	02960000 	addseq	r0, r6, #0
    *pxTopOfStack = portINITIAL_XPSR;                                    /* xPSR */
    2088:	00050000 	andeq	r0, r5, r0
    208c:	09610401 	stmdbeq	r1!, {r0, sl}^
    pxTopOfStack--;
    2090:	470a0000 	strmi	r0, [sl, -r0]
    *pxTopOfStack = ( ( StackType_t ) pxCode ) & portSTART_ADDRESS_MASK; /* PC */
    2094:	1d000000 	stcne	0, cr0, [r0, #-0]
    2098:	0000109b 	muleq	r0, fp, r0
    209c:	00000007 	andeq	r0, r0, r7
    pxTopOfStack--;
    20a0:	000022d4 	ldrdeq	r2, [r0], -r4
    *pxTopOfStack = ( StackType_t ) portTASK_RETURN_ADDRESS;             /* LR */
    20a4:	0000015e 	andeq	r0, r0, lr, asr r1
    20a8:	00001185 	andeq	r1, r0, r5, lsl #3
    pxTopOfStack -= 5;                                                   /* R12, R3, R2 and R1. */
    20ac:	27070401 	strcs	r0, [r7, -r1, lsl #8]
    *pxTopOfStack = ( StackType_t ) pvParameters;                        /* R0 */
    20b0:	0b000001 	bleq	20bc <pxPortInitialiseStack+0x48>
    20b4:	6e690504 	cdpvs	5, 6, cr0, cr9, cr4, {0}
    pxTopOfStack -= 8;                                                   /* R11, R10, R9, R8, R7, R6, R5 and R4. */
    20b8:	08010074 	stmdaeq	r1, {r2, r4, r5, r6}
    return pxTopOfStack;
    20bc:	0000bf05 	andeq	fp, r0, r5, lsl #30
}
    20c0:	04080100 	streq	r0, [r8], #-256	@ 0xffffff00
    20c4:	000000fb 	strdeq	r0, [r0], -fp
    20c8:	11060101 	tstne	r6, r1, lsl #2
{
    20cc:	01000001 	tsteq	r0, r1
    20d0:	010f0801 	tsteq	pc, r1, lsl #16
    volatile uint32_t ulDummy = 0UL;
    20d4:	02010000 	andeq	r0, r1, #0
    __asm volatile
    20d8:	00009a05 	andeq	r9, r0, r5, lsl #20
    20dc:	07020100 	streq	r0, [r2, -r0, lsl #2]
    20e0:	00000157 	andeq	r0, r0, r7, asr r1
    20e4:	c4050401 	strgt	r0, [r5], #-1025	@ 0xfffffbff
}
    20e8:	01000000 	mrseq	r0, (UNDEF: 0)
    while( ulDummy == 0 )
    20ec:	01220704 			@ <UNDEFINED> instruction: 0x01220704
    20f0:	08010000 	stmdaeq	r1, {}	@ <UNPREDICTABLE>
}
    20f4:	00011d07 	andeq	r1, r1, r7, lsl #26
    20f8:	01040c00 	tsteq	r4, r0, lsl #24
    20fc:	01180801 	tsteq	r8, r1, lsl #16
    __asm volatile (
    2100:	34040000 	strcc	r0, [r4], #-0
    2104:	02000001 	andeq	r0, r0, #1
    2108:	00651934 	rsbeq	r1, r5, r4, lsr r9
    210c:	76040000 	strvc	r0, [r4], -r0
    2110:	03000001 	movweq	r0, #1
    2114:	00651a3c 	rsbeq	r1, r5, ip, lsr sl
    2118:	a8040000 	stmdage	r4, {}	@ <UNPREDICTABLE>
    211c:	03000008 	movweq	r0, #8
    2120:	007c1a42 	rsbseq	r1, ip, r2, asr #20
}
    2124:	94070000 	strls	r0, [r7], #-0
    __asm volatile (
    2128:	08000000 	stmdaeq	r0, {}	@ <UNPREDICTABLE>
    212c:	000002b8 			@ <UNDEFINED> instruction: 0x000002b8
    2130:	ee089014 	mcr	0, 0, r9, cr8, cr4, {0}
    2134:	02000000 	andeq	r0, r0, #0
    2138:	0000095b 	andeq	r0, r0, fp, asr r9
    213c:	00942493 	umullseq	r2, r4, r3, r4
    2140:	02000000 	andeq	r0, r0, #0
}
    2144:	000007cd 	andeq	r0, r0, sp, asr #15
{
    2148:	00ee2d94 	smlaleq	r2, lr, r4, sp
        const portISR_t * const pxVectorTable = portSCB_VTOR_REG;
    214c:	02040000 	andeq	r0, r4, #0
    2150:	000004e4 	andeq	r0, r0, r4, ror #9
    portNVIC_SHPR3_REG |= portNVIC_PENDSV_PRI;
    2154:	00ee2d95 	smlaleq	r2, lr, r5, sp
    2158:	02080000 	andeq	r0, r8, #0
    215c:	00000ace 	andeq	r0, r0, lr, asr #21
    portNVIC_SHPR3_REG |= portNVIC_SYSTICK_PRI;
    2160:	00730c96 			@ <UNDEFINED> instruction: 0x00730c96
    2164:	020c0000 	andeq	r0, ip, #0
    2168:	00000902 	andeq	r0, r0, r2, lsl #18
    portNVIC_SHPR2_REG = 0;
    216c:	01242897 			@ <UNDEFINED> instruction: 0x01242897
    vPortSetupTimerInterrupt();
    2170:	00100000 	andseq	r0, r0, r0
    uxCriticalNesting = 0;
    2174:	0000a505 	andeq	sl, r0, r5, lsl #10
    2178:	05700800 	ldrbeq	r0, [r0, #-2048]!	@ 0xfffff800
    prvPortStartFirstTask();
    217c:	ac140000 	ldcge	0, cr0, [r4], {-0}
    vTaskSwitchContext();
    2180:	00012410 	andeq	r2, r1, r0, lsl r4
    prvTaskExitError();
    2184:	01af0200 			@ <UNDEFINED> instruction: 0x01af0200
}
    2188:	25af0000 	strcs	r0, [pc, #0]!	@ 2190 <xPortStartScheduler+0x4a>
    218c:	00000088 	andeq	r0, r0, r8, lsl #1
    2190:	028a0200 	addeq	r0, sl, #0, 4
    2194:	26b00000 	ldrtcs	r0, [r0], r0
    2198:	00000172 	andeq	r0, r0, r2, ror r1
    219c:	06750204 	ldrbteq	r0, [r5], -r4, lsl #4
{
    21a0:	14b10000 	ldrtne	r0, [r1], #0
}
    21a4:	00000166 	andeq	r0, r0, r6, ror #2
    21a8:	f3050008 	vhadd.u8	d0, d5, d8
{
    21ac:	04000000 	streq	r0, [r0], #-0
    21b0:	0000069a 	muleq	r0, sl, r6
    __asm volatile
    21b4:	a51b9a04 	ldrge	r9, [fp, #-2564]	@ 0xfffff5fc
    21b8:	08000000 	stmdaeq	r0, {}	@ <UNPREDICTABLE>
    21bc:	00000555 	andeq	r0, r0, r5, asr r5
    21c0:	660c9d0c 	strvs	r9, [ip], -ip, lsl #26
}
    21c4:	02000001 	andeq	r0, r0, #1
    uxCriticalNesting++;
    21c8:	0000095b 	andeq	r0, r0, fp, asr r9
    21cc:	009428a0 	addseq	r2, r4, r0, lsr #17
}
    21d0:	02000000 	andeq	r0, r0, #0
    21d4:	000007cd 	andeq	r0, r0, sp, asr #15
    21d8:	00ee31a1 	rsceq	r3, lr, r1, lsr #3
    21dc:	02040000 	andeq	r0, r4, #0
{
    21e0:	000004e4 	andeq	r0, r0, r4, ror #9
    21e4:	00ee31a2 	rsceq	r3, lr, r2, lsr #3
    uxCriticalNesting--;
    21e8:	00080000 	andeq	r0, r8, r0
    21ec:	00069604 	andeq	r9, r6, r4, lsl #12
    if( uxCriticalNesting == 0 )
    21f0:	24a40400 	strtcs	r0, [r4], #1024	@ 0x400
    21f4:	00000135 	andeq	r0, r0, r5, lsr r1
    21f8:	00012905 	andeq	r2, r1, r5, lsl #18
    __asm volatile
    21fc:	01720700 	cmneq	r2, r0, lsl #14
    2200:	94040000 	strls	r0, [r4], #-0
}
    2204:	04000008 	streq	r0, [r0], #-8
    2208:	00f303b3 	ldrhteq	r0, [r3], #51	@ 0x33
    220c:	f50d0000 			@ <UNDEFINED> instruction: 0xf50d0000
    2210:	01000003 	tsteq	r0, r3
    __asm volatile
    2214:	00880dd9 	ldrdeq	r0, [r8], r9
    2218:	23e00000 	mvncs	r0, #0
    221c:	00520000 	subseq	r0, r2, r0
    2220:	9c010000 	stcls	0, cr0, [r1], {-0}
    2224:	000001bf 			@ <UNDEFINED> instruction: 0x000001bf
    2228:	0010b503 	andseq	fp, r0, r3, lsl #10
    222c:	772ed900 	strvc	sp, [lr, -r0, lsl #18]!
    2230:	02000001 	andeq	r0, r0, #1
    2234:	0c066c91 	stceq	12, cr6, [r6], {145}	@ 0x91
    2238:	dd00000c 	stcle	0, cr0, [r0, #-48]	@ 0xffffffd0
    223c:	0001c414 	andeq	ip, r1, r4, lsl r4
    2240:	74910200 	ldrvc	r0, [r1], #512	@ 0x200
    2244:	017c0500 	cmneq	ip, r0, lsl #10
    2248:	bf070000 	svclt	0x00070000
    224c:	09000001 	stmdbeq	r0, {r0}
    2250:	00000aae 	andeq	r0, r0, lr, lsr #21
    2254:	0023708b 	eoreq	r7, r3, fp, lsl #1
}
    2258:	00007000 	andeq	r7, r0, r0
{
    225c:	169c0100 	ldrne	r0, [ip], r0, lsl #2
    __asm volatile
    2260:	03000002 	movweq	r0, #2
    2264:	00000c0c 	andeq	r0, r0, ip, lsl #24
    2268:	01c4228b 	biceq	r2, r4, fp, lsl #5
    226c:	91020000 	mrsls	r0, (UNDEF: 2)
    2270:	10ec036c 	rscne	r0, ip, ip, ror #6
        if( xTaskIncrementTick() != pdFALSE )
    2274:	268c0000 	strcs	r0, [ip], r0
    2278:	00000177 	andeq	r0, r0, r7, ror r1
    227c:	06689102 	strbteq	r9, [r8], -r2, lsl #2
            portNVIC_INT_CTRL_REG = portNVIC_PENDSVSET_BIT;
    2280:	00000ecc 	andeq	r0, r0, ip, asr #29
    2284:	0172128e 	cmneq	r2, lr, lsl #5
    2288:	91020000 	mrsls	r0, (UNDEF: 2)
    __asm volatile
    228c:	10d30674 	sbcsne	r0, r3, r4, ror r6
}
    2290:	168f0000 	strne	r0, [pc], r0
}
    2294:	000000a0 	andeq	r0, r0, r0, lsr #1
    2298:	00709102 	rsbseq	r9, r0, r2, lsl #2
    229c:	0010c409 	andseq	ip, r0, r9, lsl #8
{
    22a0:	232a6900 			@ <UNDEFINED> instruction: 0x232a6900
    portNVIC_SYSTICK_CTRL_REG = 0UL;
    22a4:	00460000 	subeq	r0, r6, r0
    22a8:	9c010000 	stcls	0, cr0, [r1], {-0}
    portNVIC_SYSTICK_CURRENT_VALUE_REG = 0UL;
    22ac:	00000255 	andeq	r0, r0, r5, asr r2
    portNVIC_SYSTICK_LOAD_REG = ( configSYSTICK_CLOCK_HZ / configTICK_RATE_HZ ) - 1UL;
    22b0:	000c0c03 	andeq	r0, ip, r3, lsl #24
    22b4:	c4256900 	strtgt	r6, [r5], #-2304	@ 0xfffff700
    portNVIC_SYSTICK_CTRL_REG = ( portNVIC_SYSTICK_CLK_BIT_CONFIG | portNVIC_SYSTICK_INT_BIT | portNVIC_SYSTICK_ENABLE_BIT );
    22b8:	02000001 	andeq	r0, r0, #1
}
    22bc:	ec036c91 	stc	12, cr6, [r3], {145}	@ 0x91
    22c0:	6a000010 	bvs	2308 <vListInitialise+0x34>
    22c4:	00017729 	andeq	r7, r1, r9, lsr #14
    22c8:	68910200 	ldmvs	r1, {r9}
    22cc:	00028a06 	andeq	r8, r2, r6, lsl #20
    22d0:	77186c00 	ldrvc	r6, [r8, -r0, lsl #24]
{
    22d4:	02000001 	andeq	r0, r0, #1
    22d8:	09007491 	stmdbeq	r0, {r0, r4, r7, sl, ip, sp, lr}
    pxList->pxIndex = ( ListItem_t * ) &( pxList->xListEnd );
    22dc:	00000932 	andeq	r0, r0, r2, lsr r9
    22e0:	00231259 	eoreq	r1, r3, r9, asr r2
    22e4:	00001800 	andeq	r1, r0, r0, lsl #16
    pxList->xListEnd.xItemValue = portMAX_DELAY;
    22e8:	789c0100 	ldmvc	ip, {r8}
    22ec:	03000002 	movweq	r0, #2
    pxList->xListEnd.pxNext = ( ListItem_t * ) &( pxList->xListEnd );
    22f0:	000010e5 	andeq	r1, r0, r5, ror #1
    22f4:	01772e59 	cmneq	r7, r9, asr lr
    pxList->xListEnd.pxPrevious = ( ListItem_t * ) &( pxList->xListEnd );
    22f8:	91020000 	mrsls	r0, (UNDEF: 2)
    22fc:	900e0074 	andls	r0, lr, r4, ror r0
    2300:	0100000a 	tsteq	r0, sl
    pxList->uxNumberOfItems = ( UBaseType_t ) 0U;
    2304:	22d40631 	sbcscs	r0, r4, #51380224	@ 0x3100000
}
    2308:	003e0000 	eorseq	r0, lr, r0
    230c:	9c010000 	stcls	0, cr0, [r1], {-0}
    2310:	000c0c03 	andeq	r0, ip, r3, lsl #24
{
    2314:	c4263100 	strtgt	r3, [r6], #-256	@ 0xffffff00
    2318:	02000001 	andeq	r0, r0, #1
    pxItem->pxContainer = NULL;
    231c:	00007491 	muleq	r0, r1, r4

Disassembly of section .debug_abbrev:

00000000 <.debug_abbrev>:
   0:	10001101 	andne	r1, r0, r1, lsl #2
   4:	12011106 	andne	r1, r1, #-2147483647	@ 0x80000001
   8:	1b0e0301 	blne	380c14 <_edata+0x37e7c4>
   c:	130e250e 	movwne	r2, #58638	@ 0xe50e
  10:	00000005 	andeq	r0, r0, r5
  14:	0b002401 	bleq	9020 <_edata+0x6bd0>
  18:	030b3e0b 	movweq	r3, #48651	@ 0xbe0b
  1c:	0200000e 	andeq	r0, r0, #14
  20:	13490005 	movtne	r0, #36869	@ 0x9005
  24:	16030000 	strne	r0, [r3], -r0
  28:	3a0e0300 	bcc	380c30 <_edata+0x37e7e0>
  2c:	390b3b0b 	stmdbcc	fp, {r0, r1, r3, r8, r9, fp, ip, sp}
  30:	0013490b 	andseq	r4, r3, fp, lsl #18
  34:	000f0400 	andeq	r0, pc, r0, lsl #8
  38:	4904210b 	stmdbmi	r4, {r0, r1, r3, r8, sp}
  3c:	05000013 	streq	r0, [r0, #-19]	@ 0xffffffed
  40:	13490026 	movtne	r0, #36902	@ 0x9026
  44:	34060000 	strcc	r0, [r6], #-0
  48:	3a0e0300 	bcc	380c50 <_edata+0x37e800>
  4c:	0b3b0121 	bleq	ec04d8 <_edata+0xebe088>
  50:	49112139 	ldmdbmi	r1, {r0, r3, r4, r5, r8, sp}
  54:	3c193f13 	ldccc	15, cr3, [r9], {19}
  58:	07000019 	smladeq	r0, r9, r0, r0
  5c:	08030034 	stmdaeq	r3, {r2, r4, r5}
  60:	3b01213a 	blcc	48550 <_edata+0x46100>
  64:	490b390b 	stmdbmi	fp, {r0, r1, r3, r8, fp, ip, sp}
  68:	00180213 	andseq	r0, r8, r3, lsl r2
  6c:	00050800 	andeq	r0, r5, r0, lsl #16
  70:	213a0e03 	teqcs	sl, r3, lsl #28
  74:	390b3b01 	stmdbcc	fp, {r0, r8, r9, fp, ip, sp}
  78:	13491a21 	movtne	r1, #39457	@ 0x9a21
  7c:	00001802 	andeq	r1, r0, r2, lsl #16
  80:	25011109 	strcs	r1, [r1, #-265]	@ 0xfffffef7
  84:	030b130e 	movweq	r1, #45838	@ 0xb30e
  88:	110e1b0e 	tstne	lr, lr, lsl #22
  8c:	10061201 	andne	r1, r6, r1, lsl #4
  90:	0a000017 	beq	f4 <_stext+0xf4>
  94:	0b0b0024 	bleq	2c012c <_edata+0x2bdcdc>
  98:	08030b3e 	stmdaeq	r3, {r1, r2, r3, r4, r5, r8, r9, fp}
  9c:	350b0000 	strcc	r0, [fp, #-0]
  a0:	00134900 	andseq	r4, r3, r0, lsl #18
  a4:	01150c00 	tsteq	r5, r0, lsl #24
  a8:	13011927 	movwne	r1, #6439	@ 0x1927
  ac:	0f0d0000 	svceq	0x000d0000
  b0:	000b0b00 	andeq	r0, fp, r0, lsl #22
  b4:	00130e00 	andseq	r0, r3, r0, lsl #28
  b8:	193c0e03 	ldmdbne	ip!, {r0, r1, r9, sl, fp}
  bc:	2e0f0000 	cdpcs	0, 0, cr0, cr15, cr0, {0}
  c0:	03193f00 	tsteq	r9, #0, 30
  c4:	3b0b3a0e 	blcc	2ce904 <_edata+0x2cc4b4>
  c8:	270b3905 	strcs	r3, [fp, -r5, lsl #18]
  cc:	00193c19 	andseq	r3, r9, r9, lsl ip
  d0:	012e1000 			@ <UNDEFINED> instruction: 0x012e1000
  d4:	0e03193f 			@ <UNDEFINED> instruction: 0x0e03193f
  d8:	053b0b3a 	ldreq	r0, [fp, #-2874]!	@ 0xfffff4c6
  dc:	19270b39 	stmdbne	r7!, {r0, r3, r4, r5, r8, r9, fp}
  e0:	193c1349 	ldmdbne	ip!, {r0, r3, r6, r8, r9, ip}
  e4:	00001301 	andeq	r1, r0, r1, lsl #6
  e8:	3f012e11 	svccc	0x00012e11
  ec:	3a0e0319 	bcc	380d58 <_edata+0x37e908>
  f0:	390b3b0b 	stmdbcc	fp, {r0, r1, r3, r8, r9, fp, ip, sp}
  f4:	1201110b 	andne	r1, r1, #-1073741822	@ 0xc0000002
  f8:	7c184006 	ldcvc	0, cr4, [r8], {6}
  fc:	00130119 	andseq	r0, r3, r9, lsl r1
 100:	00341200 	eorseq	r1, r4, r0, lsl #4
 104:	0b3a0e03 	bleq	e83918 <_edata+0xe814c8>
 108:	0b390b3b 	bleq	e42dfc <_edata+0xe409ac>
 10c:	18021349 	stmdane	r2, {r0, r3, r6, r8, r9, ip}
 110:	2e130000 	cdpcs	0, 1, cr0, cr3, cr0, {0}
 114:	3a0e0301 	bcc	380d20 <_edata+0x37e8d0>
 118:	390b3b0b 	stmdbcc	fp, {r0, r1, r3, r8, r9, fp, ip, sp}
 11c:	1119270b 	tstne	r9, fp, lsl #14
 120:	40061201 	andmi	r1, r6, r1, lsl #4
 124:	01197a18 	tsteq	r9, r8, lsl sl
 128:	14000013 	strne	r0, [r0], #-19	@ 0xffffffed
 12c:	0e03012e 	adfeqsp	f0, f3, #0.5
 130:	0b3b0b3a 	bleq	ec2e20 <_edata+0xec09d0>
 134:	19270b39 	stmdbne	r7!, {r0, r3, r4, r5, r8, r9, fp}
 138:	06120111 			@ <UNDEFINED> instruction: 0x06120111
 13c:	197a1840 	ldmdbne	sl!, {r6, fp, ip}^
 140:	01000000 	mrseq	r0, (UNDEF: 0)
 144:	0e030034 	mcreq	0, 0, r0, cr3, cr4, {1}
 148:	3b01213a 	blcc	48638 <_edata+0x461e8>
 14c:	490b3905 	stmdbmi	fp, {r0, r2, r8, fp, ip, sp}
 150:	00180213 	andseq	r0, r8, r3, lsl r2
 154:	00050200 	andeq	r0, r5, r0, lsl #4
 158:	213a0e03 	teqcs	sl, r3, lsl #28
 15c:	39053b01 	stmdbcc	r5, {r0, r8, r9, fp, ip, sp}
 160:	0213490b 	andseq	r4, r3, #180224	@ 0x2c000
 164:	03000018 	movweq	r0, #24
 168:	0111010b 	tsteq	r1, fp, lsl #2
 16c:	13010612 	movwne	r0, #5650	@ 0x1612
 170:	0f040000 	svceq	0x00040000
 174:	04210b00 	strteq	r0, [r1], #-2816	@ 0xfffff500
 178:	00001349 	andeq	r1, r0, r9, asr #6
 17c:	49002605 	stmdbmi	r0, {r0, r2, r9, sl, sp}
 180:	06000013 			@ <UNDEFINED> instruction: 0x06000013
 184:	0e03000d 	cdpeq	0, 0, cr0, cr3, cr13, {0}
 188:	0b3b0b3a 	bleq	ec2e78 <_edata+0xec0a28>
 18c:	13490b39 	movtne	r0, #39737	@ 0x9b39
 190:	00000b38 	andeq	r0, r0, r8, lsr fp
 194:	03001607 	movweq	r1, #1543	@ 0x607
 198:	3b0b3a0e 	blcc	2ce9d8 <_edata+0x2cc588>
static void vTask1(void *pvParameters){
 19c:	490b390b 	stmdbmi	fp, {r0, r1, r3, r8, fp, ip, sp}
 1a0:	08000013 	stmdaeq	r0, {r0, r1, r4}
    volatile int a = 0;
 1a4:	13490005 	movtne	r0, #36869	@ 0x9005
        a++;
 1a8:	0b090000 	bleq	2401b0 <_edata+0x23dd60>
 1ac:	12011101 	andne	r1, r1, #1073741824	@ 0x40000000
static void vTask2(void *pvParameters){
 1b0:	0a000006 	beq	1d0 <start+0xc>
 1b4:	0b0b0024 	bleq	2c024c <_edata+0x2bddfc>
    volatile int b = 0;
 1b8:	0e030b3e 	vmoveq.16	d3[0], r0
        b++;
 1bc:	350b0000 	strcc	r0, [fp, #-0]
 1c0:	00134900 	andseq	r4, r3, r0, lsl #18
void start(){//<<=== 1. jumping here from boot.S reset_handler: is fine but jumping to function sachin() gives HardFault crash.
 1c4:	012e0c00 			@ <UNDEFINED> instruction: 0x012e0c00
 1c8:	0e03193f 			@ <UNDEFINED> instruction: 0x0e03193f
    uint32_t *src = &_sidata; // source(flash)
 1cc:	3b01213a 	blcc	486bc <_edata+0x4626c>
    uint32_t *dst = &_sdata; // Destination RAM
 1d0:	270b3905 	strcs	r3, [fp, -r5, lsl #18]
        *dst++ = *src++; // copy word and increment pointer
 1d4:	11134919 	tstne	r3, r9, lsl r9
 1d8:	40061201 	andmi	r1, r6, r1, lsl #4
 1dc:	01197c18 	tsteq	r9, r8, lsl ip
 1e0:	0d000013 	stceq	0, cr0, [r0, #-76]	@ 0xffffffb4
    while(dst < &_edata){
 1e4:	0e03000d 	cdpeq	0, 0, cr0, cr3, cr13, {0}
 1e8:	3b01213a 	blcc	486d8 <_edata+0x46288>
    dst = &_sbss;
 1ec:	490b3905 	stmdbmi	fp, {r0, r2, r8, fp, ip, sp}
    while(dst < &_ebss){
 1f0:	000b3813 	andeq	r3, fp, r3, lsl r8
        *dst++ = 0; // zero word and increment pointer
 1f4:	012e0e00 			@ <UNDEFINED> instruction: 0x012e0e00
 1f8:	0e03193f 			@ <UNDEFINED> instruction: 0x0e03193f
    while(dst < &_ebss){
 1fc:	3b01213a 	blcc	486ec <_edata+0x4629c>
 200:	270b3905 	strcs	r3, [fp, -r5, lsl #18]
    xReturn = xTaskCreate(vTask1, "T1",configMINIMAL_STACK_SIZE,NULL,1,NULL);//
 204:	11134919 	tstne	r3, r9, lsl r9
 208:	40061201 	andmi	r1, r6, r1, lsl #4
 20c:	01197a18 	tsteq	r9, r8, lsl sl
 210:	0f000013 	svceq	0x00000013
 214:	13310034 	teqne	r1, #52	@ 0x34
 218:	00001802 	andeq	r1, r0, r2, lsl #16
    xReturn = xTaskCreate(vTask2, "T2",configMINIMAL_STACK_SIZE,NULL,1,NULL);//getting xReturn as -1 debug and foumd memory allocation was failing , few global variables were not holding changed values from heap_4.c files ..... => because .data section is nod defined in .ld script, only .text section is there.
 21c:	49010110 	stmdbmi	r1, {r4, r8}
 220:	00130113 	andseq	r0, r3, r3, lsl r1
 224:	00211100 	eoreq	r1, r1, r0, lsl #2
 228:	0b2f1349 	bleq	bc4f54 <_edata+0xbc2b04>
 22c:	13120000 	tstne	r2, #0
 230:	0b0e0301 	bleq	380e3c <_edata+0x37e9ec>
    vTaskStartScheduler();// if only this call then cpu lockup nothing to execute so does hardfault.
 234:	3b0b3a0b 	blcc	2cea68 <_edata+0x2cc618>
    return;
 238:	010b390b 	tsteq	fp, fp, lsl #18
}
 23c:	13000013 	movwne	r0, #19
 240:	0e030028 	cdpeq	0, 0, cr0, cr3, cr8, {1}
 244:	00000b1c 	andeq	r0, r0, ip, lsl fp
 248:	3f012e14 	svccc	0x00012e14
 24c:	3a0e0319 	bcc	380eb8 <_edata+0x37ea68>
 250:	053b0121 	ldreq	r0, [fp, #-289]!	@ 0xfffffedf
 254:	19270b39 	stmdbne	r7!, {r0, r3, r4, r5, r8, r9, fp}
 258:	06120111 			@ <UNDEFINED> instruction: 0x06120111
 25c:	197a1840 	ldmdbne	sl!, {r6, fp, ip}^
 260:	00001301 	andeq	r1, r0, r1, lsl #6
    {
 264:	03012e15 	movweq	r2, #7701	@ 0x1e15
 268:	01213a0e 			@ <UNDEFINED> instruction: 0x01213a0e
 26c:	0b39053b 	bleq	e41760 <_edata+0xe3f310>
 270:	01111927 	tsteq	r1, r7, lsr #18
            pxStack = pvPortMallocStack( ( ( ( size_t ) uxStackDepth ) * sizeof( StackType_t ) ) );
 274:	18400612 	stmdane	r0, {r1, r4, r9, sl}^
 278:	1301197c 	movwne	r1, #6524	@ 0x197c
 27c:	1d160000 	ldcne	0, cr0, [r6, #-0]
            if( pxStack != NULL )
 280:	11133101 	tstne	r3, r1, lsl #2
                pxNewTCB = ( TCB_t * ) pvPortMalloc( sizeof( TCB_t ) );
 284:	58061201 	stmdapl	r6, {r0, r9, ip}
 288:	05590121 	ldrbeq	r0, [r9, #-289]	@ 0xfffffedf
                if( pxNewTCB != NULL )
 28c:	00000b57 	andeq	r0, r0, r7, asr fp
 290:	3f012e17 	svccc	0x00012e17
                    ( void ) memset( ( void * ) pxNewTCB, 0x00, sizeof( TCB_t ) );
 294:	3a0e0319 	bcc	380f00 <_edata+0x37eab0>
 298:	053b0121 	ldreq	r0, [fp, #-289]!	@ 0xfffffedf
                    pxNewTCB->pxStack = pxStack;
 29c:	27062139 	smladxcs	r6, r9, r1, r2
 2a0:	12011119 	andne	r1, r1, #1073741830	@ 0x40000006
                    vPortFreeStack( pxStack );
 2a4:	7c184006 	ldcvc	0, cr4, [r8], {6}
 2a8:	00130119 	andseq	r0, r3, r9, lsl r1
                pxNewTCB = NULL;
 2ac:	00341800 	eorseq	r1, r4, r0, lsl #16
        if( pxNewTCB != NULL )
 2b0:	213a0e03 	teqcs	sl, r3, lsl #28
 2b4:	390b3b02 	stmdbcc	fp, {r1, r8, r9, fp, ip, sp}
            prvInitialiseNewTask( pxTaskCode, pcName, uxStackDepth, pvParameters, uxPriority, pxCreatedTask, pxNewTCB, NULL );
 2b8:	0013490b 	andseq	r4, r3, fp, lsl #18
 2bc:	012e1900 			@ <UNDEFINED> instruction: 0x012e1900
 2c0:	0e03193f 			@ <UNDEFINED> instruction: 0x0e03193f
 2c4:	3b06213a 	blcc	1887b4 <_edata+0x186364>
 2c8:	06213905 	strteq	r3, [r1], -r5, lsl #18
 2cc:	193c1927 	ldmdbne	ip!, {r0, r1, r2, r5, r8, fp, ip}
 2d0:	00001301 	andeq	r1, r0, r1, lsl #6
    }
 2d4:	3f002e1a 	svccc	0x00002e1a
 2d8:	3a0e0319 	bcc	380f44 <_edata+0x37eaf4>
    {
 2dc:	390b3b0b 	stmdbcc	fp, {r0, r1, r3, r8, r9, fp, ip, sp}
 2e0:	3c19270b 	ldccc	7, cr2, [r9], {11}
 2e4:	1b000019 	blne	350 <prvInitialiseNewTask+0x2e>
 2e8:	193f012e 	ldmdbne	pc!, {r1, r2, r3, r5, r8}	@ <UNPREDICTABLE>
        pxNewTCB = prvCreateTask( pxTaskCode, pcName, uxStackDepth, pvParameters, uxPriority, pxCreatedTask );
 2ec:	0b3a0e03 	bleq	e83b00 <_edata+0xe816b0>
 2f0:	0b390b3b 	bleq	e42fe4 <_edata+0xe40b94>
 2f4:	13491927 	movtne	r1, #39207	@ 0x9927
 2f8:	1301193c 	movwne	r1, #6460	@ 0x193c
 2fc:	051c0000 	ldreq	r0, [ip, #-0]
        if( pxNewTCB != NULL )
 300:	02133100 	andseq	r3, r3, #0, 2
 304:	1d000018 	stcne	0, cr0, [r0, #-96]	@ 0xffffffa0
            prvAddNewTaskToReadyList( pxNewTCB );
 308:	0e030016 	mcreq	0, 0, r0, cr3, cr6, {0}
            xReturn = pdPASS;
 30c:	3b01213a 	blcc	487fc <_edata+0x463ac>
 310:	490b3905 	stmdbmi	fp, {r0, r2, r8, fp, ip, sp}
            xReturn = errCOULD_NOT_ALLOCATE_REQUIRED_MEMORY;
 314:	1e000013 	mcrne	0, 0, r0, cr0, cr3, {0}
        return xReturn;
 318:	1331011d 	teqne	r1, #1073741831	@ 0x40000007
    }
 31c:	06120111 			@ <UNDEFINED> instruction: 0x06120111
 320:	59012158 	stmdbpl	r1, {r3, r4, r6, r8, sp}
{
 324:	32215705 	eorcc	r5, r1, #1310720	@ 0x140000
 328:	00001301 	andeq	r1, r0, r1, lsl #6
 32c:	03002e1f 	movweq	r2, #3615	@ 0xe1f
        pxTopOfStack = &( pxNewTCB->pxStack[ uxStackDepth - ( configSTACK_DEPTH_TYPE ) 1 ] );
 330:	01213a0e 			@ <UNDEFINED> instruction: 0x01213a0e
 334:	2139053b 	teqcs	r9, fp, lsr r5
 338:	1119270d 	tstne	r9, sp, lsl #14
 33c:	40061201 	andmi	r1, r6, r1, lsl #4
 340:	00197a18 	andseq	r7, r9, r8, lsl sl
        pxTopOfStack = ( StackType_t * ) ( ( ( portPOINTER_SIZE_TYPE ) pxTopOfStack ) & ( ~( ( portPOINTER_SIZE_TYPE ) portBYTE_ALIGNMENT_MASK ) ) );
 344:	002e2000 	eoreq	r2, lr, r0
 348:	0e03193f 			@ <UNDEFINED> instruction: 0x0e03193f
    if( pcName != NULL )
 34c:	3b01213a 	blcc	4883c <_edata+0x463ec>
        for( x = ( UBaseType_t ) 0; x < ( UBaseType_t ) configMAX_TASK_NAME_LEN; x++ )
 350:	06213905 	strteq	r3, [r1], -r5, lsl #18
 354:	01111927 	tsteq	r1, r7, lsr #18
            pxNewTCB->pcTaskName[ x ] = pcName[ x ];
 358:	18400612 	stmdane	r0, {r1, r4, r9, sl}^
 35c:	0000197a 	andeq	r1, r0, sl, ror r9
 360:	03012e21 	movweq	r2, #7713	@ 0x1e21
 364:	01213a0e 			@ <UNDEFINED> instruction: 0x01213a0e
 368:	0b39053b 	bleq	e4185c <_edata+0xe3f40c>
            if( pcName[ x ] == ( char ) 0x00 )
 36c:	13491927 	movtne	r1, #39207	@ 0x9927
 370:	06120111 			@ <UNDEFINED> instruction: 0x06120111
 374:	197c1840 	ldmdbne	ip!, {r6, fp, ip}^
        for( x = ( UBaseType_t ) 0; x < ( UBaseType_t ) configMAX_TASK_NAME_LEN; x++ )
 378:	00001301 	andeq	r1, r0, r1, lsl #6
 37c:	03012e22 	movweq	r2, #7714	@ 0x1e22
 380:	02213a0e 	eoreq	r3, r1, #57344	@ 0xe000
                break;
 384:	21390b3b 	teqcs	r9, fp, lsr fp
        pxNewTCB->pcTaskName[ configMAX_TASK_NAME_LEN - 1U ] = '\0';
 388:	2019271e 	andscs	r2, r9, lr, lsl r7
 38c:	13010321 	movwne	r0, #4897	@ 0x1321
    if( uxPriority >= ( UBaseType_t ) configMAX_PRIORITIES )
 390:	05230000 	streq	r0, [r3, #-0]!
        uxPriority = ( UBaseType_t ) configMAX_PRIORITIES - ( UBaseType_t ) 1U;
 394:	3a0e0300 	bcc	380f9c <_edata+0x37eb4c>
    pxNewTCB->uxPriority = uxPriority;
 398:	0b3b0221 	bleq	ec0c24 <_edata+0xebe7d4>
 39c:	13490b39 	movtne	r0, #39737	@ 0x9b39
    vListInitialiseItem( &( pxNewTCB->xStateListItem ) );
 3a0:	11240000 			@ <UNDEFINED> instruction: 0x11240000
 3a4:	130e2501 	movwne	r2, #58625	@ 0xe501
    vListInitialiseItem( &( pxNewTCB->xEventListItem ) );
 3a8:	1b0e030b 	blne	380fdc <_edata+0x37eb8c>
 3ac:	1201110e 	andne	r1, r1, #-2147483645	@ 0x80000003
 3b0:	00171006 	andseq	r1, r7, r6
    listSET_LIST_ITEM_OWNER( &( pxNewTCB->xStateListItem ), pxNewTCB );
 3b4:	00242500 	eoreq	r2, r4, r0, lsl #10
    listSET_LIST_ITEM_VALUE( &( pxNewTCB->xEventListItem ), ( TickType_t ) configMAX_PRIORITIES - ( TickType_t ) uxPriority );
 3b8:	0b3e0b0b 	bleq	f82fec <_edata+0xf80b9c>
 3bc:	00000803 	andeq	r0, r0, r3, lsl #16
 3c0:	0b000f26 	bleq	4060 <_edata+0x1c10>
    listSET_LIST_ITEM_OWNER( &( pxNewTCB->xEventListItem ), pxNewTCB );
 3c4:	2700000b 	strcs	r0, [r0, -fp]
            pxNewTCB->pxTopOfStack = pxPortInitialiseStack( pxTopOfStack, pxTaskCode, pvParameters );
 3c8:	19270115 	stmdbne	r7!, {r0, r2, r4, r8}
 3cc:	00001301 	andeq	r1, r0, r1, lsl #6
 3d0:	03011328 	movweq	r1, #4904	@ 0x1328
 3d4:	3a0b0b0e 	bcc	2c3014 <_edata+0x2c0bc4>
    if( pxCreatedTask != NULL )
 3d8:	39053b0b 	stmdbcc	r5, {r0, r1, r3, r8, r9, fp, ip, sp}
 3dc:	0013010b 	andseq	r0, r3, fp, lsl #2
        *pxCreatedTask = ( TaskHandle_t ) pxNewTCB;
 3e0:	01042900 	tsteq	r4, r0, lsl #18
}
 3e4:	0b0b0b3e 	bleq	2c30e4 <_edata+0x2c0c94>
 3e8:	0b3a1349 	bleq	e85114 <_edata+0xe82cc4>
    {
 3ec:	0b390b3b 	bleq	e430e0 <_edata+0xe40c90>
 3f0:	00001301 	andeq	r1, r0, r1, lsl #6
        taskENTER_CRITICAL();
 3f4:	0300342a 	movweq	r3, #1066	@ 0x42a
            uxCurrentNumberOfTasks = ( UBaseType_t ) ( uxCurrentNumberOfTasks + 1U );
 3f8:	3b0b3a0e 	blcc	2cec38 <_edata+0x2cc7e8>
 3fc:	490b3905 	stmdbmi	fp, {r0, r2, r8, fp, ip, sp}
 400:	02193f13 	andseq	r3, r9, #19, 30	@ 0x4c
            if( pxCurrentTCB == NULL )
 404:	2b000018 	blcs	46c <prvAddNewTaskToReadyList+0x80>
 408:	193f012e 	ldmdbne	pc!, {r1, r2, r3, r5, r8}	@ <UNPREDICTABLE>
                pxCurrentTCB = pxNewTCB;
 40c:	0b3a0e03 	bleq	e83c20 <_edata+0xe817d0>
                if( uxCurrentNumberOfTasks == ( UBaseType_t ) 1 )
 410:	0b39053b 	bleq	e41904 <_edata+0xe3f4b4>
 414:	13491927 	movtne	r1, #39207	@ 0x9927
                    prvInitialiseTaskLists();
 418:	1301193c 	movwne	r1, #6460	@ 0x193c
 41c:	2e2c0000 	cdpcs	0, 2, cr0, cr12, cr0, {0}
                if( xSchedulerRunning == pdFALSE )
 420:	03193f00 	tsteq	r9, #0, 30
 424:	3b0b3a0e 	blcc	2cec64 <_edata+0x2cc814>
                    if( pxCurrentTCB->uxPriority <= pxNewTCB->uxPriority )
 428:	270b390b 	strcs	r3, [fp, -fp, lsl #18]
 42c:	3c134919 			@ <UNDEFINED> instruction: 0x3c134919
 430:	2d000019 	stccs	0, cr0, [r0, #-100]	@ 0xffffff9c
                        pxCurrentTCB = pxNewTCB;
 434:	193f012e 	ldmdbne	pc!, {r1, r2, r3, r5, r8}	@ <UNPREDICTABLE>
 438:	0b3a0e03 	bleq	e83c4c <_edata+0xe817fc>
            uxTaskNumber++;
 43c:	0b390b3b 	bleq	e43130 <_edata+0xe40ce0>
 440:	193c1927 	ldmdbne	ip!, {r0, r1, r2, r5, r8, fp, ip}
            prvAddTaskToReadyList( pxNewTCB );
 444:	00001301 	andeq	r1, r0, r1, lsl #6
 448:	3f002e2e 	svccc	0x00002e2e
 44c:	3a0e0319 	bcc	3810b8 <_edata+0x37ec68>
 450:	39053b0b 	stmdbcc	r5, {r0, r1, r3, r8, r9, fp, ip, sp}
 454:	4919270b 	ldmdbmi	r9, {r0, r1, r3, r8, r9, sl, sp}
 458:	12011113 	andne	r1, r1, #-1073741820	@ 0xc0000004
 45c:	7a184006 	bvc	61047c <_edata+0x60e02c>
 460:	2f000019 	svccs	0x00000019
 464:	08030034 	stmdaeq	r3, {r2, r4, r5}
 468:	053b0b3a 	ldreq	r0, [fp, #-2874]!	@ 0xfffff4c6
 46c:	13490b39 	movtne	r0, #39737	@ 0x9b39
 470:	00001802 	andeq	r1, r0, r2, lsl #16
 474:	03012e30 	movweq	r2, #7728	@ 0x1e30
 478:	3b0b3a0e 	blcc	2cecb8 <_edata+0x2cc868>
 47c:	270b390b 	strcs	r3, [fp, -fp, lsl #18]
 480:	20134919 	andscs	r4, r3, r9, lsl r9
 484:	0013010b 	andseq	r0, r3, fp, lsl #2
 488:	012e3100 			@ <UNDEFINED> instruction: 0x012e3100
 48c:	0b3a0e03 	bleq	e83ca0 <_edata+0xe81850>
 490:	0b390b3b 	bleq	e43184 <_edata+0xe40d34>
 494:	13491927 	movtne	r1, #39207	@ 0x9927
 498:	00000b20 	andeq	r0, r0, r0, lsr #22
 49c:	00340100 	eorseq	r0, r4, r0, lsl #2
 4a0:	213a0e03 	teqcs	sl, r3, lsl #28
 4a4:	390b3b01 	stmdbcc	fp, {r0, r8, r9, fp, ip, sp}
 4a8:	0213490b 	andseq	r4, r3, #180224	@ 0x2c000
 4ac:	02000018 	andeq	r0, r0, #24
 4b0:	0b0b0024 	bleq	2c0548 <_edata+0x2be0f8>
 4b4:	0e030b3e 	vmoveq.16	d3[0], r0
 4b8:	34030000 	strcc	r0, [r3], #-0
 4bc:	3a0e0300 	bcc	3810c4 <_edata+0x37ec74>
 4c0:	053b0121 	ldreq	r0, [fp, #-289]!	@ 0xfffffedf
 4c4:	13490b39 	movtne	r0, #39737	@ 0x9b39
        taskEXIT_CRITICAL();
 4c8:	00001802 	andeq	r1, r0, r2, lsl #16
        if( xSchedulerRunning != pdFALSE )
 4cc:	03000d04 	movweq	r0, #3332	@ 0xd04
 4d0:	3b0b3a0e 	blcc	2ced10 <_edata+0x2cc8c0>
            taskYIELD_ANY_CORE_IF_USING_PREEMPTION( pxNewTCB );
 4d4:	490b390b 	stmdbmi	fp, {r0, r1, r3, r8, fp, ip, sp}
 4d8:	000b3813 	andeq	r3, fp, r3, lsl r8
 4dc:	00160500 	andseq	r0, r6, r0, lsl #10
 4e0:	0b3a0e03 	bleq	e83cf4 <_edata+0xe818a4>
 4e4:	0b390b3b 	bleq	e431d8 <_edata+0xe40d88>
 4e8:	00001349 	andeq	r1, r0, r9, asr #6
 4ec:	0b000f06 	bleq	410c <_edata+0x1cbc>
    }
 4f0:	13490421 	movtne	r0, #37921	@ 0x9421
 4f4:	05070000 	streq	r0, [r7, #-0]
 4f8:	3a0e0300 	bcc	381100 <_edata+0x37ecb0>
 4fc:	053b0121 	ldreq	r0, [fp, #-289]!	@ 0xfffffedf
 500:	13490b39 	movtne	r0, #39737	@ 0x9b39
 504:	00001802 	andeq	r1, r0, r2, lsl #16
 508:	49000508 	stmdbmi	r0, {r3, r8, sl}
 50c:	09000013 	stmdbeq	r0, {r0, r1, r4}
 510:	193f002e 	ldmdbne	pc!, {r1, r2, r3, r5}	@ <UNPREDICTABLE>
{
 514:	213a0e03 	teqcs	sl, r3, lsl #28
 518:	39053b01 	stmdbcc	r5, {r0, r8, r9, fp, ip, sp}
    BaseType_t xReturn = pdPASS;
 51c:	19270621 	stmdbne	r7!, {r0, r5, r9, sl}
    char cIdleName[ configMAX_TASK_NAME_LEN ] = { 0 };
 520:	06120111 			@ <UNDEFINED> instruction: 0x06120111
 524:	197a1840 	ldmdbne	sl!, {r6, fp, ip}^
 528:	340a0000 	strcc	r0, [sl], #-0
    TaskFunction_t pxIdleTaskFunction = NULL;
 52c:	3a080300 	bcc	201134 <_edata+0x1fece4>
    for( xIdleTaskNameIndex = 0U; xIdleTaskNameIndex < ( configMAX_TASK_NAME_LEN - taskRESERVED_TASK_NAME_LENGTH ); xIdleTaskNameIndex++ )
 530:	053b0121 	ldreq	r0, [fp, #-289]!	@ 0xfffffedf
        cIdleName[ xIdleTaskNameIndex ] = configIDLE_TASK_NAME[ xIdleTaskNameIndex ];
 534:	13490b39 	movtne	r0, #39737	@ 0x9b39
 538:	00001802 	andeq	r1, r0, r2, lsl #16
 53c:	0301130b 	movweq	r1, #4875	@ 0x130b
 540:	3a0b0b0e 	bcc	2c3180 <_edata+0x2c0d30>
 544:	390b3b0b 	stmdbcc	fp, {r0, r1, r3, r8, r9, fp, ip, sp}
        if( cIdleName[ xIdleTaskNameIndex ] == ( char ) 0x00 )
 548:	13011021 	movwne	r1, #4129	@ 0x1021
 54c:	2e0c0000 	cdpcs	0, 0, cr0, cr12, cr0, {0}
 550:	03193f00 	tsteq	r9, #0, 30
    for( xIdleTaskNameIndex = 0U; xIdleTaskNameIndex < ( configMAX_TASK_NAME_LEN - taskRESERVED_TASK_NAME_LENGTH ); xIdleTaskNameIndex++ )
 554:	04213a0e 	strteq	r3, [r1], #-2574	@ 0xfffff5f2
 558:	21390b3b 	teqcs	r9, fp, lsr fp
 55c:	3c19270d 	ldccc	7, cr2, [r9], {13}
            break;
 560:	0d000019 	stceq	0, cr0, [r0, #-100]	@ 0xffffff9c
    cIdleName[ xIdleTaskNameIndex ] = '\0';
 564:	193f012e 	ldmdbne	pc!, {r1, r2, r3, r5, r8}	@ <UNPREDICTABLE>
 568:	213a0e03 	teqcs	sl, r3, lsl #28
    for( xCoreID = ( BaseType_t ) 0; xCoreID < ( BaseType_t ) configNUMBER_OF_CORES; xCoreID++ )
 56c:	39053b01 	stmdbcc	r5, {r0, r8, r9, fp, ip, sp}
 570:	19270621 	stmdbne	r7!, {r0, r5, r9, sl}
            pxIdleTaskFunction = &prvIdleTask;
 574:	06120111 			@ <UNDEFINED> instruction: 0x06120111
            xReturn = xTaskCreate( pxIdleTaskFunction,
 578:	197c1840 	ldmdbne	ip!, {r6, fp, ip}^
 57c:	00001301 	andeq	r1, r0, r1, lsl #6
 580:	03012e0e 	movweq	r2, #7694	@ 0x1e0e
 584:	01213a0e 			@ <UNDEFINED> instruction: 0x01213a0e
 588:	2139053b 	teqcs	r9, fp, lsr r5
 58c:	1119270d 	tstne	r9, sp, lsl #14
 590:	40061201 	andmi	r1, r6, r1, lsl #4
        if( xReturn != pdPASS )
 594:	01197a18 	tsteq	r9, r8, lsl sl
 598:	0f000013 	svceq	0x00000013
    for( xCoreID = ( BaseType_t ) 0; xCoreID < ( BaseType_t ) configNUMBER_OF_CORES; xCoreID++ )
 59c:	193f002e 	ldmdbne	pc!, {r1, r2, r3, r5}	@ <UNPREDICTABLE>
 5a0:	213a0e03 	teqcs	sl, r3, lsl #28
 5a4:	39053b01 	stmdbcc	r5, {r0, r8, r9, fp, ip, sp}
            break;
 5a8:	19270821 	stmdbne	r7!, {r0, r5, fp}
}
 5ac:	01111349 	tsteq	r1, r9, asr #6
 5b0:	18400612 	stmdane	r0, {r1, r4, r9, sl}^
 5b4:	0000197a 	andeq	r1, r0, sl, ror r9
 5b8:	25011110 	strcs	r1, [r1, #-272]	@ 0xfffffef0
 5bc:	030b130e 	movweq	r1, #45838	@ 0xb30e
{
 5c0:	110e1b0e 	tstne	lr, lr, lsl #22
 5c4:	10061201 	andne	r1, r6, r1, lsl #4
    xReturn = prvCreateIdleTasks();
 5c8:	11000017 	tstne	r0, r7, lsl r0
    if( xReturn == pdPASS )
 5cc:	13490026 	movtne	r0, #36902	@ 0x9026
 5d0:	24120000 	ldrcs	r0, [r2], #-0
    __asm volatile
 5d4:	3e0b0b00 	vmlacc.f64	d0, d11, d0
 5d8:	0008030b 	andeq	r0, r8, fp, lsl #6
 5dc:	000f1300 	andeq	r1, pc, r0, lsl #6
 5e0:	00000b0b 	andeq	r0, r0, fp, lsl #22
}
 5e4:	49010114 	stmdbmi	r1, {r2, r4, r8}
        xNextTaskUnblockTime = portMAX_DELAY;
 5e8:	00130113 	andseq	r0, r3, r3, lsl r1
 5ec:	00211500 	eoreq	r1, r1, r0, lsl #10
        xSchedulerRunning = pdTRUE;
 5f0:	052f1349 	streq	r1, [pc, #-841]!	@ 2af <prvCreateTask+0x4b>
        xTickCount = ( TickType_t ) configINITIAL_TICK_COUNT;
 5f4:	2e160000 	cdpcs	0, 1, cr0, cr6, cr0, {0}
 5f8:	03193f01 	tsteq	r9, #1, 30
        ( void ) xPortStartScheduler();
 5fc:	3b0b3a0e 	blcc	2cee3c <_edata+0x2cc9ec>
    ( void ) uxTopUsedPriority;
 600:	270b390b 	strcs	r3, [fp, -fp, lsl #18]
}
 604:	3c134919 			@ <UNDEFINED> instruction: 0x3c134919
 608:	00130119 	andseq	r0, r3, r9, lsl r1
 60c:	002e1700 	eoreq	r1, lr, r0, lsl #14
 610:	0e03193f 			@ <UNDEFINED> instruction: 0x0e03193f
 614:	053b0b3a 	ldreq	r0, [fp, #-2874]!	@ 0xfffff4c6
 618:	19270b39 	stmdbne	r7!, {r0, r3, r4, r5, r8, r9, fp}
{
 61c:	193c1349 	ldmdbne	ip!, {r0, r3, r6, r8, r9, ip}
 620:	2e180000 	cdpcs	0, 1, cr0, cr8, cr0, {0}
    __asm volatile
 624:	03193f00 	tsteq	r9, #0, 30
 628:	3b0b3a0e 	blcc	2cee68 <_edata+0x2cca18>
 62c:	270b3905 	strcs	r3, [fp, -r5, lsl #18]
 630:	00193c19 	andseq	r3, r9, r9, lsl ip
}
 634:	012e1900 			@ <UNDEFINED> instruction: 0x012e1900
    xSchedulerRunning = pdFALSE;
 638:	0e03193f 			@ <UNDEFINED> instruction: 0x0e03193f
    vPortEndScheduler();
 63c:	053b0b3a 	ldreq	r0, [fp, #-2874]!	@ 0xfffff4c6
}
 640:	19270b39 	stmdbne	r7!, {r0, r3, r4, r5, r8, r9, fp}
 644:	01111349 	tsteq	r1, r9, asr #6
 648:	18400612 	stmdane	r0, {r1, r4, r9, sl}^
{
 64c:	1301197c 	movwne	r1, #6524	@ 0x197c
        uxSchedulerSuspended = ( UBaseType_t ) ( uxSchedulerSuspended + 1U );
 650:	051a0000 	ldreq	r0, [sl, #-0]
 654:	3a080300 	bcc	20125c <_edata+0x1fee0c>
 658:	39053b0b 	stmdbcc	r5, {r0, r1, r3, r8, r9, fp, ip, sp}
}
 65c:	0213490b 	andseq	r4, r3, #180224	@ 0x2c000
 660:	1b000018 	blne	6c8 <xTaskResumeAll+0x60>
 664:	193f012e 	ldmdbne	pc!, {r1, r2, r3, r5, r8}	@ <UNPREDICTABLE>
{
 668:	0b3a0e03 	bleq	e83e7c <_edata+0xe81a2c>
 66c:	0b390b3b 	bleq	e43360 <_edata+0xe40f10>
    TCB_t * pxTCB = NULL;
 670:	13491927 	movtne	r1, #39207	@ 0x9927
    BaseType_t xAlreadyYielded = pdFALSE;
 674:	06120111 			@ <UNDEFINED> instruction: 0x06120111
        taskENTER_CRITICAL();
 678:	197c1840 	ldmdbne	ip!, {r6, fp, ip}^
            const BaseType_t xCoreID = ( BaseType_t ) portGET_CORE_ID();
 67c:	051c0000 	ldreq	r0, [ip, #-0]
            uxSchedulerSuspended = ( UBaseType_t ) ( uxSchedulerSuspended - 1U );
 680:	3a0e0300 	bcc	381288 <_edata+0x37ee38>
 684:	390b3b0b 	stmdbcc	fp, {r0, r1, r3, r8, r9, fp, ip, sp}
            if( uxSchedulerSuspended == ( UBaseType_t ) 0U )
 688:	0213490b 	andseq	r4, r3, #180224	@ 0x2c000
 68c:	00000018 	andeq	r0, r0, r8, lsl r0
 690:	03000501 	movweq	r0, #1281	@ 0x501
                if( uxCurrentNumberOfTasks > ( UBaseType_t ) 0U )
 694:	01213a0e 			@ <UNDEFINED> instruction: 0x01213a0e
 698:	3903213b 	stmdbcc	r3, {r0, r1, r3, r4, r5, r8, sp}
                    while( listLIST_IS_EMPTY( &xPendingReadyList ) == pdFALSE )
 69c:	0213490b 	andseq	r4, r3, #180224	@ 0x2c000
                        pxTCB = listGET_OWNER_OF_HEAD_ENTRY( ( &xPendingReadyList ) );
 6a0:	02000018 	andeq	r0, r0, #24
 6a4:	0b0b0024 	bleq	2c073c <_edata+0x2be2ec>
                        listREMOVE_ITEM( &( pxTCB->xEventListItem ) );
 6a8:	0e030b3e 	vmoveq.16	d3[0], r0
 6ac:	11030000 	mrsne	r0, (UNDEF: 3)
 6b0:	130e2501 	movwne	r2, #58625	@ 0xe501
 6b4:	1b0e030b 	blne	3812e8 <_edata+0x37ee98>
 6b8:	1201110e 	andne	r1, r1, #-2147483645	@ 0x80000003
 6bc:	00171006 	andseq	r1, r7, r6
 6c0:	012e0400 			@ <UNDEFINED> instruction: 0x012e0400
 6c4:	0e03193f 			@ <UNDEFINED> instruction: 0x0e03193f
 6c8:	0b3b0b3a 	bleq	ec33b8 <_edata+0xec0f68>
 6cc:	19270b39 	stmdbne	r7!, {r0, r3, r4, r5, r8, r9, fp}
 6d0:	01111349 	tsteq	r1, r9, asr #6
 6d4:	18400612 	stmdane	r0, {r1, r4, r9, sl}^
 6d8:	1301197a 	movwne	r1, #6522	@ 0x197a
 6dc:	05050000 	streq	r0, [r5, #-0]
 6e0:	3a080300 	bcc	2012e8 <_edata+0x1fee98>
                        listREMOVE_ITEM( &( pxTCB->xStateListItem ) );
 6e4:	390b3b0b 	stmdbcc	fp, {r0, r1, r3, r8, r9, fp, ip, sp}
 6e8:	0213490b 	andseq	r4, r3, #180224	@ 0x2c000
 6ec:	06000018 			@ <UNDEFINED> instruction: 0x06000018
 6f0:	08030034 	stmdaeq	r3, {r2, r4, r5}
 6f4:	0b3b0b3a 	bleq	ec33e4 <_edata+0xec0f94>
 6f8:	13490b39 	movtne	r0, #39737	@ 0x9b39
 6fc:	00001802 	andeq	r1, r0, r2, lsl #16
 700:	03003407 	movweq	r3, #1031	@ 0x407
 704:	3b0b3a0e 	blcc	2cef44 <_edata+0x2ccaf4>
 708:	490b390b 	stmdbmi	fp, {r0, r1, r3, r8, fp, ip, sp}
 70c:	00180213 	andseq	r0, r8, r3, lsl r2
 710:	000f0800 	andeq	r0, pc, r0, lsl #16
 714:	00000b0b 	andeq	r0, r0, fp, lsl #22
 718:	0b002409 	bleq	9744 <_edata+0x72f4>
 71c:	030b3e0b 	movweq	r3, #48651	@ 0xbe0b
 720:	0a000008 	beq	748 <xTaskResumeAll+0xe0>
                        prvAddTaskToReadyList( pxTCB );
 724:	0b0b000f 	bleq	2c0768 <_edata+0x2be318>
 728:	00001349 	andeq	r1, r0, r9, asr #6
 72c:	00240100 	eoreq	r0, r4, r0, lsl #2
 730:	0b3e0b0b 	bleq	f83364 <_edata+0xf80f14>
 734:	00000e03 	andeq	r0, r0, r3, lsl #28
 738:	03001602 	movweq	r1, #1538	@ 0x602
 73c:	3b0b3a0e 	blcc	2cef7c <_edata+0x2ccb2c>
 740:	490b390b 	stmdbmi	fp, {r0, r1, r3, r8, fp, ip, sp}
 744:	03000013 	movweq	r0, #19
 748:	210b000f 	tstcs	fp, pc
 74c:	00134904 	andseq	r4, r3, r4, lsl #18
 750:	002e0400 	eoreq	r0, lr, r0, lsl #8
 754:	0e03193f 			@ <UNDEFINED> instruction: 0x0e03193f
 758:	3b01213a 	blcc	48c48 <_edata+0x467f8>
 75c:	270b3905 	strcs	r3, [fp, -r5, lsl #18]
 760:	12011119 	andne	r1, r1, #1073741830	@ 0x40000006
 764:	7a184006 	bvc	610784 <_edata+0x60e334>
 768:	05000019 	streq	r0, [r0, #-25]	@ 0xffffffe7
 76c:	13310034 	teqne	r1, #52	@ 0x34
 770:	00001802 	andeq	r1, r0, r2, lsl #16
 774:	31011d06 	tstcc	r1, r6, lsl #26
 778:	12011113 	andne	r1, r1, #-1073741820	@ 0xc0000004
 77c:	01215806 			@ <UNDEFINED> instruction: 0x01215806
 780:	0b570559 	bleq	15c1cec <_edata+0x15bf89c>
 784:	05070000 	streq	r0, [r7, #-0]
 788:	3a0e0300 	bcc	381390 <_edata+0x37ef40>
 78c:	0b3b0121 	bleq	ec0c18 <_edata+0xebe7c8>
 790:	13490b39 	movtne	r0, #39737	@ 0x9b39
 794:	00001802 	andeq	r1, r0, r2, lsl #16
 798:	49002608 	stmdbmi	r0, {r3, r9, sl, sp}
 79c:	09000013 	stmdbeq	r0, {r0, r1, r4}
 7a0:	0e030034 	mcreq	0, 0, r0, cr3, cr4, {1}
                            if( pxTCB->uxPriority > pxCurrentTCB->uxPriority )
 7a4:	3b01213a 	blcc	48c94 <_edata+0x46844>
 7a8:	490b390b 	stmdbmi	fp, {r0, r1, r3, r8, fp, ip, sp}
 7ac:	00180213 	andseq	r0, r8, r3, lsl r2
 7b0:	00050a00 	andeq	r0, r5, r0, lsl #20
                                xYieldPendings[ xCoreID ] = pdTRUE;
 7b4:	18021331 	stmdane	r2, {r0, r4, r5, r8, r9, ip}
 7b8:	2e0b0000 	cdpcs	0, 0, cr0, cr11, cr0, {0}
                    while( listLIST_IS_EMPTY( &xPendingReadyList ) == pdFALSE )
 7bc:	03193f01 	tsteq	r9, #1, 30
 7c0:	01213a0e 			@ <UNDEFINED> instruction: 0x01213a0e
 7c4:	2139053b 	teqcs	r9, fp, lsr r5
                    if( pxTCB != NULL )
 7c8:	11192706 	tstne	r9, r6, lsl #14
                        prvResetNextTaskUnblockTime();
 7cc:	40061201 	andmi	r1, r6, r1, lsl #4
                        TickType_t xPendedCounts = xPendedTicks; /* Non-volatile copy. */
 7d0:	01197a18 	tsteq	r9, r8, lsl sl
 7d4:	0c000013 	stceq	0, cr0, [r0], {19}
                        if( xPendedCounts > ( TickType_t ) 0U )
 7d8:	0e250111 	mcreq	1, 1, r0, cr5, cr1, {0}
                                if( xTaskIncrementTick() != pdFALSE )
 7dc:	0e030b13 	vmoveq.32	d3[0], r0
 7e0:	01110e1b 	tsteq	r1, fp, lsl lr
 7e4:	17100612 			@ <UNDEFINED> instruction: 0x17100612
                                    xYieldPendings[ xCoreID ] = pdTRUE;
 7e8:	240d0000 	strcs	r0, [sp], #-0
 7ec:	3e0b0b00 	vmlacc.f64	d0, d11, d0
                                --xPendedCounts;
 7f0:	0008030b 	andeq	r0, r8, fp, lsl #6
 7f4:	00350e00 	eorseq	r0, r5, r0, lsl #28
                            } while( xPendedCounts > ( TickType_t ) 0U );
 7f8:	00001349 	andeq	r1, r0, r9, asr #6
                            xPendedTicks = 0;
 7fc:	2701150f 	strcs	r1, [r1, -pc, lsl #10]
 800:	00130119 	andseq	r0, r3, r9, lsl r1
                    if( xYieldPendings[ xCoreID ] != pdFALSE )
 804:	00051000 	andeq	r1, r5, r0
 808:	00001349 	andeq	r1, r0, r9, asr #6
 80c:	0b000f11 	bleq	4458 <_edata+0x2008>
                            xAlreadyYielded = pdTRUE;
 810:	1200000b 	andne	r0, r0, #11
                            taskYIELD_TASK_CORE_IF_USING_PREEMPTION( pxCurrentTCB );
 814:	19270015 	stmdbne	r7!, {r0, r2, r4}
 818:	2e130000 	cdpcs	0, 1, cr0, cr3, cr0, {0}
 81c:	03193f00 	tsteq	r9, #0, 30
 820:	3b0b3a0e 	blcc	2cf060 <_edata+0x2ccc10>
 824:	270b3905 	strcs	r3, [fp, -r5, lsl #18]
        taskEXIT_CRITICAL();
 828:	3c134919 			@ <UNDEFINED> instruction: 0x3c134919
}
 82c:	14000019 	strne	r0, [r0], #-25	@ 0xffffffe7
 830:	193f002e 	ldmdbne	pc!, {r1, r2, r3, r5}	@ <UNPREDICTABLE>
 834:	0b3a0e03 	bleq	e84048 <_edata+0xe81bf8>
 838:	0b39053b 	bleq	e41d2c <_edata+0xe3f8dc>
 83c:	193c1927 	ldmdbne	ip!, {r0, r1, r2, r5, r8, fp, ip}
 840:	2e150000 	cdpcs	0, 1, cr0, cr5, cr0, {0}
 844:	03193f01 	tsteq	r9, #1, 30
 848:	3b0b3a0e 	blcc	2cf088 <_edata+0x2ccc38>
 84c:	270b3905 	strcs	r3, [fp, -r5, lsl #18]
 850:	12011119 	andne	r1, r1, #1073741830	@ 0x40000006
 854:	7c184006 	ldcvc	0, cr4, [r8], {6}
{
 858:	00130119 	andseq	r0, r3, r9, lsl r1
 85c:	011d1600 	tsteq	sp, r0, lsl #12
        xTicks = xTickCount;
 860:	01111331 	tsteq	r1, r1, lsr r3
    return xTicks;
 864:	0b580612 	bleq	16020b4 <_edata+0x15ffc64>
}
 868:	0b570559 	bleq	15c1dd4 <_edata+0x15bf984>
 86c:	00001301 	andeq	r1, r0, r1, lsl #6
 870:	3f012e17 	svccc	0x00012e17
{
 874:	3a0e0319 	bcc	3814e0 <_edata+0x37f090>
 878:	39053b0b 	stmdbcc	r5, {r0, r1, r3, r8, r9, fp, ip, sp}
    uxSavedInterruptStatus = portTICK_TYPE_SET_INTERRUPT_MASK_FROM_ISR();
 87c:	4919270b 	ldmdbmi	r9, {r0, r1, r3, r8, r9, sl, sp}
        xReturn = xTickCount;
 880:	12011113 	andne	r1, r1, #-1073741820	@ 0xc0000004
    return xReturn;
 884:	7c184006 	ldcvc	0, cr4, [r8], {6}
}
 888:	00130119 	andseq	r0, r3, r9, lsl r1
 88c:	010b1800 	tsteq	fp, r0, lsl #16
 890:	06120111 			@ <UNDEFINED> instruction: 0x06120111
{
 894:	34190000 	ldrcc	r0, [r9], #-0
    return uxCurrentNumberOfTasks;
 898:	3a0e0300 	bcc	3814a0 <_edata+0x37f050>
}
 89c:	39053b0b 	stmdbcc	r5, {r0, r1, r3, r8, r9, fp, ip, sp}
 8a0:	0213490b 	andseq	r4, r3, #180224	@ 0x2c000
 8a4:	1a000018 	bne	90c <xTaskIncrementTick+0x4>
{
 8a8:	0e03002e 	cdpeq	0, 0, cr0, cr3, cr14, {1}
 8ac:	0b3b0b3a 	bleq	ec359c <_edata+0xec114c>
    pxTCB = prvGetTCBFromHandle( xTaskToQuery );
 8b0:	19270b39 	stmdbne	r7!, {r0, r3, r4, r5, r8, r9, fp}
 8b4:	06120111 			@ <UNDEFINED> instruction: 0x06120111
 8b8:	197a1840 	ldmdbne	sl!, {r6, fp, ip}^
 8bc:	2e1b0000 	cdpcs	0, 1, cr0, cr11, cr0, {0}
    return &( pxTCB->pcTaskName[ 0 ] );
 8c0:	03193f00 	tsteq	r9, #0, 30
}
 8c4:	3b0b3a0e 	blcc	2cf104 <_edata+0x2cccb4>
 8c8:	270b390b 	strcs	r3, [fp, -fp, lsl #18]
 8cc:	12011119 	andne	r1, r1, #1073741830	@ 0x40000006
 8d0:	7a184006 	bvc	6108f0 <_edata+0x60e4a0>
{
 8d4:	1c000019 	stcne	0, cr0, [r0], {25}
 8d8:	0e03012e 	adfeqsp	f0, f3, #0.5
    vTaskSuspendAll();
 8dc:	0b3b0b3a 	bleq	ec35cc <_edata+0xec117c>
    taskENTER_CRITICAL();
 8e0:	19270b39 	stmdbne	r7!, {r0, r3, r4, r5, r8, r9, fp}
        xPendedTicks += xTicksToCatchUp;
 8e4:	06120111 			@ <UNDEFINED> instruction: 0x06120111
 8e8:	197a1840 	ldmdbne	sl!, {r6, fp, ip}^
 8ec:	00001301 	andeq	r1, r0, r1, lsl #6
    taskEXIT_CRITICAL();
 8f0:	31011d1d 	tstcc	r1, sp, lsl sp
    xYieldOccurred = xTaskResumeAll();
 8f4:	12011113 	andne	r1, r1, #-1073741820	@ 0xc0000004
 8f8:	590b5806 	stmdbpl	fp, {r1, r2, fp, ip, lr}
}
 8fc:	000b570b 	andeq	r5, fp, fp, lsl #14
 900:	012e1e00 			@ <UNDEFINED> instruction: 0x012e1e00
 904:	0e03193f 			@ <UNDEFINED> instruction: 0x0e03193f
{
 908:	0b3b0b3a 	bleq	ec35f8 <_edata+0xec11a8>
 90c:	19270b39 	stmdbne	r7!, {r0, r3, r4, r5, r8, r9, fp}
    BaseType_t xSwitchRequired = pdFALSE;
 910:	01111349 	tsteq	r1, r9, asr #6
    if( uxSchedulerSuspended == ( UBaseType_t ) 0U )
 914:	18400612 	stmdane	r0, {r1, r4, r9, sl}^
 918:	1301197a 	movwne	r1, #6522	@ 0x197a
        const TickType_t xConstTickCount = xTickCount + ( TickType_t ) 1;
 91c:	2e1f0000 	cdpcs	0, 1, cr0, cr15, cr0, {0}
 920:	3a0e0301 	bcc	38152c <_edata+0x37f0dc>
        xTickCount = xConstTickCount;
 924:	390b3b0b 	stmdbcc	fp, {r0, r1, r3, r8, r9, fp, ip, sp}
 928:	2019270b 	andscs	r2, r9, fp, lsl #14
        if( xConstTickCount == ( TickType_t ) 0U )
 92c:	0013010b 	andseq	r0, r3, fp, lsl #2
            taskSWITCH_DELAYED_LISTS();
 930:	00052000 	andeq	r2, r5, r0
 934:	0b3a0e03 	bleq	e84148 <_edata+0xe81cf8>
 938:	0b390b3b 	bleq	e4362c <_edata+0xe411dc>
 93c:	00001349 	andeq	r1, r0, r9, asr #6
 940:	03012e21 	movweq	r2, #7713	@ 0x1e21
 944:	3b0b3a0e 	blcc	2cf184 <_edata+0x2ccd34>
 948:	270b390b 	strcs	r3, [fp, -fp, lsl #18]
 94c:	000b2019 	andeq	r2, fp, r9, lsl r0
 950:	00342200 	eorseq	r2, r4, r0, lsl #4
        if( xConstTickCount >= xNextTaskUnblockTime )
 954:	0b3a0e03 	bleq	e84168 <_edata+0xe81d18>
 958:	0b390b3b 	bleq	e4364c <_edata+0xe411fc>
 95c:	00001349 	andeq	r1, r0, r9, asr #6
                if( listLIST_IS_EMPTY( pxDelayedTaskList ) != pdFALSE )
 960:	00240100 	eoreq	r0, r4, r0, lsl #2
 964:	0b3e0b0b 	bleq	f83598 <_edata+0xf81148>
                    xNextTaskUnblockTime = portMAX_DELAY;
 968:	00000e03 	andeq	r0, r0, r3, lsl #28
 96c:	03000d02 	movweq	r0, #3330	@ 0xd02
                    break;
 970:	04213a0e 	strteq	r3, [r1], #-2574	@ 0xfffff5f2
                    pxTCB = listGET_OWNER_OF_HEAD_ENTRY( pxDelayedTaskList );
 974:	0b390b3b 	bleq	e43668 <_edata+0xe41218>
 978:	0b381349 	bleq	e056a4 <_edata+0xe03254>
                    xItemValue = listGET_LIST_ITEM_VALUE( &( pxTCB->xStateListItem ) );
 97c:	05030000 	streq	r0, [r3, #-0]
 980:	3a0e0300 	bcc	381588 <_edata+0x37f138>
                    if( xConstTickCount < xItemValue )
 984:	0b3b0121 	bleq	ec0e10 <_edata+0xebe9c0>
 988:	13490b39 	movtne	r0, #39737	@ 0x9b39
                        xNextTaskUnblockTime = xItemValue;
 98c:	00001802 	andeq	r1, r0, r2, lsl #16
                        break;
 990:	03001604 	movweq	r1, #1540	@ 0x604
                    listREMOVE_ITEM( &( pxTCB->xStateListItem ) );
 994:	3b0b3a0e 	blcc	2cf1d4 <_edata+0x2ccd84>
 998:	490b390b 	stmdbmi	fp, {r0, r1, r3, r8, fp, ip, sp}
 99c:	05000013 	streq	r0, [r0, #-19]	@ 0xffffffed
 9a0:	210b000f 	tstcs	fp, pc
 9a4:	00134904 	andseq	r4, r3, r4, lsl #18
 9a8:	00340600 	eorseq	r0, r4, r0, lsl #12
 9ac:	213a0e03 	teqcs	sl, r3, lsl #28
 9b0:	390b3b01 	stmdbcc	fp, {r0, r8, r9, fp, ip, sp}
 9b4:	0213490b 	andseq	r4, r3, #180224	@ 0x2c000
 9b8:	07000018 	smladeq	r0, r8, r0, r0
 9bc:	13490026 	movtne	r0, #36902	@ 0x9026
 9c0:	13080000 	movwne	r0, #32768	@ 0x8000
 9c4:	0b0e0301 	bleq	3815d0 <_edata+0x37f180>
 9c8:	04213a0b 	strteq	r3, [r1], #-2571	@ 0xfffff5f5
 9cc:	0b390b3b 	bleq	e436c0 <_edata+0xe41270>
                    if( listLIST_ITEM_CONTAINER( &( pxTCB->xEventListItem ) ) != NULL )
 9d0:	00001301 	andeq	r1, r0, r1, lsl #6
 9d4:	3f012e09 	svccc	0x00012e09
                        listREMOVE_ITEM( &( pxTCB->xEventListItem ) );
 9d8:	3a0e0319 	bcc	381644 <_edata+0x37f1f4>
 9dc:	0b3b0121 	bleq	ec0e68 <_edata+0xebea18>
 9e0:	27062139 	smladxcs	r6, r9, r1, r2
 9e4:	12011119 	andne	r1, r1, #1073741830	@ 0x40000006
 9e8:	7a184006 	bvc	610a08 <_edata+0x60e5b8>
 9ec:	00130119 	andseq	r0, r3, r9, lsl r1
 9f0:	01110a00 	tsteq	r1, r0, lsl #20
 9f4:	0b130e25 	bleq	4c4290 <_edata+0x4c1e40>
 9f8:	0e1b0e03 	cdpeq	14, 1, cr0, cr11, cr3, {0}
 9fc:	06120111 			@ <UNDEFINED> instruction: 0x06120111
 a00:	00001710 	andeq	r1, r0, r0, lsl r7
 a04:	0b00240b 	bleq	9a38 <_edata+0x75e8>
 a08:	030b3e0b 	movweq	r3, #48651	@ 0xbe0b
 a0c:	0c000008 	stceq	0, cr0, [r0], {8}
 a10:	0b0b000f 	bleq	2c0a54 <_edata+0x2be604>
 a14:	2e0d0000 	cdpcs	0, 0, cr0, cr13, cr0, {0}
                    prvAddTaskToReadyList( pxTCB );
 a18:	03193f01 	tsteq	r9, #1, 30
 a1c:	3b0b3a0e 	blcc	2cf25c <_edata+0x2cce0c>
 a20:	270b390b 	strcs	r3, [fp, -fp, lsl #18]
 a24:	11134919 	tstne	r3, r9, lsl r9
 a28:	40061201 	andmi	r1, r6, r1, lsl #4
 a2c:	01197a18 	tsteq	r9, r8, lsl sl
 a30:	0e000013 	mcreq	0, 0, r0, cr0, cr3, {0}
 a34:	193f012e 	ldmdbne	pc!, {r1, r2, r3, r5, r8}	@ <UNPREDICTABLE>
 a38:	0b3a0e03 	bleq	e8424c <_edata+0xe81dfc>
 a3c:	0b390b3b 	bleq	e43730 <_edata+0xe412e0>
 a40:	01111927 	tsteq	r1, r7, lsr #18
 a44:	18400612 	stmdane	r0, {r1, r4, r9, sl}^
 a48:	0000197a 	andeq	r1, r0, sl, ror r9
	...

Disassembly of section .debug_aranges:

00000000 <.debug_aranges>:
   0:	0000001c 	andeq	r0, r0, ip, lsl r0
   4:	00000002 	andeq	r0, r0, r2
   8:	00040000 	andeq	r0, r4, r0
   c:	00000000 	andeq	r0, r0, r0
  10:	00000198 	muleq	r0, r8, r1
  14:	00000004 	andeq	r0, r0, r4
	...
  20:	0000001c 	andeq	r0, r0, ip, lsl r0
  24:	00260002 	eoreq	r0, r6, r2
  28:	00040000 	andeq	r0, r4, r0
  2c:	00000000 	andeq	r0, r0, r0
  30:	0000019c 	muleq	r0, ip, r1
  34:	000000c8 	andeq	r0, r0, r8, asr #1
	...
  40:	0000001c 	andeq	r0, r0, ip, lsl r0
  44:	023b0002 	eorseq	r0, fp, #2
  48:	00040000 	andeq	r0, r4, r0
  4c:	00000000 	andeq	r0, r0, r0
  50:	00000264 	andeq	r0, r0, r4, ror #4
  54:	000018ec 	andeq	r1, r0, ip, ror #17
	...
  60:	0000001c 	andeq	r0, r0, ip, lsl r0
  64:	18350002 	ldmdane	r5!, {r1}
  68:	00040000 	andeq	r0, r4, r0
  6c:	00000000 	andeq	r0, r0, r0
  70:	00001b50 	andeq	r1, r0, r0, asr fp
  74:	000004e8 	andeq	r0, r0, r8, ror #9
	...
  80:	0000001c 	andeq	r0, r0, ip, lsl r0
  84:	1cd50002 	ldclne	0, cr0, [r5], {2}
  88:	00040000 	andeq	r0, r4, r0
  8c:	00000000 	andeq	r0, r0, r0
  90:	00002038 	andeq	r2, r0, r8, lsr r0
  94:	0000003a 	andeq	r0, r0, sl, lsr r0
	...
  a0:	0000001c 	andeq	r0, r0, ip, lsl r0
  a4:	1d7b0002 	ldclne	0, cr0, [fp, #-8]!
  a8:	00040000 	andeq	r0, r4, r0
  ac:	00000000 	andeq	r0, r0, r0
  b0:	00002074 	andeq	r2, r0, r4, ror r0
  b4:	00000260 	andeq	r0, r0, r0, ror #4
	...
  c0:	0000001c 	andeq	r0, r0, ip, lsl r0
  c4:	20860002 	addcs	r0, r6, r2
  c8:	00040000 	andeq	r0, r4, r0
  cc:	00000000 	andeq	r0, r0, r0
  d0:	000022d4 	ldrdeq	r2, [r0], -r4
  d4:	0000015e 	andeq	r0, r0, lr, asr r1
	...

Disassembly of section .debug_str:

00000000 <.debug_str>:
       0:	746f6f62 	strbtvc	r6, [pc], #-3938	@ 8 <_stext+0x8>
       4:	2f00532e 	svccs	0x0000532e
       8:	656d6f68 	strbvs	r6, [sp, #-3944]!	@ 0xfffff098
       c:	6361732f 	cmnvs	r1, #-1140850688	@ 0xbc000000
      10:	2f6e6968 	svccs	0x006e6968
      14:	72756f63 	rsbsvc	r6, r5, #396	@ 0x18c
      18:	2f736573 	svccs	0x00736573
      1c:	65657246 	strbvs	r7, [r5, #-582]!	@ 0xfffffdba
      20:	534f5452 	movtpl	r5, #62546	@ 0xf452
      24:	554e4700 	strbpl	r4, [lr, #-1792]	@ 0xfffff900
      28:	20534120 	subscs	r4, r3, r0, lsr #2
      2c:	32342e32 	eorscc	r2, r4, #800	@ 0x320
      30:	64735f00 	ldrbtvs	r5, [r3], #-3840	@ 0xfffff100
      34:	00617461 	rsbeq	r7, r1, r1, ror #8
      38:	6b736154 	blvs	1cd8590 <_edata+0x1cd6140>
      3c:	636e7546 	cmnvs	lr, #293601280	@ 0x11800000
      40:	6e6f6974 			@ <UNDEFINED> instruction: 0x6e6f6974
      44:	4700745f 	smlsdmi	r0, pc, r4, r7	@ <UNPREDICTABLE>
      48:	4320554e 			@ <UNDEFINED> instruction: 0x4320554e
      4c:	31203731 			@ <UNDEFINED> instruction: 0x31203731
      50:	2e322e33 	mrccs	14, 1, r2, cr2, cr3, {1}
      54:	30322031 	eorscc	r2, r2, r1, lsr r0
      58:	30313332 	eorscc	r3, r1, r2, lsr r3
      5c:	2d203930 			@ <UNDEFINED> instruction: 0x2d203930
      60:	7568746d 	strbvc	r7, [r8, #-1133]!	@ 0xfffffb93
      64:	2d20626d 	sfmcs	f6, 4, [r0, #-436]!	@ 0xfffffe4c
      68:	7570636d 	ldrbvc	r6, [r0, #-877]!	@ 0xfffffc93
      6c:	726f633d 	rsbvc	r6, pc, #-201326592	@ 0xf4000000
      70:	2d786574 	cfldr64cs	mvdx6, [r8, #-464]!	@ 0xfffffe30
      74:	2d20336d 	stccs	3, cr3, [r0, #-436]!	@ 0xfffffe4c
      78:	6f6c666d 	svcvs	0x006c666d
      7c:	612d7461 			@ <UNDEFINED> instruction: 0x612d7461
      80:	733d6962 	teqvc	sp, #1605632	@ 0x188000
      84:	2074666f 	rsbscs	r6, r4, pc, ror #12
      88:	72616d2d 	rsbvc	r6, r1, #2880	@ 0xb40
      8c:	613d6863 	teqvs	sp, r3, ror #16
      90:	37766d72 			@ <UNDEFINED> instruction: 0x37766d72
      94:	2d206d2d 	stccs	13, cr6, [r0, #-180]!	@ 0xffffff4c
      98:	68730067 	ldmdavs	r3!, {r0, r1, r2, r5, r6}^
      9c:	2074726f 	rsbscs	r7, r4, pc, ror #4
      a0:	00746e69 	rsbseq	r6, r4, r9, ror #28
      a4:	6b736154 	blvs	1cd85fc <_edata+0x1cd61ac>
      a8:	646e6148 	strbtvs	r6, [lr], #-328	@ 0xfffffeb8
      ac:	745f656c 	ldrbvc	r6, [pc], #-1388	@ b4 <_stext+0xb4>
      b0:	64655f00 	strbtvs	r5, [r5], #-3840	@ 0xfffff100
      b4:	00617461 	rsbeq	r7, r1, r1, ror #8
      b8:	73615476 	cmnvc	r1, #1979711488	@ 0x76000000
      bc:	6c00326b 	sfmvs	f3, 4, [r0], {107}	@ 0x6b
      c0:	20676e6f 	rsbcs	r6, r7, pc, ror #28
      c4:	676e6f6c 	strbvs	r6, [lr, -ip, ror #30]!
      c8:	746e6920 	strbtvc	r6, [lr], #-2336	@ 0xfffff6e0
      cc:	62655f00 	rsbvs	r5, r5, #0, 30
      d0:	76007373 			@ <UNDEFINED> instruction: 0x76007373
      d4:	6b736154 	blvs	1cd862c <_edata+0x1cd61dc>
      d8:	72617453 	rsbvc	r7, r1, #1392508928	@ 0x53000000
      dc:	68635374 	stmdavs	r3!, {r2, r4, r5, r6, r8, r9, ip, lr}^
      e0:	6c756465 	cfldrdvs	mvd6, [r5], #-404	@ 0xfffffe6c
      e4:	74007265 	strvc	r7, [r0], #-613	@ 0xfffffd9b
      e8:	61546b73 	cmpvs	r4, r3, ror fp
      ec:	6f436b73 	svcvs	0x00436b73
      f0:	6f72746e 	svcvs	0x0072746e
      f4:	6f6c426c 	svcvs	0x006c426c
      f8:	6c006b63 			@ <UNDEFINED> instruction: 0x6c006b63
      fc:	20676e6f 	rsbcs	r6, r7, pc, ror #28
     100:	62756f64 	rsbsvs	r6, r5, #100, 30	@ 0x190
     104:	5f00656c 	svcpl	0x0000656c
     108:	61646973 	smcvs	18067	@ 0x4693
     10c:	75006174 	strvc	r6, [r0, #-372]	@ 0xfffffe8c
     110:	6769736e 	strbvs	r7, [r9, -lr, ror #6]!
     114:	2064656e 	rsbcs	r6, r4, lr, ror #10
     118:	72616863 	rsbvc	r6, r1, #6488064	@ 0x630000
     11c:	6e6f6c00 	cdpvs	12, 6, cr6, cr15, cr0, {0}
     120:	6f6c2067 	svcvs	0x006c2067
     124:	7520676e 	strvc	r6, [r0, #-1902]!	@ 0xfffff892
     128:	6769736e 	strbvs	r7, [r9, -lr, ror #6]!
     12c:	2064656e 	rsbcs	r6, r4, lr, ror #10
     130:	00746e69 	rsbseq	r6, r4, r9, ror #28
     134:	746e6975 	strbtvc	r6, [lr], #-2421	@ 0xfffff68b
     138:	745f3233 	ldrbvc	r3, [pc], #-563	@ 140 <_stext+0x140>
     13c:	61547600 	cmpvs	r4, r0, lsl #12
     140:	00316b73 	eorseq	r6, r1, r3, ror fp
     144:	61507670 	cmpvs	r0, r0, ror r6
     148:	656d6172 	strbvs	r6, [sp, #-370]!	@ 0xfffffe8e
     14c:	73726574 	cmnvc	r2, #116, 10	@ 0x1d000000
     150:	61747300 	cmnvs	r4, r0, lsl #6
     154:	73007472 	movwvc	r7, #1138	@ 0x472
     158:	74726f68 	ldrbtvc	r6, [r2], #-3944	@ 0xfffff098
     15c:	736e7520 	cmnvc	lr, #32, 10	@ 0x8000000
     160:	656e6769 	strbvs	r6, [lr, #-1897]!	@ 0xfffff897
     164:	6e692064 	cdpvs	0, 6, cr2, cr9, cr4, {3}
     168:	54780074 	ldrbtpl	r0, [r8], #-116	@ 0xffffff8c
     16c:	436b7361 	cmnmi	fp, #-2080374783	@ 0x84000001
     170:	74616572 	strbtvc	r6, [r1], #-1394	@ 0xfffffa8e
     174:	42550065 	subsmi	r0, r5, #101	@ 0x65
     178:	54657361 	strbtpl	r7, [r5], #-865	@ 0xfffffc9f
     17c:	5f657079 	svcpl	0x00657079
     180:	74530074 	ldrbvc	r0, [r3], #-116	@ 0xffffff8c
     184:	546b6361 	strbtpl	r6, [fp], #-865	@ 0xfffffc9f
     188:	5f657079 	svcpl	0x00657079
     18c:	74730074 	ldrbtvc	r0, [r3], #-116	@ 0xffffff8c
     190:	2e747261 	cdpcs	2, 7, cr7, cr4, cr1, {3}
     194:	735f0063 	cmpvc	pc, #99	@ 0x63
     198:	00737362 	rsbseq	r7, r3, r2, ror #6
static void vTask1(void *pvParameters){
     19c:	726f4378 	rsbvc	r4, pc, #120, 6	@ 0xe0000001
     1a0:	00444965 	subeq	r4, r4, r5, ror #18
    volatile int a = 0;
     1a4:	61546370 	cmpvs	r4, r0, ror r3
        a++;
     1a8:	614e6b73 	hvcvs	59059	@ 0xe6b3
     1ac:	7500656d 	strvc	r6, [r0, #-1389]	@ 0xfffffa93
static void vTask2(void *pvParameters){
     1b0:	6d754e78 	ldclvs	14, cr4, [r5, #-480]!	@ 0xfffffe20
     1b4:	4f726562 	svcmi	0x00726562
    volatile int b = 0;
     1b8:	65744966 	ldrbvs	r4, [r4, #-2406]!	@ 0xfffff69a
        b++;
     1bc:	7600736d 	strvc	r7, [r0], -sp, ror #6
     1c0:	74726f50 	ldrbtvc	r6, [r2], #-3920	@ 0xfffff0b0
void start(){//<<=== 1. jumping here from boot.S reset_handler: is fine but jumping to function sachin() gives HardFault crash.
     1c4:	74697845 	strbtvc	r7, [r9], #-2117	@ 0xfffff7bb
     1c8:	74697243 	strbtvc	r7, [r9], #-579	@ 0xfffffdbd
    uint32_t *src = &_sidata; // source(flash)
     1cc:	6c616369 	stclvs	3, cr6, [r1], #-420	@ 0xfffffe5c
    uint32_t *dst = &_sdata; // Destination RAM
     1d0:	6f507800 	svcvs	0x00507800
        *dst++ = *src++; // copy word and increment pointer
     1d4:	74537472 	ldrbvc	r7, [r3], #-1138	@ 0xfffffb8e
     1d8:	53747261 	cmnpl	r4, #268435462	@ 0x10000006
     1dc:	64656863 	strbtvs	r6, [r5], #-2147	@ 0xfffff79d
     1e0:	72656c75 	rsbvc	r6, r5, #29952	@ 0x7500
    while(dst < &_edata){
     1e4:	50787500 	rsbspl	r7, r8, r0, lsl #10
     1e8:	726f6972 	rsbvc	r6, pc, #1867776	@ 0x1c8000
    dst = &_sbss;
     1ec:	00797469 	rsbseq	r7, r9, r9, ror #8
    while(dst < &_ebss){
     1f0:	6f437870 	svcvs	0x00437870
        *dst++ = 0; // zero word and increment pointer
     1f4:	4c74736e 	ldclmi	3, cr7, [r4], #-440	@ 0xfffffe48
     1f8:	00747369 	rsbseq	r7, r4, r9, ror #6
    while(dst < &_ebss){
     1fc:	69426c75 	stmdbvs	r2, {r0, r2, r4, r5, r6, sl, fp, sp, lr}^
     200:	6f547374 	svcvs	0x00547374
    xReturn = xTaskCreate(vTask1, "T1",configMINIMAL_STACK_SIZE,NULL,1,NULL);//
     204:	61656c43 	cmnvs	r5, r3, asr #24
     208:	456e4f72 	strbmi	r4, [lr, #-3954]!	@ 0xfffff08e
     20c:	00746978 	rsbseq	r6, r4, r8, ror r9
     210:	61547875 	cmpvs	r4, r5, ror r8
     214:	65476b73 	strbvs	r6, [r7, #-2931]	@ 0xfffff48d
     218:	6d754e74 	ldclvs	14, cr4, [r5, #-464]!	@ 0xfffffe30
    xReturn = xTaskCreate(vTask2, "T2",configMINIMAL_STACK_SIZE,NULL,1,NULL);//getting xReturn as -1 debug and foumd memory allocation was failing , few global variables were not holding changed values from heap_4.c files ..... => because .data section is nod defined in .ld script, only .text section is there.
     21c:	4f726562 	svcmi	0x00726562
     220:	73615466 	cmnvc	r1, #1711276032	@ 0x66000000
     224:	7000736b 	andvc	r7, r0, fp, ror #6
     228:	67694878 			@ <UNDEFINED> instruction: 0x67694878
     22c:	50726568 	rsbspl	r6, r2, r8, ror #10
     230:	726f6972 	rsbvc	r6, pc, #1867776	@ 0x1c8000
    vTaskStartScheduler();// if only this call then cpu lockup nothing to execute so does hardfault.
     234:	54797469 	ldrbtpl	r7, [r9], #-1129	@ 0xfffffb97
    return;
     238:	576b7361 	strbpl	r7, [fp, -r1, ror #6]!
}
     23c:	6e656b6f 	vnmulvs.f64	d22, d5, d31
     240:	6f4e6500 	svcvs	0x004e6500
     244:	69746341 	ldmdbvs	r4!, {r0, r6, r8, r9, sp, lr}^
     248:	75006e6f 	strvc	r6, [r0, #-3695]	@ 0xfffff191
     24c:	706f5478 	rsbvc	r5, pc, r8, ror r4	@ <UNPREDICTABLE>
     250:	64616552 	strbtvs	r6, [r1], #-1362	@ 0xfffffaae
     254:	69725079 	ldmdbvs	r2!, {r0, r3, r4, r5, r6, ip, lr}^
     258:	7469726f 	strbtvc	r7, [r9], #-623	@ 0xfffffd91
     25c:	78700079 	ldmdavc	r0!, {r0, r3, r4, r5, r6}^
     260:	616c6544 	cmnvs	ip, r4, asr #10
    {
     264:	4c646579 	cfstr64mi	mvdx6, [r4], #-484	@ 0xfffffe1c
     268:	00747369 	rsbseq	r7, r4, r9, ror #6
     26c:	76457870 			@ <UNDEFINED> instruction: 0x76457870
     270:	4c746e65 	ldclmi	14, cr6, [r4], #-404	@ 0xfffffe6c
            pxStack = pvPortMallocStack( ( ( ( size_t ) uxStackDepth ) * sizeof( StackType_t ) ) );
     274:	00747369 	rsbseq	r7, r4, r9, ror #6
     278:	68635378 	stmdavs	r3!, {r3, r4, r5, r6, r8, r9, ip, lr}^
     27c:	6c756465 	cfldrdvs	mvd6, [r5], #-404	@ 0xfffffe6c
            if( pxStack != NULL )
     280:	75527265 	ldrbvc	r7, [r2, #-613]	@ 0xfffffd9b
                pxNewTCB = ( TCB_t * ) pvPortMalloc( sizeof( TCB_t ) );
     284:	6e696e6e 	cdpvs	14, 6, cr6, cr9, cr14, {3}
     288:	78700067 	ldmdavc	r0!, {r0, r1, r2, r5, r6}^
                if( pxNewTCB != NULL )
     28c:	65646e49 	strbvs	r6, [r4, #-3657]!	@ 0xfffff1b7
     290:	54780078 	ldrbtpl	r0, [r8], #-120	@ 0xffffff88
                    ( void ) memset( ( void * ) pxNewTCB, 0x00, sizeof( TCB_t ) );
     294:	5f454d49 	svcpl	0x00454d49
     298:	0054554f 	subseq	r5, r4, pc, asr #10
                    pxNewTCB->pxStack = pxStack;
     29c:	69426c75 	stmdbvs	r2, {r0, r2, r4, r5, r6, sl, fp, sp, lr}^
     2a0:	6f547374 	svcvs	0x00547374
                    vPortFreeStack( pxStack );
     2a4:	61656c43 	cmnvs	r5, r3, asr #24
     2a8:	50780072 	rsbspl	r0, r8, r2, ror r0
                pxNewTCB = NULL;
     2ac:	65646e65 	strbvs	r6, [r4, #-3685]!	@ 0xfffff19b
        if( pxNewTCB != NULL )
     2b0:	756f4364 	strbvc	r4, [pc, #-868]!	@ ffffff54 <__StackTop+0xdfffdf54>
     2b4:	0073746e 	rsbseq	r7, r3, lr, ror #8
            prvInitialiseNewTask( pxTaskCode, pcName, uxStackDepth, pvParameters, uxPriority, pxCreatedTask, pxNewTCB, NULL );
     2b8:	53494c78 	movtpl	r4, #40056	@ 0x9c78
     2bc:	54495f54 	strbpl	r5, [r9], #-3924	@ 0xfffff0ac
     2c0:	70004d45 	andvc	r4, r0, r5, asr #26
     2c4:	61655278 	smcvs	21800	@ 0x5528
     2c8:	61547964 	cmpvs	r4, r4, ror #18
     2cc:	4c736b73 			@ <UNDEFINED> instruction: 0x4c736b73
     2d0:	73747369 	cmnvc	r4, #-1543503871	@ 0xa4000001
    }
     2d4:	4f637500 	svcmi	0x00637500
     2d8:	69676972 	stmdbvs	r7!, {r1, r4, r5, r6, r8, fp, sp, lr}^
    {
     2dc:	4e6c616e 	powmiez	f6, f4, #0.5
     2e0:	6669746f 	strbtvs	r7, [r9], -pc, ror #8
     2e4:	61745379 	cmnvs	r4, r9, ror r3
     2e8:	76006574 			@ <UNDEFINED> instruction: 0x76006574
        pxNewTCB = prvCreateTask( pxTaskCode, pcName, uxStackDepth, pvParameters, uxPriority, pxCreatedTask );
     2ec:	6b736154 	blvs	1cd8844 <_edata+0x1cd63f4>
     2f0:	54746553 	ldrbtpl	r6, [r4], #-1363	@ 0xfffffaad
     2f4:	4f656d69 	svcmi	0x00656d69
     2f8:	74537475 	ldrbvc	r7, [r3], #-1141	@ 0xfffffb8b
     2fc:	00657461 	rsbeq	r7, r5, r1, ror #8
        if( pxNewTCB != NULL )
     300:	73615478 	cmnvc	r1, #120, 8	@ 0x78000000
     304:	6e65476b 	cdpvs	7, 6, cr4, cr5, cr11, {3}
            prvAddNewTaskToReadyList( pxNewTCB );
     308:	63697265 	cmnvs	r9, #1342177286	@ 0x50000006
            xReturn = pdPASS;
     30c:	69746f4e 	ldmdbvs	r4!, {r1, r2, r3, r6, r8, r9, sl, fp, sp, lr}^
     310:	72467966 	subvc	r7, r6, #1671168	@ 0x198000
            xReturn = errCOULD_NOT_ALLOCATE_REQUIRED_MEMORY;
     314:	53496d6f 	movtpl	r6, #40303	@ 0x9d6f
        return xReturn;
     318:	59780052 	ldmdbpl	r8!, {r1, r4, r6}^
    }
     31c:	646c6569 	strbtvs	r6, [ip], #-1385	@ 0xfffffa97
     320:	646e6550 	strbtvs	r6, [lr], #-1360	@ 0xfffffab0
{
     324:	73676e69 	cmnvc	r7, #1680	@ 0x690
     328:	61547800 	cmpvs	r4, r0, lsl #16
     32c:	6e496b73 	vmovvs.8	d9[3], r6
        pxTopOfStack = &( pxNewTCB->pxStack[ uxStackDepth - ( configSTACK_DEPTH_TYPE ) 1 ] );
     330:	6d657263 	sfmvs	f7, 2, [r5, #-396]!	@ 0xfffffe74
     334:	54746e65 	ldrbtpl	r6, [r4], #-3685	@ 0xfffff19b
     338:	006b6369 	rsbeq	r6, fp, r9, ror #6
     33c:	69426c75 	stmdbvs	r2, {r0, r2, r4, r5, r6, sl, fp, sp, lr}^
     340:	70616d74 	rsbvc	r6, r1, r4, ror sp
        pxTopOfStack = ( StackType_t * ) ( ( ( portPOINTER_SIZE_TYPE ) pxTopOfStack ) & ( ~( ( portPOINTER_SIZE_TYPE ) portBYTE_ALIGNMENT_MASK ) ) );
     344:	65447800 	strbvs	r7, [r4, #-2048]	@ 0xfffff800
     348:	6579616c 	ldrbvs	r6, [r9, #-364]!	@ 0xfffffe94
    if( pcName != NULL )
     34c:	73615464 	cmnvc	r1, #100, 8	@ 0x64000000
        for( x = ( UBaseType_t ) 0; x < ( UBaseType_t ) configMAX_TASK_NAME_LEN; x++ )
     350:	73694c6b 	cmnvc	r9, #27392	@ 0x6b00
     354:	78003174 	stmdavc	r0, {r2, r4, r5, r6, r8, ip, sp}
            pxNewTCB->pcTaskName[ x ] = pcName[ x ];
     358:	616c6544 	cmnvs	ip, r4, asr #10
     35c:	54646579 	strbtpl	r6, [r4], #-1401	@ 0xfffffa87
     360:	4c6b7361 	stclmi	3, cr7, [fp], #-388	@ 0xfffffe7c
     364:	32747369 	rsbscc	r7, r4, #-1543503871	@ 0xa4000001
     368:	764f7800 	strbvc	r7, [pc], -r0, lsl #16
            if( pcName[ x ] == ( char ) 0x00 )
     36c:	6c667265 	sfmvs	f7, 2, [r6], #-404	@ 0xfffffe6c
     370:	6f43776f 	svcvs	0x0043776f
     374:	00746e75 	rsbseq	r6, r4, r5, ror lr
        for( x = ( UBaseType_t ) 0; x < ( UBaseType_t ) configMAX_TASK_NAME_LEN; x++ )
     378:	726f5076 	rsbvc	r5, pc, #118	@ 0x76
     37c:	74655374 	strbtvc	r5, [r5], #-884	@ 0xfffffc8c
     380:	45534142 	ldrbmi	r4, [r3, #-322]	@ 0xfffffebe
                break;
     384:	00495250 	subeq	r5, r9, r0, asr r2
        pxNewTCB->pcTaskName[ configMAX_TASK_NAME_LEN - 1U ] = '\0';
     388:	726f5076 	rsbvc	r5, pc, #118	@ 0x76
     38c:	746e4574 	strbtvc	r4, [lr], #-1396	@ 0xfffffa8c
    if( uxPriority >= ( UBaseType_t ) configMAX_PRIORITIES )
     390:	72437265 	subvc	r7, r3, #1342177286	@ 0x50000006
        uxPriority = ( UBaseType_t ) configMAX_PRIORITIES - ( UBaseType_t ) 1U;
     394:	63697469 	cmnvs	r9, #1761607680	@ 0x69000000
    pxNewTCB->uxPriority = uxPriority;
     398:	78006c61 	stmdavc	r0, {r0, r5, r6, sl, fp, sp, lr}
     39c:	6b736154 	blvs	1cd88f4 <_edata+0x1cd64a4>
    vListInitialiseItem( &( pxNewTCB->xStateListItem ) );
     3a0:	63746143 	cmnvs	r4, #-1073741808	@ 0xc0000010
     3a4:	54705568 	ldrbtpl	r5, [r0], #-1384	@ 0xfffffa98
    vListInitialiseItem( &( pxNewTCB->xEventListItem ) );
     3a8:	736b6369 	cmnvc	fp, #-1543503871	@ 0xa4000001
     3ac:	506c7500 	rsbpl	r7, ip, r0, lsl #10
     3b0:	6d617261 	sfmvs	f7, 2, [r1, #-388]!	@ 0xfffffe7c
    listSET_LIST_ITEM_OWNER( &( pxNewTCB->xStateListItem ), pxNewTCB );
     3b4:	72657465 	rsbvc	r7, r5, #1694498816	@ 0x65000000
    listSET_LIST_ITEM_VALUE( &( pxNewTCB->xEventListItem ), ( TickType_t ) configMAX_PRIORITIES - ( TickType_t ) uxPriority );
     3b8:	78750073 	ldmdavc	r5!, {r0, r1, r4, r5, r6}^
     3bc:	65646e49 	strbvs	r6, [r4, #-3657]!	@ 0xfffff1b7
     3c0:	436f5478 	cmnmi	pc, #120, 8	@ 0x78000000
    listSET_LIST_ITEM_OWNER( &( pxNewTCB->xEventListItem ), pxNewTCB );
     3c4:	7261656c 	rsbvc	r6, r1, #108, 10	@ 0x1b000000
            pxNewTCB->pxTopOfStack = pxPortInitialiseStack( pxTopOfStack, pxTaskCode, pvParameters );
     3c8:	6b737400 	blvs	1cdd3d0 <_edata+0x1cdaf80>
     3cc:	00424354 	subeq	r4, r2, r4, asr r3
     3d0:	61537875 	cmpvs	r3, r5, ror r8
     3d4:	49646576 	stmdbmi	r4!, {r1, r2, r4, r5, r6, r8, sl, sp, lr}^
    if( pxCreatedTask != NULL )
     3d8:	7265746e 	rsbvc	r7, r5, #1845493760	@ 0x6e000000
     3dc:	74707572 	ldrbtvc	r7, [r0], #-1394	@ 0xfffffa8e
        *pxCreatedTask = ( TaskHandle_t ) pxNewTCB;
     3e0:	74617453 	strbtvc	r7, [r1], #-1107	@ 0xfffffbad
}
     3e4:	75007375 	strvc	r7, [r0, #-885]	@ 0xfffffc8b
     3e8:	746f4e63 	strbtvc	r4, [pc], #-3683	@ 3f0 <prvAddNewTaskToReadyList+0x4>
    {
     3ec:	53796669 	cmnpl	r9, #110100480	@ 0x6900000
     3f0:	65746174 	ldrbvs	r6, [r4, #-372]!	@ 0xfffffe8c
        taskENTER_CRITICAL();
     3f4:	4c787500 	cfldr64mi	mvdx7, [r8], #-0
            uxCurrentNumberOfTasks = ( UBaseType_t ) ( uxCurrentNumberOfTasks + 1U );
     3f8:	52747369 	rsbspl	r7, r4, #-1543503871	@ 0xa4000001
     3fc:	766f6d65 	strbtvc	r6, [pc], -r5, ror #26
     400:	6c750065 	ldclvs	0, cr0, [r5], #-404	@ 0xfffffe6c
            if( pxCurrentTCB == NULL )
     404:	6769724f 	strbvs	r7, [r9, -pc, asr #4]!
     408:	6c616e69 	stclvs	14, cr6, [r1], #-420	@ 0xfffffe5c
                pxCurrentTCB = pxNewTCB;
     40c:	45534142 	ldrbmi	r4, [r3, #-322]	@ 0xfffffebe
                if( uxCurrentNumberOfTasks == ( UBaseType_t ) 1 )
     410:	00495250 	subeq	r5, r9, r0, asr r2
     414:	73615478 	cmnvc	r1, #120, 8	@ 0x78000000
                    prvInitialiseTaskLists();
     418:	6e65476b 	cdpvs	7, 6, cr4, cr5, cr11, {3}
     41c:	63697265 	cmnvs	r9, #1342177286	@ 0x50000006
                if( xSchedulerRunning == pdFALSE )
     420:	69746f4e 	ldmdbvs	r4!, {r1, r2, r3, r6, r8, r9, sl, fp, sp, lr}^
     424:	70007966 	andvc	r7, r0, r6, ror #18
                    if( pxCurrentTCB->uxPriority <= pxNewTCB->uxPriority )
     428:	626e5578 	rsbvs	r5, lr, #120, 10	@ 0x1e000000
     42c:	6b636f6c 	blvs	18dc1e4 <_edata+0x18d9d94>
     430:	43546465 	cmpmi	r4, #1694498816	@ 0x65000000
                        pxCurrentTCB = pxNewTCB;
     434:	43780042 	cmnmi	r8, #66	@ 0x42
     438:	7261656c 	rsbvc	r6, r1, #108, 10	@ 0x1b000000
            uxTaskNumber++;
     43c:	6e756f43 	cdpvs	15, 7, cr6, cr5, cr3, {2}
     440:	456e4f74 	strbmi	r4, [lr, #-3956]!	@ 0xfffff08c
            prvAddTaskToReadyList( pxNewTCB );
     444:	00746978 	rsbseq	r6, r4, r8, ror r9
     448:	43767270 	cmnmi	r6, #112, 4
     44c:	74616572 	strbtvc	r6, [r1], #-1394	@ 0xfffffa8e
     450:	73615465 	cmnvc	r1, #1694498816	@ 0x65000000
     454:	4578006b 	ldrbmi	r0, [r8, #-107]!	@ 0xffffff95
     458:	7370616c 	cmnvc	r0, #108, 2
     45c:	69546465 	ldmdbvs	r4, {r0, r2, r5, r6, sl, sp, lr}^
     460:	6500656d 	strvs	r6, [r0, #-1389]	@ 0xfffffa93
     464:	56746553 			@ <UNDEFINED> instruction: 0x56746553
     468:	65756c61 	ldrbvs	r6, [r5, #-3169]!	@ 0xfffff39f
     46c:	68746957 	ldmdavs	r4!, {r0, r1, r2, r4, r6, r8, fp, sp, lr}^
     470:	7265764f 	rsbvc	r7, r5, #82837504	@ 0x4f00000
     474:	74697277 	strbtvc	r7, [r9], #-631	@ 0xfffffd89
     478:	54780065 	ldrbtpl	r0, [r8], #-101	@ 0xffffff9b
     47c:	476b7361 	strbmi	r7, [fp, -r1, ror #6]!
     480:	69547465 	ldmdbvs	r4, {r0, r2, r5, r6, sl, ip, sp, lr}^
     484:	6f436b63 	svcvs	0x00436b63
     488:	46746e75 			@ <UNDEFINED> instruction: 0x46746e75
     48c:	496d6f72 	stmdbmi	sp!, {r1, r4, r5, r6, r8, r9, sl, fp, sp, lr}^
     490:	75005253 	strvc	r5, [r0, #-595]	@ 0xfffffdad
     494:	7469426c 	strbtvc	r4, [r9], #-620	@ 0xfffffd94
     498:	436f5473 	cmnmi	pc, #1929379840	@ 0x73000000
     49c:	7261656c 	rsbvc	r6, r1, #108, 10	@ 0x1b000000
     4a0:	6e456e4f 	cdpvs	14, 4, cr6, cr5, cr15, {2}
     4a4:	00797274 	rsbseq	r7, r9, r4, ror r2
     4a8:	6c644978 			@ <UNDEFINED> instruction: 0x6c644978
     4ac:	73615465 	cmnvc	r1, #1694498816	@ 0x65000000
     4b0:	6d614e6b 	stclvs	14, cr4, [r1, #-428]!	@ 0xfffffe54
     4b4:	646e4965 	strbtvs	r4, [lr], #-2405	@ 0xfffff69b
     4b8:	78007865 	stmdavc	r0, {r0, r2, r5, r6, fp, ip, sp, lr}
     4bc:	646e6550 	strbtvs	r6, [lr], #-1360	@ 0xfffffab0
     4c0:	52676e69 	rsbpl	r6, r7, #1680	@ 0x690
     4c4:	79646165 	stmdbvc	r4!, {r0, r2, r5, r6, r8, sp, lr}^
        taskEXIT_CRITICAL();
     4c8:	7473694c 	ldrbtvc	r6, [r3], #-2380	@ 0xfffff6b4
        if( xSchedulerRunning != pdFALSE )
     4cc:	76727000 	ldrbtvc	r7, [r2], -r0
     4d0:	74696e49 	strbtvc	r6, [r9], #-3657	@ 0xfffff1b7
            taskYIELD_ANY_CORE_IF_USING_PREEMPTION( pxNewTCB );
     4d4:	696c6169 	stmdbvs	ip!, {r0, r3, r5, r6, r8, sp, lr}^
     4d8:	61546573 	cmpvs	r4, r3, ror r5
     4dc:	694c6b73 	stmdbvs	ip, {r0, r1, r4, r5, r6, r8, r9, fp, sp, lr}^
     4e0:	00737473 	rsbseq	r7, r3, r3, ror r4
     4e4:	72507870 	subsvc	r7, r0, #112, 16	@ 0x700000
     4e8:	6f697665 	svcvs	0x00697665
     4ec:	76007375 			@ <UNDEFINED> instruction: 0x76007375
    }
     4f0:	6b736154 	blvs	1cd8a48 <_edata+0x1cd65f8>
     4f4:	65736552 	ldrbvs	r6, [r3, #-1362]!	@ 0xfffffaae
     4f8:	61745374 	cmnvs	r4, r4, ror r3
     4fc:	70006574 	andvc	r6, r0, r4, ror r5
     500:	6d655478 	cfstrdvs	mvd5, [r5, #-480]!	@ 0xfffffe20
     504:	78750070 	ldmdavc	r5!, {r4, r5, r6}^
     508:	55706f54 	ldrbpl	r6, [r0, #-3924]!	@ 0xfffff0ac
     50c:	50646573 	rsbpl	r6, r4, r3, ror r5
     510:	726f6972 	rsbvc	r6, pc, #1867776	@ 0x1c8000
{
     514:	00797469 	rsbseq	r7, r9, r9, ror #8
     518:	73615476 	cmnvc	r1, #1979711488	@ 0x76000000
    BaseType_t xReturn = pdPASS;
     51c:	7375536b 	cmnvc	r5, #-1409286143	@ 0xac000001
    char cIdleName[ configMAX_TASK_NAME_LEN ] = { 0 };
     520:	646e6570 	strbtvs	r6, [lr], #-1392	@ 0xfffffa90
     524:	006c6c41 	rsbeq	r6, ip, r1, asr #24
     528:	74537875 	ldrbvc	r7, [r3], #-2165	@ 0xfffff78b
    TaskFunction_t pxIdleTaskFunction = NULL;
     52c:	446b6361 	strbtmi	r6, [fp], #-865	@ 0xfffffc9f
    for( xIdleTaskNameIndex = 0U; xIdleTaskNameIndex < ( configMAX_TASK_NAME_LEN - taskRESERVED_TASK_NAME_LENGTH ); xIdleTaskNameIndex++ )
     530:	68747065 	ldmdavs	r4!, {r0, r2, r5, r6, ip, sp, lr}^
        cIdleName[ xIdleTaskNameIndex ] = configIDLE_TASK_NAME[ xIdleTaskNameIndex ];
     534:	6f4e6500 	svcvs	0x004e6500
     538:	79666974 	stmdbvc	r6!, {r2, r4, r5, r6, r8, fp, sp, lr}^
     53c:	69746341 	ldmdbvs	r4!, {r0, r6, r8, r9, sp, lr}^
     540:	73006e6f 	movwvc	r6, #3695	@ 0xe6f
     544:	5f657a69 	svcpl	0x00657a69
        if( cIdleName[ xIdleTaskNameIndex ] == ( char ) 0x00 )
     548:	49650074 	stmdbmi	r5!, {r2, r4, r5, r6}^
     54c:	6572636e 	ldrbvs	r6, [r2, #-878]!	@ 0xfffffc92
     550:	746e656d 	strbtvc	r6, [lr], #-1389	@ 0xfffffa93
    for( xIdleTaskNameIndex = 0U; xIdleTaskNameIndex < ( configMAX_TASK_NAME_LEN - taskRESERVED_TASK_NAME_LENGTH ); xIdleTaskNameIndex++ )
     554:	494d7800 	stmdbmi	sp, {fp, ip, sp, lr}^
     558:	4c5f494e 	mrrcmi	9, 4, r4, pc, cr14	@ <UNPREDICTABLE>
     55c:	5f545349 	svcpl	0x00545349
            break;
     560:	4d455449 	cfstrdmi	mvd5, [r5, #-292]	@ 0xfffffedc
    cIdleName[ xIdleTaskNameIndex ] = '\0';
     564:	69547800 	ldmdbvs	r4, {fp, ip, sp, lr}^
     568:	6f436b63 	svcvs	0x00436b63
    for( xCoreID = ( BaseType_t ) 0; xCoreID < ( BaseType_t ) configNUMBER_OF_CORES; xCoreID++ )
     56c:	00746e75 	rsbseq	r6, r4, r5, ror lr
     570:	53494c78 	movtpl	r4, #40056	@ 0x9c78
            pxIdleTaskFunction = &prvIdleTask;
     574:	54760054 	ldrbtpl	r0, [r6], #-84	@ 0xffffffac
            xReturn = xTaskCreate( pxIdleTaskFunction,
     578:	456b7361 	strbmi	r7, [fp, #-865]!	@ 0xfffffc9f
     57c:	6353646e 	cmpvs	r3, #1845493760	@ 0x6e000000
     580:	75646568 	strbvc	r6, [r4, #-1384]!	@ 0xfffffa98
     584:	0072656c 	rsbseq	r6, r2, ip, ror #10
     588:	6e6f4378 	mcrvs	3, 3, r4, cr15, cr8, {3}
     58c:	69547473 	ldmdbvs	r4, {r0, r1, r4, r5, r6, sl, ip, sp, lr}^
     590:	6f436b63 	svcvs	0x00436b63
        if( xReturn != pdPASS )
     594:	00746e75 	rsbseq	r6, r4, r5, ror lr
     598:	614e6370 	hvcvs	58928	@ 0xe630
    for( xCoreID = ( BaseType_t ) 0; xCoreID < ( BaseType_t ) configNUMBER_OF_CORES; xCoreID++ )
     59c:	7000656d 	andvc	r6, r0, sp, ror #10
     5a0:	65764f78 	ldrbvs	r4, [r6, #-3960]!	@ 0xfffff088
     5a4:	6f6c6672 	svcvs	0x006c6672
            break;
     5a8:	6c654477 	cfstrdvs	mvd4, [r5], #-476	@ 0xfffffe24
}
     5ac:	64657961 	strbtvs	r7, [r5], #-2401	@ 0xfffff69f
     5b0:	6b736154 	blvs	1cd8b08 <_edata+0x1cd66b8>
     5b4:	7473694c 	ldrbtvc	r6, [r3], #-2380	@ 0xfffff6b4
     5b8:	61547600 	cmpvs	r4, r0, lsl #12
     5bc:	6c506b73 	mrrcvs	11, 7, r6, r0, cr3
{
     5c0:	4f656361 	svcmi	0x00656361
     5c4:	6576456e 	ldrbvs	r4, [r6, #-1390]!	@ 0xfffffa92
    xReturn = prvCreateIdleTasks();
     5c8:	694c746e 	stmdbvs	ip, {r1, r2, r3, r5, r6, sl, ip, sp, lr}^
    if( xReturn == pdPASS )
     5cc:	78007473 	stmdavc	r0, {r0, r1, r4, r5, r6, sl, ip, sp, lr}
     5d0:	656c6449 	strbvs	r6, [ip, #-1097]!	@ 0xfffffbb7
    __asm volatile
     5d4:	6b736154 	blvs	1cd8b2c <_edata+0x1cd66dc>
     5d8:	646e6148 	strbtvs	r6, [lr], #-328	@ 0xfffffeb8
     5dc:	0073656c 	rsbseq	r6, r3, ip, ror #10
     5e0:	6f4e6c75 	svcvs	0x004e6c75
}
     5e4:	69666974 	stmdbvs	r6!, {r2, r4, r5, r6, r8, fp, sp, lr}^
        xNextTaskUnblockTime = portMAX_DELAY;
     5e8:	61566465 	cmpvs	r6, r5, ror #8
     5ec:	0065756c 	rsbeq	r7, r5, ip, ror #10
        xSchedulerRunning = pdTRUE;
     5f0:	73615476 	cmnvc	r1, #1979711488	@ 0x76000000
        xTickCount = ( TickType_t ) configINITIAL_TICK_COUNT;
     5f4:	6d65526b 	sfmvs	f5, 2, [r5, #-428]!	@ 0xfffffe54
     5f8:	4665766f 	strbtmi	r7, [r5], -pc, ror #12
        ( void ) xPortStartScheduler();
     5fc:	556d6f72 	strbpl	r6, [sp, #-3954]!	@ 0xfffff08e
    ( void ) uxTopUsedPriority;
     600:	64726f6e 	ldrbtvs	r6, [r2], #-3950	@ 0xfffff092
}
     604:	64657265 	strbtvs	r7, [r5], #-613	@ 0xfffffd9b
     608:	6e657645 	cdpvs	6, 6, cr7, cr5, cr5, {2}
     60c:	73694c74 	cmnvc	r9, #116, 24	@ 0x7400
     610:	54780074 	ldrbtpl	r0, [r8], #-116	@ 0xffffff8c
     614:	526b7361 	rsbpl	r7, fp, #-2080374783	@ 0x84000001
     618:	766f6d65 	strbtvc	r6, [pc], -r5, ror #26
{
     61c:	6f724665 	svcvs	0x00724665
     620:	6576456d 	ldrbvs	r4, [r6, #-1389]!	@ 0xfffffa93
    __asm volatile
     624:	694c746e 	stmdbvs	ip, {r1, r2, r3, r5, r6, sl, ip, sp, lr}^
     628:	65007473 	strvs	r7, [r0, #-1139]	@ 0xfffffb8d
     62c:	56746553 			@ <UNDEFINED> instruction: 0x56746553
     630:	65756c61 	ldrbvs	r6, [r5, #-3169]!	@ 0xfffff39f
}
     634:	68746957 	ldmdavs	r4!, {r0, r1, r2, r4, r6, r8, fp, sp, lr}^
    xSchedulerRunning = pdFALSE;
     638:	4f74756f 	svcmi	0x0074756f
    vPortEndScheduler();
     63c:	77726576 			@ <UNDEFINED> instruction: 0x77726576
}
     640:	65746972 	ldrbvs	r6, [r4, #-2418]!	@ 0xfffff68e
     644:	4e6c7500 	cdpmi	5, 6, cr7, cr12, cr0, {0}
     648:	41427765 	cmpmi	r2, r5, ror #14
{
     64c:	52504553 	subspl	r4, r0, #348127232	@ 0x14c00000
        uxSchedulerSuspended = ( UBaseType_t ) ( uxSchedulerSuspended + 1U );
     650:	54780049 	ldrbtpl	r0, [r8], #-73	@ 0xffffffb7
     654:	476b7361 	strbmi	r7, [fp, -r1, ror #6]!
     658:	72656e65 	rsbvc	r6, r5, #1616	@ 0x650
}
     65c:	6f4e6369 	svcvs	0x004e6369
     660:	79666974 	stmdbvc	r6!, {r2, r4, r5, r6, r8, fp, sp, lr}^
     664:	74696157 	strbtvc	r6, [r9], #-343	@ 0xfffffea9
{
     668:	76727000 	ldrbtvc	r7, [r2], -r0
     66c:	656c6449 	strbvs	r6, [ip, #-1097]!	@ 0xfffffbb7
    TCB_t * pxTCB = NULL;
     670:	6b736154 	blvs	1cd8bc8 <_edata+0x1cd6778>
    BaseType_t xAlreadyYielded = pdFALSE;
     674:	694c7800 	stmdbvs	ip, {fp, ip, sp, lr}^
        taskENTER_CRITICAL();
     678:	6e457473 	mcrvs	4, 2, r7, cr5, cr3, {3}
            const BaseType_t xCoreID = ( BaseType_t ) portGET_CORE_ID();
     67c:	6c750064 	ldclvs	0, cr0, [r5], #-400	@ 0xfffffe70
            uxSchedulerSuspended = ( UBaseType_t ) ( uxSchedulerSuspended - 1U );
     680:	6b736154 	blvs	1cd8bd8 <_edata+0x1cd6788>
     684:	656e6547 	strbvs	r6, [lr, #-1351]!	@ 0xfffffab9
            if( uxSchedulerSuspended == ( UBaseType_t ) 0U )
     688:	4e636972 			@ <UNDEFINED> instruction: 0x4e636972
     68c:	6669746f 	strbtvs	r7, [r9], -pc, ror #8
     690:	6b615479 	blvs	185587c <_edata+0x185342c>
                if( uxCurrentNumberOfTasks > ( UBaseType_t ) 0U )
     694:	694d0065 	stmdbvs	sp, {r0, r2, r5, r6}^
     698:	694c696e 	stmdbvs	ip, {r1, r2, r3, r5, r6, r8, fp, sp, lr}^
                    while( listLIST_IS_EMPTY( &xPendingReadyList ) == pdFALSE )
     69c:	74497473 	strbvc	r7, [r9], #-1139	@ 0xfffffb8d
                        pxTCB = listGET_OWNER_OF_HEAD_ENTRY( ( &xPendingReadyList ) );
     6a0:	745f6d65 	ldrbvc	r6, [pc], #-3429	@ 6a8 <xTaskResumeAll+0x40>
     6a4:	76727000 	ldrbtvc	r7, [r2], -r0
                        listREMOVE_ITEM( &( pxTCB->xEventListItem ) );
     6a8:	4e646441 	cdpmi	4, 6, cr6, cr4, cr1, {2}
     6ac:	61547765 	cmpvs	r4, r5, ror #14
     6b0:	6f546b73 	svcvs	0x00546b73
     6b4:	64616552 	strbtvs	r6, [r1], #-1362	@ 0xfffffaae
     6b8:	73694c79 	cmnvc	r9, #30976	@ 0x7900
     6bc:	69750074 	ldmdbvs	r5!, {r2, r4, r5, r6}^
     6c0:	5f38746e 	svcpl	0x0038746e
     6c4:	72700074 	rsbsvc	r0, r0, #116	@ 0x74
     6c8:	65724376 	ldrbvs	r4, [r2, #-886]!	@ 0xfffffc8a
     6cc:	49657461 	stmdbmi	r5!, {r0, r5, r6, sl, ip, sp, lr}^
     6d0:	54656c64 	strbtpl	r6, [r5], #-3172	@ 0xfffff39c
     6d4:	736b7361 	cmnvc	fp, #-2080374783	@ 0x84000001
     6d8:	4e787000 	cdpmi	0, 7, cr7, cr8, cr0, {0}
     6dc:	43547765 	cmpmi	r4, #26476544	@ 0x1940000
     6e0:	78700042 	ldmdavc	r0!, {r1, r6}^
                        listREMOVE_ITEM( &( pxTCB->xStateListItem ) );
     6e4:	6b736154 	blvs	1cd8c3c <_edata+0x1cd67ec>
     6e8:	65646f43 	strbvs	r6, [r4, #-3907]!	@ 0xfffff0bd
     6ec:	69597800 	ldmdbvs	r9, {fp, ip, sp, lr}^
     6f0:	4f646c65 	svcmi	0x00646c65
     6f4:	72756363 	rsbsvc	r6, r5, #-1946157055	@ 0x8c000001
     6f8:	00646572 	rsbeq	r6, r4, r2, ror r5
     6fc:	6f6d654d 	svcvs	0x006d654d
     700:	65527972 	ldrbvs	r7, [r2, #-2418]	@ 0xfffff68e
     704:	6e6f6967 	vnmulvs.f16	s13, s30, s15	@ <UNPREDICTABLE>
     708:	7800745f 	stmdavc	r0, {r0, r1, r2, r3, r4, r6, sl, ip, sp, lr}
     70c:	7478654e 	ldrbtvc	r6, [r8], #-1358	@ 0xfffffab2
     710:	6b736154 	blvs	1cd8c68 <_edata+0x1cd6818>
     714:	6c626e55 	stclvs	14, cr6, [r2], #-340	@ 0xfffffeac
     718:	546b636f 	strbtpl	r6, [fp], #-879	@ 0xfffffc91
     71c:	00656d69 	rsbeq	r6, r5, r9, ror #26
     720:	6f506c75 	svcvs	0x00506c75
                        prvAddTaskToReadyList( pxTCB );
     724:	61527472 	cmpvs	r2, r2, ror r4
     728:	42657369 	rsbmi	r7, r5, #-1543503871	@ 0xa4000001
     72c:	50455341 	subpl	r5, r5, r1, asr #6
     730:	70004952 	andvc	r4, r0, r2, asr r9
     734:	726f5078 	rsbvc	r5, pc, #120	@ 0x78
     738:	696e4974 	stmdbvs	lr!, {r2, r4, r5, r6, r8, fp, lr}^
     73c:	6c616974 			@ <UNDEFINED> instruction: 0x6c616974
     740:	53657369 	cmnpl	r5, #-1543503871	@ 0xa4000001
     744:	6b636174 	blvs	18d8d1c <_edata+0x18d68cc>
     748:	52787500 	rsbspl	r7, r8, #0, 10
     74c:	72757465 	rsbsvc	r7, r5, #1694498816	@ 0x65000000
     750:	6c75006e 	ldclvs	0, cr0, [r5], #-440	@ 0xfffffe48
     754:	75746552 	ldrbvc	r6, [r4, #-1362]!	@ 0xfffffaae
     758:	75006e72 	strvc	r6, [r0, #-3698]	@ 0xfffff18e
     75c:	7361546c 	cmnvc	r1, #108, 8	@ 0x6c000000
     760:	6e65476b 	cdpvs	7, 6, cr4, cr5, cr11, {3}
     764:	63697265 	cmnvs	r9, #1342177286	@ 0x50000006
     768:	69746f4e 	ldmdbvs	r4!, {r1, r2, r3, r6, r8, r9, sl, fp, sp, lr}^
     76c:	61567966 	cmpvs	r6, r6, ror #18
     770:	4365756c 	cmnmi	r5, #108, 10	@ 0x1b000000
     774:	7261656c 	rsbvc	r6, r1, #108, 10	@ 0x1b000000
     778:	50637500 	rsbpl	r7, r3, r0, lsl #10
     77c:	4374726f 	cmnmi	r4, #-268435450	@ 0xf0000006
     780:	746e756f 	strbtvc	r7, [lr], #-1391	@ 0xfffffa91
     784:	6461654c 	strbtvs	r6, [r1], #-1356	@ 0xfffffab4
     788:	5a676e69 	bpl	19dc134 <_edata+0x19d9ce4>
     78c:	736f7265 	cmnvc	pc, #1342177286	@ 0x50000006
     790:	4c6c7500 	cfstr64mi	mvdx7, [ip], #-0
     794:	74676e65 	strbtvc	r6, [r7], #-3685	@ 0xfffff19b
     798:	426e4968 	rsbmi	r4, lr, #104, 18	@ 0x1a0000
     79c:	73657479 	cmnvc	r5, #2030043136	@ 0x79000000
     7a0:	76727000 	ldrbtvc	r7, [r2], -r0
                            if( pxTCB->uxPriority > pxCurrentTCB->uxPriority )
     7a4:	65736552 	ldrbvs	r6, [r3, #-1362]!	@ 0xfffffaae
     7a8:	78654e74 	stmdavc	r5!, {r2, r4, r5, r6, r9, sl, fp, lr}^
     7ac:	73615474 	cmnvc	r1, #116, 8	@ 0x74000000
     7b0:	626e556b 	rsbvs	r5, lr, #448790528	@ 0x1ac00000
                                xYieldPendings[ xCoreID ] = pdTRUE;
     7b4:	6b636f6c 	blvs	18dc56c <_edata+0x18da11c>
     7b8:	656d6954 	strbvs	r6, [sp, #-2388]!	@ 0xfffff6ac
                    while( listLIST_IS_EMPTY( &xPendingReadyList ) == pdFALSE )
     7bc:	69547800 	ldmdbvs	r4, {fp, ip, sp, lr}^
     7c0:	6e4f656d 	cdpvs	5, 4, cr6, cr15, cr13, {3}
     7c4:	65746e45 	ldrbvs	r6, [r4, #-3653]!	@ 0xfffff1bb
                    if( pxTCB != NULL )
     7c8:	676e6972 			@ <UNDEFINED> instruction: 0x676e6972
                        prvResetNextTaskUnblockTime();
     7cc:	4e787000 	cdpmi	0, 7, cr7, cr8, cr0, {0}
                        TickType_t xPendedCounts = xPendedTicks; /* Non-volatile copy. */
     7d0:	00747865 	rsbseq	r7, r4, r5, ror #16
     7d4:	506c7570 	rsbpl	r7, ip, r0, ror r5
                        if( xPendedCounts > ( TickType_t ) 0U )
     7d8:	69766572 	ldmdbvs	r6!, {r1, r4, r5, r6, r8, sl, sp, lr}^
                                if( xTaskIncrementTick() != pdFALSE )
     7dc:	4e73756f 	cdpmi	5, 7, cr7, cr3, cr15, {3}
     7e0:	6669746f 	strbtvs	r7, [r9], -pc, ror #8
     7e4:	74616369 	strbtvc	r6, [r1], #-873	@ 0xfffffc97
                                    xYieldPendings[ xCoreID ] = pdTRUE;
     7e8:	566e6f69 	strbtpl	r6, [lr], -r9, ror #30
     7ec:	65756c61 	ldrbvs	r6, [r5, #-3169]!	@ 0xfffff39f
                                --xPendedCounts;
     7f0:	6d656d00 	stclvs	13, cr6, [r5, #-0]
     7f4:	00746573 	rsbseq	r6, r4, r3, ror r5
                            } while( xPendedCounts > ( TickType_t ) 0U );
     7f8:	69547870 	ldmdbvs	r4, {r4, r5, r6, fp, ip, sp, lr}^
                            xPendedTicks = 0;
     7fc:	754f656d 	strbvc	r6, [pc, #-1389]	@ 297 <prvCreateTask+0x33>
     800:	2e2e0074 	mcrcs	0, 1, r0, cr14, cr4, {3}
                    if( xYieldPendings[ xCoreID ] != pdFALSE )
     804:	6572462f 	ldrbvs	r4, [r2, #-1583]!	@ 0xfffff9d1
     808:	4f545265 	svcmi	0x00545265
     80c:	654b2d53 	strbvs	r2, [fp, #-3411]	@ 0xfffff2ad
                            xAlreadyYielded = pdTRUE;
     810:	6c656e72 	stclvs	14, cr6, [r5], #-456	@ 0xfffffe38
                            taskYIELD_TASK_CORE_IF_USING_PREEMPTION( pxCurrentTCB );
     814:	7361742f 	cmnvc	r1, #788529152	@ 0x2f000000
     818:	632e736b 			@ <UNDEFINED> instruction: 0x632e736b
     81c:	61547800 	cmpvs	r4, r0, lsl #16
     820:	65476b73 	strbvs	r6, [r7, #-2931]	@ 0xfffff48d
     824:	63695474 	cmnvs	r9, #116, 8	@ 0x74000000
        taskEXIT_CRITICAL();
     828:	756f436b 	strbvc	r4, [pc, #-875]!	@ 4c5 <prvAddNewTaskToReadyList+0xd9>
}
     82c:	5400746e 	strpl	r7, [r0], #-1134	@ 0xfffffb92
     830:	4f656d69 	svcmi	0x00656d69
     834:	745f7475 	ldrbvc	r7, [pc], #-1141	@ 83c <xTaskResumeAll+0x1d4>
     838:	61547600 	cmpvs	r4, r0, lsl #12
     83c:	6e496b73 	vmovvs.8	d9[3], r6
     840:	6e726574 	mrcvs	5, 3, r6, cr2, cr4, {3}
     844:	65536c61 	ldrbvs	r6, [r3, #-3169]	@ 0xfffff39f
     848:	6d695474 	cfstrdvs	mvd5, [r9, #-464]!	@ 0xfffffe30
     84c:	74754f65 	ldrbtvc	r4, [r5], #-3941	@ 0xfffff09b
     850:	74617453 	strbtvc	r7, [r1], #-1107	@ 0xfffffbad
     854:	78750065 	ldmdavc	r5!, {r0, r2, r5, r6}^
{
     858:	6b736154 	blvs	1cd8db0 <_edata+0x1cd6960>
     85c:	626d754e 	rsbvs	r7, sp, #327155712	@ 0x13800000
        xTicks = xTickCount;
     860:	65007265 	strvs	r7, [r0, #-613]	@ 0xfffffd9b
    return xTicks;
     864:	69746341 	ldmdbvs	r4!, {r0, r6, r8, r9, sp, lr}^
}
     868:	75006e6f 	strvc	r6, [r0, #-3695]	@ 0xfffff191
     86c:	77654e6c 	strbvc	r4, [r5, -ip, ror #28]!
     870:	6b73614d 	blvs	1cd8dac <_edata+0x1cd695c>
{
     874:	756c6156 	strbvc	r6, [ip, #-342]!	@ 0xfffffeaa
     878:	78750065 	ldmdavc	r5!, {r0, r2, r5, r6}^
    uxSavedInterruptStatus = portTICK_TYPE_SET_INTERRUPT_MASK_FROM_ISR();
     87c:	6b736154 	blvs	1cd8dd4 <_edata+0x1cd6984>
        xReturn = xTickCount;
     880:	65736552 	ldrbvs	r6, [r3, #-1362]!	@ 0xfffffaae
    return xReturn;
     884:	65764574 	ldrbvs	r4, [r6, #-1396]!	@ 0xfffffa8c
}
     888:	7449746e 	strbvc	r7, [r9], #-1134	@ 0xfffffb92
     88c:	61566d65 	cmpvs	r6, r5, ror #26
     890:	0065756c 	rsbeq	r7, r5, ip, ror #10
{
     894:	7473694c 	ldrbtvc	r6, [r3], #-2380	@ 0xfffff6b4
    return uxCurrentNumberOfTasks;
     898:	7800745f 	stmdavc	r0, {r0, r1, r2, r3, r4, r6, sl, ip, sp, lr}
}
     89c:	6b736154 	blvs	1cd8df4 <_edata+0x1cd69a4>
     8a0:	75516f54 	ldrbvc	r6, [r1, #-3924]	@ 0xfffff0ac
     8a4:	00797265 	rsbseq	r7, r9, r5, ror #4
{
     8a8:	6b636954 	blvs	18dae00 <_edata+0x18d89b0>
     8ac:	65707954 	ldrbvs	r7, [r0, #-2388]!	@ 0xfffff6ac
    pxTCB = prvGetTCBFromHandle( xTaskToQuery );
     8b0:	7800745f 	stmdavc	r0, {r0, r1, r2, r3, r4, r6, sl, ip, sp, lr}
     8b4:	6b736154 	blvs	1cd8e0c <_edata+0x1cd69bc>
     8b8:	6f4e6f54 	svcvs	0x004e6f54
     8bc:	79666974 	stmdbvc	r6!, {r2, r4, r5, r6, r8, fp, sp, lr}^
    return &( pxTCB->pcTaskName[ 0 ] );
     8c0:	61547800 	cmpvs	r4, r0, lsl #16
}
     8c4:	65006b73 	strvs	r6, [r0, #-2931]	@ 0xfffff48d
     8c8:	42746553 	rsbsmi	r6, r4, #348127232	@ 0x14c00000
     8cc:	00737469 	rsbseq	r7, r3, r9, ror #8
     8d0:	4d454d78 	stclmi	13, cr4, [r5, #-480]	@ 0xfffffe20
{
     8d4:	5f59524f 	svcpl	0x0059524f
     8d8:	49474552 	stmdbmi	r7, {r1, r4, r6, r8, sl, lr}^
    vTaskSuspendAll();
     8dc:	76004e4f 	strvc	r4, [r0], -pc, asr #28
    taskENTER_CRITICAL();
     8e0:	6b736154 	blvs	1cd8e38 <_edata+0x1cd69e8>
        xPendedTicks += xTicksToCatchUp;
     8e4:	74697753 	strbtvc	r7, [r9], #-1875	@ 0xfffff8ad
     8e8:	6f436863 	svcvs	0x00436863
     8ec:	7865746e 	stmdavc	r5!, {r1, r2, r3, r5, r6, sl, ip, sp, lr}^
    taskEXIT_CRITICAL();
     8f0:	4e780074 	mrcmi	0, 3, r0, cr8, cr4, {3}
    xYieldOccurred = xTaskResumeAll();
     8f4:	664f6d75 			@ <UNDEFINED> instruction: 0x664f6d75
     8f8:	7265764f 	rsbvc	r7, r5, #82837504	@ 0x4f00000
}
     8fc:	776f6c66 	strbvc	r6, [pc, -r6, ror #24]!
     900:	76700073 			@ <UNDEFINED> instruction: 0x76700073
     904:	746e6f43 	strbtvc	r6, [lr], #-3907	@ 0xfffff0bd
{
     908:	656e6961 	strbvs	r6, [lr, #-2401]!	@ 0xfffff69f
     90c:	78700072 	ldmdavc	r0!, {r1, r4, r5, r6}^
    BaseType_t xSwitchRequired = pdFALSE;
     910:	72727543 	rsbsvc	r7, r2, #281018368	@ 0x10c00000
    if( uxSchedulerSuspended == ( UBaseType_t ) 0U )
     914:	54746e65 	ldrbtpl	r6, [r4], #-3685	@ 0xfffff19b
     918:	78004243 	stmdavc	r0, {r0, r1, r6, r9, lr}
        const TickType_t xConstTickCount = xTickCount + ( TickType_t ) 1;
     91c:	756f6853 	strbvc	r6, [pc, #-2131]!	@ d1 <_stext+0xd1>
     920:	6c42646c 	cfstrdvs	mvd6, [r2], {108}	@ 0x6c
        xTickCount = xConstTickCount;
     924:	006b636f 	rsbeq	r6, fp, pc, ror #6
     928:	6c644963 			@ <UNDEFINED> instruction: 0x6c644963
        if( xConstTickCount == ( TickType_t ) 0U )
     92c:	6d614e65 	stclvs	14, cr4, [r1, #-404]!	@ 0xfffffe6c
            taskSWITCH_DELAYED_LISTS();
     930:	4c760065 	ldclmi	0, cr0, [r6], #-404	@ 0xfffffe6c
     934:	49747369 	ldmdbmi	r4!, {r0, r3, r5, r6, r8, r9, ip, sp, lr}^
     938:	6974696e 	ldmdbvs	r4!, {r1, r2, r3, r5, r6, r8, fp, sp, lr}^
     93c:	73696c61 	cmnvc	r9, #24832	@ 0x6100
     940:	65744965 	ldrbvs	r4, [r4, #-2405]!	@ 0xfffff69b
     944:	7270006d 	rsbsvc	r0, r0, #109	@ 0x6d
     948:	696e4976 	stmdbvs	lr!, {r1, r2, r4, r5, r6, r8, fp, lr}^
     94c:	6c616974 			@ <UNDEFINED> instruction: 0x6c616974
     950:	4e657369 	cdpmi	3, 6, cr7, cr5, cr9, {3}
        if( xConstTickCount >= xNextTaskUnblockTime )
     954:	61547765 	cmpvs	r4, r5, ror #14
     958:	78006b73 	stmdavc	r0, {r0, r1, r4, r5, r6, r8, r9, fp, sp, lr}
     95c:	6d657449 	cfstrdvs	mvd7, [r5, #-292]!	@ 0xfffffedc
                if( listLIST_IS_EMPTY( pxDelayedTaskList ) != pdFALSE )
     960:	756c6156 	strbvc	r6, [ip, #-342]!	@ 0xfffffeaa
     964:	54780065 	ldrbtpl	r0, [r8], #-101	@ 0xffffff9b
                    xNextTaskUnblockTime = portMAX_DELAY;
     968:	526b7361 	rsbpl	r7, fp, #-2080374783	@ 0x84000001
     96c:	6d757365 	ldclvs	3, cr7, [r5, #-404]!	@ 0xfffffe6c
                    break;
     970:	6c6c4165 	stfvse	f4, [ip], #-404	@ 0xfffffe6c
                    pxTCB = listGET_OWNER_OF_HEAD_ENTRY( pxDelayedTaskList );
     974:	44787000 	ldrbtmi	r7, [r8], #-0
     978:	79616c65 	stmdbvc	r1!, {r0, r2, r5, r6, sl, fp, sp, lr}^
                    xItemValue = listGET_LIST_ITEM_VALUE( &( pxTCB->xStateListItem ) );
     97c:	61546465 	cmpvs	r4, r5, ror #8
     980:	694c6b73 	stmdbvs	ip, {r0, r1, r4, r5, r6, r8, r9, fp, sp, lr}^
                    if( xConstTickCount < xItemValue )
     984:	78007473 	stmdavc	r0, {r0, r1, r4, r5, r6, sl, ip, sp, lr}
     988:	74697753 	strbtvc	r7, [r9], #-1875	@ 0xfffff8ad
                        xNextTaskUnblockTime = xItemValue;
     98c:	65526863 	ldrbvs	r6, [r2, #-2147]	@ 0xfffff79d
                        break;
     990:	72697571 	rsbvc	r7, r9, #473956352	@ 0x1c400000
                    listREMOVE_ITEM( &( pxTCB->xStateListItem ) );
     994:	70006465 	andvc	r6, r0, r5, ror #8
     998:	61745378 	cmnvs	r4, r8, ror r3
     99c:	75006b63 	strvc	r6, [r0, #-2915]	@ 0xfffff49d
     9a0:	6c61566c 	stclvs	6, cr5, [r1], #-432	@ 0xfffffe50
     9a4:	78006575 	stmdavc	r0, {r0, r2, r4, r5, r6, r8, sl, sp, lr}
     9a8:	6b736154 	blvs	1cd8f00 <_edata+0x1cd6ab0>
     9ac:	63656843 	cmnvs	r5, #4390912	@ 0x430000
     9b0:	726f466b 	rsbvc	r4, pc, #112197632	@ 0x6b00000
     9b4:	656d6954 	strbvs	r6, [sp, #-2388]!	@ 0xfffff6ac
     9b8:	0074754f 	rsbseq	r7, r4, pc, asr #10
     9bc:	726f5076 	rsbvc	r5, pc, #118	@ 0x76
     9c0:	65724674 	ldrbvs	r4, [r2, #-1652]!	@ 0xfffff98c
     9c4:	78700065 	ldmdavc	r0!, {r0, r2, r5, r6}^
     9c8:	656c6449 	strbvs	r6, [ip, #-1097]!	@ 0xfffffbb7
     9cc:	6b736154 	blvs	1cd8f24 <_edata+0x1cd6ad4>
                    if( listLIST_ITEM_CONTAINER( &( pxTCB->xEventListItem ) ) != NULL )
     9d0:	636e7546 	cmnvs	lr, #293601280	@ 0x11800000
     9d4:	6e6f6974 			@ <UNDEFINED> instruction: 0x6e6f6974
                        listREMOVE_ITEM( &( pxTCB->xEventListItem ) );
     9d8:	52637500 	rsbpl	r7, r3, #0, 10
     9dc:	72757465 	rsbsvc	r7, r5, #1694498816	@ 0x65000000
     9e0:	7570006e 	ldrbvc	r0, [r0, #-110]!	@ 0xffffff92
     9e4:	746f4e6c 	strbtvc	r4, [pc], #-3692	@ 9ec <xTaskIncrementTick+0xe4>
     9e8:	63696669 	cmnvs	r9, #110100480	@ 0x6900000
     9ec:	6f697461 	svcvs	0x00697461
     9f0:	6c61566e 	stclvs	6, cr5, [r1], #-440	@ 0xfffffe48
     9f4:	76006575 			@ <UNDEFINED> instruction: 0x76006575
     9f8:	6b736154 	blvs	1cd8f50 <_edata+0x1cd6b00>
     9fc:	7373694d 	cmnvc	r3, #1261568	@ 0x134000
     a00:	69596465 	ldmdbvs	r9, {r0, r2, r5, r6, sl, sp, lr}^
     a04:	00646c65 	rsbeq	r6, r4, r5, ror #24
     a08:	726f5076 	rsbvc	r5, pc, #118	@ 0x76
     a0c:	69615274 	stmdbvs	r1!, {r2, r4, r5, r6, r9, ip, lr}^
     a10:	41426573 	hvcmi	9811	@ 0x2653
     a14:	52504553 	subspl	r4, r0, #348127232	@ 0x14c00000
                    prvAddTaskToReadyList( pxTCB );
     a18:	63700049 	cmnvs	r0, #73	@ 0x49
     a1c:	6b736154 	blvs	1cd8f74 <_edata+0x1cd6b24>
     a20:	4e746547 	cdpmi	5, 7, cr6, cr4, cr7, {2}
     a24:	00656d61 	rsbeq	r6, r5, r1, ror #26
     a28:	63695478 	cmnvs	r9, #120, 8	@ 0x78000000
     a2c:	7800736b 	stmdavc	r0, {r0, r1, r3, r5, r6, r8, r9, ip, sp, lr}
     a30:	426e6143 	rsbmi	r6, lr, #-1073741808	@ 0xc0000010
     a34:	6b636f6c 	blvs	18dc7ec <_edata+0x18da39c>
     a38:	65646e49 	strbvs	r6, [r4, #-3657]!	@ 0xfffff1b7
     a3c:	696e6966 	stmdbvs	lr!, {r1, r2, r5, r6, r8, fp, sp, lr}^
     a40:	796c6574 	stmdbvc	ip!, {r2, r4, r5, r6, r8, sl, sp, lr}^
     a44:	42767000 	rsbsmi	r7, r6, #0
     a48:	41657361 	cmnmi	r5, r1, ror #6
     a4c:	65726464 	ldrbvs	r6, [r2, #-1124]!	@ 0xfffffb9c
     a50:	76007373 			@ <UNDEFINED> instruction: 0x76007373
     a54:	6b736154 	blvs	1cd8fac <_edata+0x1cd6b5c>
     a58:	656e6547 	strbvs	r6, [lr, #-1351]!	@ 0xfffffab9
     a5c:	4e636972 			@ <UNDEFINED> instruction: 0x4e636972
     a60:	6669746f 	strbtvs	r7, [r9], -pc, ror #8
     a64:	76694779 			@ <UNDEFINED> instruction: 0x76694779
     a68:	6f724665 	svcvs	0x00724665
     a6c:	5253496d 	subspl	r4, r3, #1785856	@ 0x1b4000
     a70:	61547600 	cmpvs	r4, r0, lsl #12
     a74:	6c506b73 	mrrcvs	11, 7, r6, r0, cr3
     a78:	4f656361 	svcmi	0x00656361
     a7c:	6f6e556e 	svcvs	0x006e556e
     a80:	72656472 	rsbvc	r6, r5, #1912602624	@ 0x72000000
     a84:	76456465 	strbvc	r6, [r5], -r5, ror #8
     a88:	4c746e65 	ldclmi	14, cr6, [r4], #-404	@ 0xfffffe6c
     a8c:	00747369 	rsbseq	r7, r4, r9, ror #6
     a90:	73694c76 	cmnvc	r9, #30208	@ 0x7600
     a94:	696e4974 	stmdbvs	lr!, {r2, r4, r5, r6, r8, fp, lr}^
                            if( pxTCB->uxPriority > pxCurrentTCB->uxPriority )
     a98:	6c616974 			@ <UNDEFINED> instruction: 0x6c616974
     a9c:	00657369 	rsbeq	r7, r5, r9, ror #6
     aa0:	69547870 	ldmdbvs	r4, {r4, r5, r6, fp, ip, sp, lr}^
     aa4:	54736b63 	ldrbtpl	r6, [r3], #-2915	@ 0xfffff49d
                                xSwitchRequired = pdTRUE;
     aa8:	6961576f 	stmdbvs	r1!, {r0, r1, r2, r3, r5, r6, r8, r9, sl, ip, lr}^
                if( listLIST_IS_EMPTY( pxDelayedTaskList ) != pdFALSE )
     aac:	4c760074 	ldclmi	0, cr0, [r6], #-464	@ 0xfffffe30
                if( listCURRENT_LIST_LENGTH( &( pxReadyTasksLists[ pxCurrentTCB->uxPriority ] ) ) > 1U )
     ab0:	49747369 	ldmdbmi	r4!, {r0, r3, r5, r6, r8, r9, ip, sp, lr}^
     ab4:	7265736e 	rsbvc	r7, r5, #-1207959551	@ 0xb8000001
     ab8:	78750074 	ldmdavc	r5!, {r2, r4, r5, r6}^
     abc:	50706f54 	rsbspl	r6, r0, r4, asr pc
     ac0:	726f6972 	rsbvc	r6, pc, #1867776	@ 0x1c8000
     ac4:	00797469 	rsbseq	r7, r9, r9, ror #8
                    xSwitchRequired = pdTRUE;
     ac8:	5f424354 	svcpl	0x00424354
                if( xYieldPendings[ 0 ] != pdFALSE )
     acc:	76700074 			@ <UNDEFINED> instruction: 0x76700074
     ad0:	656e774f 	strbvs	r7, [lr, #-1871]!	@ 0xfffff8b1
                    xSwitchRequired = pdTRUE;
     ad4:	41780072 	cmnmi	r8, r2, ror r0
        xPendedTicks += 1U;
     ad8:	6165726c 	cmnvs	r5, ip, ror #4
     adc:	69597964 	ldmdbvs	r9, {r2, r5, r6, r8, fp, ip, sp, lr}^
     ae0:	65646c65 	strbvs	r6, [r4, #-3173]!	@ 0xfffff39b
}
     ae4:	54780064 	ldrbtpl	r0, [r8], #-100	@ 0xffffff9c
     ae8:	476b7361 	strbmi	r7, [fp, -r1, ror #6]!
     aec:	75437465 	strbvc	r7, [r3, #-1125]	@ 0xfffffb9b
     af0:	6e657272 	mcrvs	2, 3, r7, cr5, cr2, {3}
     af4:	73615474 	cmnvc	r1, #116, 8	@ 0x74000000
     af8:	6e61486b 	cdpvs	8, 6, cr4, cr1, cr11, {3}
     afc:	00656c64 	rsbeq	r6, r5, r4, ror #24
     b00:	76457870 			@ <UNDEFINED> instruction: 0x76457870
     b04:	4c746e65 	ldclmi	14, cr6, [r4], #-404	@ 0xfffffe6c
     b08:	49747369 	ldmdbmi	r4!, {r0, r3, r5, r6, r8, r9, ip, sp, lr}^
     b0c:	006d6574 	rsbeq	r6, sp, r4, ror r5
     b10:	6e655078 	mcrvs	0, 3, r5, cr5, cr8, {3}
     b14:	54646564 	strbtpl	r6, [r4], #-1380	@ 0xfffffa9c
    {
     b18:	736b6369 	cmnvc	fp, #-1543503871	@ 0xa4000001
     b1c:	69547800 	ldmdbvs	r4, {fp, ip, sp, lr}^
        if( uxSchedulerSuspended != ( UBaseType_t ) 0U )
     b20:	54736b63 	ldrbtpl	r6, [r3], #-2915	@ 0xfffff49d
     b24:	7461436f 	strbtvc	r4, [r1], #-879	@ 0xfffffc91
            xYieldPendings[ 0 ] = pdTRUE;
     b28:	70556863 	subsvc	r6, r5, r3, ror #16
    }
     b2c:	65527800 	ldrbvs	r7, [r2, #-2048]	@ 0xfffff800
            xYieldPendings[ 0 ] = pdFALSE;
     b30:	6e6f6967 	vnmulvs.f16	s13, s30, s15	@ <UNPREDICTABLE>
            taskSELECT_HIGHEST_PRIORITY_TASK();
     b34:	72700073 	rsbsvc	r0, r0, #115	@ 0x73
     b38:	64644176 	strbtvs	r4, [r4], #-374	@ 0xfffffe8a
        __asm volatile ( "clz %0, %1" : "=r" ( ucReturn ) : "r" ( ulBitmap ) : "memory" );
     b3c:	72727543 	rsbsvc	r7, r2, #281018368	@ 0x10c00000
     b40:	54746e65 	ldrbtpl	r6, [r4], #-3685	@ 0xfffff19b
     b44:	546b7361 	strbtpl	r7, [fp], #-865	@ 0xfffffc9f
     b48:	6c65446f 	cfstrdvs	mvd4, [r5], #-444	@ 0xfffffe44
     b4c:	64657961 	strbtvs	r7, [r5], #-2401	@ 0xfffff69f
     b50:	7473694c 	ldrbtvc	r6, [r3], #-2380	@ 0xfffff6b4
     b54:	61547800 	cmpvs	r4, r0, lsl #16
     b58:	65476b73 	strbvs	r6, [r7, #-2931]	@ 0xfffff48d
     b5c:	72754374 	rsbsvc	r4, r5, #116, 6	@ 0xd0000001
     b60:	746e6572 	strbtvc	r6, [lr], #-1394	@ 0xfffffa8e
     b64:	6b736154 	blvs	1cd90bc <_edata+0x1cd6c6c>
     b68:	646e6148 	strbtvs	r6, [lr], #-328	@ 0xfffffeb8
     b6c:	6f46656c 	svcvs	0x0046656c
     b70:	726f4372 	rsbvc	r4, pc, #-939524095	@ 0xc8000001
     b74:	78750065 	ldmdavc	r5!, {r0, r2, r5, r6}^
     b78:	72727543 	rsbsvc	r7, r2, #281018368	@ 0x10c00000
     b7c:	4e746e65 	cdpmi	14, 7, cr6, cr4, cr5, {3}
     b80:	65626d75 	strbvs	r6, [r2, #-3445]!	@ 0xfffff28b
            portTASK_SWITCH_HOOK( pxCurrentTCB );
     b84:	54664f72 	strbtpl	r4, [r6], #-3954	@ 0xfffff08e
    }
     b88:	736b7361 	cmnvc	fp, #-2080374783	@ 0x84000001
     b8c:	69547800 	ldmdbvs	r4, {fp, ip, sp, lr}^
     b90:	6f54656d 	svcvs	0x0054656d
     b94:	656b6157 	strbvs	r6, [fp, #-343]!	@ 0xfffffea9
     b98:	74537800 	ldrbvc	r7, [r3], #-2048	@ 0xfffff800
     b9c:	4c657461 	cfstrdmi	mvd7, [r5], #-388	@ 0xfffffe7c
     ba0:	49747369 	ldmdbmi	r4!, {r0, r3, r5, r6, r8, r9, ip, sp, lr}^
{
     ba4:	006d6574 	rsbeq	r6, sp, r4, ror r5
     ba8:	43547870 	cmpmi	r4, #112, 16	@ 0x700000
     bac:	54780042 	ldrbtpl	r0, [r8], #-66	@ 0xffffffbe
    vListInsert( pxEventList, &( pxCurrentTCB->xEventListItem ) );
     bb0:	476b7361 	strbmi	r7, [fp, -r1, ror #6]!
     bb4:	72656e65 	rsbvc	r6, r5, #1616	@ 0x650
     bb8:	6f4e6369 	svcvs	0x004e6369
    prvAddCurrentTaskToDelayedList( xTicksToWait, pdTRUE );
     bbc:	79666974 	stmdbvc	r6!, {r2, r4, r5, r6, r8, fp, sp, lr}^
     bc0:	74617453 	strbtvc	r7, [r1], #-1107	@ 0xfffffbad
}
     bc4:	656c4365 	strbvs	r4, [ip, #-869]!	@ 0xfffffc9b
     bc8:	75007261 	strvc	r7, [r0, #-609]	@ 0xfffffd9f
     bcc:	68635378 	stmdavs	r3!, {r3, r4, r5, r6, r8, r9, ip, lr}^
{
     bd0:	6c756465 	cfldrdvs	mvd6, [r5], #-404	@ 0xfffffe6c
     bd4:	75537265 	ldrbvc	r7, [r3, #-613]	@ 0xfffffd9b
     bd8:	6e657073 	mcrvs	0, 3, r7, cr5, cr3, {3}
    listSET_LIST_ITEM_VALUE( &( pxCurrentTCB->xEventListItem ), xItemValue | taskEVENT_LIST_ITEM_VALUE_IN_USE );
     bdc:	00646564 	rsbeq	r6, r4, r4, ror #10
     be0:	6f547870 	svcvs	0x00547870
     be4:	53664f70 	cmnpl	r6, #112, 30	@ 0x1c0
    listINSERT_END( pxEventList, &( pxCurrentTCB->xEventListItem ) );
     be8:	6b636174 	blvs	18d91c0 <_edata+0x18d6d70>
     bec:	50767000 	rsbspl	r7, r6, r0
     bf0:	4d74726f 	lfmmi	f7, 2, [r4, #-444]!	@ 0xfffffe44
     bf4:	6f6c6c61 	svcvs	0x006c6c61
     bf8:	50760063 	rsbspl	r0, r6, r3, rrx
     bfc:	4574726f 	ldrbmi	r7, [r4, #-623]!	@ 0xfffffd91
     c00:	6353646e 	cmpvs	r3, #1845493760	@ 0x6e000000
     c04:	75646568 	strbvc	r6, [r4, #-1384]!	@ 0xfffffa98
     c08:	0072656c 	rsbseq	r6, r2, ip, ror #10
     c0c:	694c7870 	stmdbvs	ip, {r4, r5, r6, fp, ip, sp, lr}^
     c10:	75007473 	strvc	r7, [r0, #-1139]	@ 0xfffffb8d
     c14:	646e4978 	strbtvs	r4, [lr], #-2424	@ 0xfffff688
     c18:	6f547865 	svcvs	0x00547865
     c1c:	69746f4e 	ldmdbvs	r4!, {r1, r2, r3, r6, r8, r9, sl, fp, sp, lr}^
     c20:	70007966 	andvc	r7, r0, r6, ror #18
     c24:	65724378 	ldrbvs	r4, [r2, #-888]!	@ 0xfffffc88
     c28:	64657461 	strbtvs	r7, [r5], #-1121	@ 0xfffffb9f
    prvAddCurrentTaskToDelayedList( xTicksToWait, pdTRUE );
     c2c:	6b736154 	blvs	1cd9184 <_edata+0x1cd6d34>
     c30:	76727000 	ldrbtvc	r7, [r2], -r0
}
     c34:	63656843 	cmnvs	r5, #4390912	@ 0x430000
     c38:	7361546b 	cmnvc	r1, #1795162112	@ 0x6b000000
     c3c:	6157736b 	cmpvs	r7, fp, ror #6
{
     c40:	6e697469 	cdpvs	4, 6, cr7, cr9, cr9, {3}
     c44:	72655467 	rsbvc	r5, r5, #1728053248	@ 0x67000000
    pxUnblockedTCB = listGET_OWNER_OF_HEAD_ENTRY( pxEventList );
     c48:	616e696d 	cmnvs	lr, sp, ror #18
     c4c:	6e6f6974 			@ <UNDEFINED> instruction: 0x6e6f6974
    listREMOVE_ITEM( &( pxUnblockedTCB->xEventListItem ) );
     c50:	4f787000 	svcmi	0x00787000
     c54:	66726576 			@ <UNDEFINED> instruction: 0x66726576
     c58:	44776f6c 	ldrbtmi	r6, [r7], #-3948	@ 0xfffff094
     c5c:	79616c65 	stmdbvc	r1!, {r0, r2, r5, r6, sl, fp, sp, lr}^
     c60:	694c6465 	stmdbvs	ip, {r0, r2, r5, r6, sl, sp, lr}^
     c64:	75007473 	strvc	r7, [r0, #-1139]	@ 0xfffffb8d
     c68:	646e4978 	strbtvs	r4, [lr], #-2424	@ 0xfffff688
     c6c:	6f547865 	svcvs	0x00547865
     c70:	74696157 	strbtvc	r6, [r9], #-343	@ 0xfffffea9
     c74:	70006e4f 	andvc	r6, r0, pc, asr #28
     c78:	65725078 	ldrbvs	r5, [r2, #-120]!	@ 0xffffff88
     c7c:	756f6976 	strbvc	r6, [pc, #-2422]!	@ 30e <xTaskCreate+0x32>
     c80:	6f6c4273 	svcvs	0x006c4273
     c84:	70006b63 	andvc	r6, r0, r3, ror #22
     c88:	61654878 	smcvs	21640	@ 0x5488
     c8c:	61745370 	cmnvs	r4, r0, ror r3
    if( uxSchedulerSuspended == ( UBaseType_t ) 0U )
     c90:	78007374 	stmdavc	r0, {r2, r4, r5, r6, r8, r9, ip, sp, lr}
     c94:	696e694d 	stmdbvs	lr!, {r0, r2, r3, r6, r8, fp, sp, lr}^
        listREMOVE_ITEM( &( pxUnblockedTCB->xStateListItem ) );
     c98:	456d756d 	strbmi	r7, [sp, #-1389]!	@ 0xfffffa93
     c9c:	46726576 			@ <UNDEFINED> instruction: 0x46726576
     ca0:	42656572 	rsbmi	r6, r5, #478150656	@ 0x1c800000
     ca4:	73657479 	cmnvc	r5, #2030043136	@ 0x79000000
     ca8:	616d6552 	cmnvs	sp, r2, asr r5
     cac:	6e696e69 	cdpvs	14, 6, cr6, cr9, cr9, {3}
     cb0:	65480067 	strbvs	r0, [r8, #-103]	@ 0xffffff99
     cb4:	74537061 	ldrbvc	r7, [r3], #-97	@ 0xffffff9f
     cb8:	5f737461 	svcpl	0x00737461
     cbc:	78700074 	ldmdavc	r0!, {r2, r4, r5, r6}^
     cc0:	636f6c42 	cmnvs	pc, #16896	@ 0x4200
     cc4:	4d78006b 	ldclmi	0, cr0, [r8, #-428]!	@ 0xfffffe54
     cc8:	69536e69 	ldmdbvs	r3, {r0, r3, r5, r6, r9, sl, fp, sp, lr}^
     ccc:	7800657a 	stmdavc	r0, {r1, r3, r4, r5, r6, r8, sl, sp, lr}
     cd0:	626d754e 	rsbvs	r7, sp, #327155712	@ 0x13800000
        prvAddTaskToReadyList( pxUnblockedTCB );
     cd4:	664f7265 	strbvs	r7, [pc], -r5, ror #4
     cd8:	65657246 	strbvs	r7, [r5, #-582]!	@ 0xfffffdba
     cdc:	636f6c42 	cmnvs	pc, #16896	@ 0x4200
     ce0:	7000736b 	andvc	r7, r0, fp, ror #6
     ce4:	646e4578 	strbtvs	r4, [lr], #-1400	@ 0xfffffa88
     ce8:	76727000 	ldrbtvc	r7, [r2], -r0
     cec:	65736e49 	ldrbvs	r6, [r3, #-3657]!	@ 0xfffff1b7
     cf0:	6c427472 	cfstrdvs	mvd7, [r2], {114}	@ 0x72
     cf4:	496b636f 	stmdbmi	fp!, {r0, r1, r2, r3, r5, r6, r8, r9, sp, lr}^
     cf8:	466f746e 	strbtmi	r7, [pc], -lr, ror #8
     cfc:	4c656572 	cfstr64mi	mvdx6, [r5], #-456	@ 0xfffffe38
     d00:	00747369 	rsbseq	r7, r4, r9, ror #6
     d04:	726f5078 	rsbvc	r5, pc, #120	@ 0x78
     d08:	73655274 	cmnvc	r5, #116, 4	@ 0x40000007
     d0c:	65487465 	strbvs	r7, [r8, #-1125]	@ 0xfffffb9b
     d10:	694d7061 	stmdbvs	sp, {r0, r5, r6, ip, sp, lr}^
     d14:	756d696e 	strbvc	r6, [sp, #-2414]!	@ 0xfffff692
     d18:	6576456d 	ldrbvs	r4, [r6, #-1389]!	@ 0xfffffa93
     d1c:	65724672 	ldrbvs	r4, [r2, #-1650]!	@ 0xfffff98e
     d20:	61654865 	cmnvs	r5, r5, ror #16
     d24:	7a695370 	bvc	1a55aec <_edata+0x1a5369c>
     d28:	5f410065 	svcpl	0x00410065
     d2c:	434f4c42 	movtmi	r4, #64578	@ 0xfc42
     d30:	494c5f4b 	stmdbmi	ip, {r0, r1, r3, r6, r8, r9, sl, fp, ip, lr}^
     d34:	75004b4e 	strvc	r4, [r0, #-2894]	@ 0xfffff4b2
     d38:	61745378 	cmnvs	r4, r8, ror r3
     d3c:	64417472 	strbvs	r7, [r1], #-1138	@ 0xfffffb8e
     d40:	73657264 	cmnvc	r5, #100, 4	@ 0x40000006
     d44:	53780073 	cmnpl	r8, #115	@ 0x73
     d48:	4f657a69 	svcmi	0x00657a69
     d4c:	616d5366 	cmnvs	sp, r6, ror #6
     d50:	73656c6c 	cmnvc	r5, #108, 24	@ 0x6c00
     d54:	65724674 	ldrbvs	r4, [r2, #-1652]!	@ 0xfffff98c
        listINSERT_END( &( xPendingReadyList ), &( pxUnblockedTCB->xEventListItem ) );
     d58:	6f6c4265 	svcvs	0x006c4265
     d5c:	6e496b63 	vmlsvs.f64	d22, d9, d19
     d60:	65747942 	ldrbvs	r7, [r4, #-2370]!	@ 0xfffff6be
     d64:	48780073 	ldmdami	r8!, {r0, r1, r4, r5, r6}^
     d68:	53706165 	cmnpl	r0, #1073741849	@ 0x40000019
     d6c:	63757274 	cmnvs	r5, #116, 4	@ 0x40000007
     d70:	7a695374 	bvc	1a55b48 <_edata+0x1a536f8>
     d74:	41780065 	cmnmi	r8, r5, rrx
     d78:	636f6c6c 	cmnvs	pc, #108, 24	@ 0x6c00
     d7c:	64657461 	strbtvs	r7, [r5], #-1121	@ 0xfffffb9f
     d80:	636f6c42 	cmnvs	pc, #16896	@ 0x4200
     d84:	7a69536b 	bvc	1a55b38 <_edata+0x1a536e8>
     d88:	78750065 	ldmdavc	r5!, {r0, r2, r5, r6}^
     d8c:	41646e45 	cmnmi	r4, r5, asr #28
        if( pxUnblockedTCB->uxPriority > pxCurrentTCB->uxPriority )
     d90:	65726464 	ldrbvs	r6, [r2, #-1124]!	@ 0xfffffb9c
     d94:	70007373 	andvc	r7, r0, r3, ror r3
     d98:	77654e78 			@ <UNDEFINED> instruction: 0x77654e78
     d9c:	636f6c42 	cmnvs	pc, #16896	@ 0x4200
            xReturn = pdTRUE;
     da0:	6e694c6b 	cdpvs	12, 6, cr4, cr9, cr11, {3}
            xYieldPendings[ 0 ] = pdTRUE;
     da4:	5078006b 	rsbspl	r0, r8, fp, rrx
     da8:	4774726f 	ldrbmi	r7, [r4, -pc, ror #4]!
            xReturn = pdFALSE;
     dac:	72467465 	subvc	r7, r6, #1694498816	@ 0x65000000
}
     db0:	65486565 	strbvs	r6, [r8, #-1381]	@ 0xfffffa9b
     db4:	69537061 	ldmdbvs	r3, {r0, r5, r6, ip, sp, lr}^
     db8:	7800657a 	stmdavc	r0, {r1, r3, r4, r5, r6, r8, sl, sp, lr}
     dbc:	69646441 	stmdbvs	r4!, {r0, r6, sl, sp, lr}^
     dc0:	6e6f6974 			@ <UNDEFINED> instruction: 0x6e6f6974
     dc4:	65526c61 	ldrbvs	r6, [r2, #-3169]	@ 0xfffff39f
     dc8:	72697571 	rsbvc	r7, r9, #473956352	@ 0x1c400000
     dcc:	69536465 	ldmdbvs	r3, {r0, r2, r5, r6, sl, sp, lr}^
     dd0:	7000657a 	andvc	r6, r0, sl, ror r5
{
     dd4:	74655276 	strbtvc	r5, [r5], #-630	@ 0xfffffd8a
     dd8:	006e7275 	rsbeq	r7, lr, r5, ror r2
     ddc:	726f5076 	rsbvc	r5, pc, #118	@ 0x76
    listSET_LIST_ITEM_VALUE( pxEventListItem, xItemValue | taskEVENT_LIST_ITEM_VALUE_IN_USE );
     de0:	61654874 	smcvs	21636	@ 0x5484
     de4:	73655270 	cmnvc	r5, #112, 4
    pxUnblockedTCB = listGET_LIST_ITEM_OWNER( pxEventListItem );
     de8:	74537465 	ldrbvc	r7, [r3], #-1125	@ 0xfffffb9b
     dec:	00657461 	rsbeq	r7, r5, r1, ror #8
    listREMOVE_ITEM( pxEventListItem );
     df0:	78614d78 	stmdavc	r1!, {r3, r4, r5, r6, r8, sl, fp, lr}^
     df4:	657a6953 	ldrbvs	r6, [sl, #-2387]!	@ 0xfffff6ad
     df8:	6f507800 	svcvs	0x00507800
     dfc:	65477472 	strbvs	r7, [r7, #-1138]	@ 0xfffffb8e
     e00:	6e694d74 	mcrvs	13, 3, r4, cr9, cr4, {3}
     e04:	6d756d69 	ldclvs	13, cr6, [r5, #-420]!	@ 0xfffffe5c
     e08:	72657645 	rsbvc	r7, r5, #72351744	@ 0x4500000
     e0c:	65657246 	strbvs	r7, [r5, #-582]!	@ 0xfffffdba
     e10:	70616548 	rsbvc	r6, r1, r8, asr #10
     e14:	657a6953 	ldrbvs	r6, [sl, #-2387]!	@ 0xfffff6ad
     e18:	6f6c4200 	svcvs	0x006c4200
     e1c:	694c6b63 	stmdbvs	ip, {r0, r1, r5, r6, r8, r9, fp, sp, lr}^
     e20:	745f6b6e 	ldrbvc	r6, [pc], #-2926	@ e28 <vTaskRemoveFromUnorderedEventList+0x54>
     e24:	754e7800 	strbvc	r7, [lr, #-2048]	@ 0xfffff800
     e28:	7265626d 	rsbvc	r6, r5, #-805306362	@ 0xd0000006
    listREMOVE_ITEM( &( pxUnblockedTCB->xStateListItem ) );
     e2c:	7553664f 	ldrbvc	r6, [r3, #-1615]	@ 0xfffff9b1
     e30:	73656363 	cmnvc	r5, #-1946157055	@ 0x8c000001
     e34:	6c756673 	ldclvs	6, cr6, [r5], #-460	@ 0xfffffe34
     e38:	6f6c6c41 	svcvs	0x006c6c41
     e3c:	69746163 	ldmdbvs	r4!, {r0, r1, r5, r6, r8, sp, lr}^
     e40:	00736e6f 	rsbseq	r6, r3, pc, ror #28
     e44:	61764178 	cmnvs	r6, r8, ror r1
     e48:	62616c69 	rsbvs	r6, r1, #26880	@ 0x6900
     e4c:	6548656c 	strbvs	r6, [r8, #-1388]	@ 0xfffffa94
     e50:	70537061 	subsvc	r7, r3, r1, rrx
     e54:	49656361 	stmdbmi	r5!, {r0, r5, r6, r8, r9, sp, lr}^
     e58:	7479426e 	ldrbtvc	r4, [r9], #-622	@ 0xfffffd92
     e5c:	70007365 	andvc	r7, r0, r5, ror #6
     e60:	726f5076 	rsbvc	r5, pc, #118	@ 0x76
     e64:	6c614374 	stclvs	3, cr4, [r1], #-464	@ 0xfffffe30
    prvAddTaskToReadyList( pxUnblockedTCB );
     e68:	00636f6c 	rsbeq	r6, r3, ip, ror #30
     e6c:	462f2e2e 	strtmi	r2, [pc], -lr, lsr #28
     e70:	52656572 	rsbpl	r6, r5, #478150656	@ 0x1c800000
     e74:	2d534f54 	ldclcs	15, cr4, [r3, #-336]	@ 0xfffffeb0
     e78:	6e72654b 	cdpvs	5, 7, cr6, cr2, cr11, {2}
     e7c:	702f6c65 	eorvc	r6, pc, r5, ror #24
     e80:	6174726f 	cmnvs	r4, pc, ror #4
     e84:	2f656c62 	svccs	0x00656c62
     e88:	4d6d654d 	cfstr64mi	mvdx6, [sp, #-308]!	@ 0xfffffecc
     e8c:	2f676e61 	svccs	0x00676e61
     e90:	70616568 	rsbvc	r6, r1, r8, ror #10
     e94:	632e345f 			@ <UNDEFINED> instruction: 0x632e345f
     e98:	72467800 	subvc	r7, r6, #0, 16
     e9c:	79426565 	stmdbvc	r2, {r0, r2, r5, r6, r8, sl, sp, lr}^
     ea0:	52736574 	rsbspl	r6, r3, #116, 10	@ 0x1d000000
     ea4:	69616d65 	stmdbvs	r1!, {r0, r2, r5, r6, r8, sl, fp, sp, lr}^
     ea8:	676e696e 	strbvs	r6, [lr, -lr, ror #18]!
     eac:	69537800 	ldmdbvs	r3, {fp, ip, sp, lr}^
     eb0:	664f657a 			@ <UNDEFINED> instruction: 0x664f657a
     eb4:	6772614c 	ldrbvs	r6, [r2, -ip, asr #2]!
     eb8:	46747365 	ldrbtmi	r7, [r4], -r5, ror #6
     ebc:	42656572 	rsbmi	r6, r5, #478150656	@ 0x1c800000
     ec0:	6b636f6c 	blvs	18dcc78 <_edata+0x18da828>
     ec4:	79426e49 	stmdbvc	r2, {r0, r3, r6, r9, sl, fp, sp, lr}^
     ec8:	00736574 	rsbseq	r6, r3, r4, ror r5
     ecc:	74497870 	strbvc	r7, [r9], #-2160	@ 0xfffff790
     ed0:	74617265 	strbtvc	r7, [r1], #-613	@ 0xfffffd9b
     ed4:	7000726f 	andvc	r7, r0, pc, ror #4
     ed8:	65487672 	strbvs	r7, [r8, #-1650]	@ 0xfffff98e
     edc:	6e497061 	cdpvs	0, 4, cr7, cr9, cr1, {3}
     ee0:	70007469 	andvc	r7, r0, r9, ror #8
     ee4:	6f6c4278 	svcvs	0x006c4278
     ee8:	6f546b63 	svcvs	0x00546b63
        if( pxUnblockedTCB->uxPriority > pxCurrentTCB->uxPriority )
     eec:	65736e49 	ldrbvs	r6, [r3, #-3657]!	@ 0xfffff1b7
     ef0:	70007472 	andvc	r7, r0, r2, ror r4
     ef4:	78654e78 	stmdavc	r5!, {r3, r4, r5, r6, r9, sl, fp, lr}^
            xYieldPendings[ 0 ] = pdTRUE;
     ef8:	65724674 	ldrbvs	r4, [r2, #-1652]!	@ 0xfffff98c
     efc:	6f6c4265 	svcvs	0x006c4265
}
     f00:	78006b63 	stmdavc	r0, {r0, r1, r5, r6, r8, r9, fp, sp, lr}
     f04:	61746f54 	cmnvs	r4, r4, asr pc
     f08:	6165486c 	cmnvs	r5, ip, ror #16
     f0c:	7a695370 	bvc	1a55cd4 <_edata+0x1a53884>
     f10:	4e780065 	cdpmi	0, 7, cr0, cr8, cr5, {3}
     f14:	65626d75 	strbvs	r6, [r2, #-3445]!	@ 0xfffff28b
{
     f18:	53664f72 	cmnpl	r6, #456	@ 0x1c8
     f1c:	65636375 	strbvs	r6, [r3, #-885]!	@ 0xfffffc8b
    taskENTER_CRITICAL();
     f20:	75667373 	strbvc	r7, [r6, #-883]!	@ 0xfffffc8d
        pxTimeOut->xOverflowCount = xNumOfOverflows;
     f24:	6572466c 	ldrbvs	r4, [r2, #-1644]!	@ 0xfffff994
     f28:	78007365 	stmdavc	r0, {r0, r2, r5, r6, r8, r9, ip, sp, lr}
        pxTimeOut->xTimeOnEntering = xTickCount;
     f2c:	636f6c42 	cmnvs	pc, #16896	@ 0x4200
     f30:	7a69536b 	bvc	1a55ce4 <_edata+0x1a53894>
    taskEXIT_CRITICAL();
     f34:	53780065 	cmnpl	r8, #101	@ 0x65
}
     f38:	74726174 	ldrbtvc	r6, [r2], #-372	@ 0xfffffe8c
     f3c:	6c427800 	mcrrvs	8, 0, r7, r2, cr0
     f40:	736b636f 	cmnvc	fp, #-1140850687	@ 0xbc000001
     f44:	754e7800 	strbvc	r7, [lr, #-2048]	@ 0xfffff800
{
     f48:	7870006d 	ldmdavc	r0!, {r0, r2, r3, r5, r6}^
     f4c:	73726946 	cmnvc	r2, #1146880	@ 0x118000
    pxTimeOut->xOverflowCount = xNumOfOverflows;
     f50:	65724674 	ldrbvs	r4, [r2, #-1652]!	@ 0xfffff98c
     f54:	6f6c4265 	svcvs	0x006c4265
    pxTimeOut->xTimeOnEntering = xTickCount;
     f58:	78006b63 	stmdavc	r0, {r0, r1, r5, r6, r8, r9, fp, sp, lr}
     f5c:	746e6157 	strbtvc	r6, [lr], #-343	@ 0xfffffea9
}
     f60:	69536465 	ldmdbvs	r3, {r0, r2, r5, r6, sl, sp, lr}^
     f64:	7600657a 			@ <UNDEFINED> instruction: 0x7600657a
     f68:	74726f50 	ldrbtvc	r6, [r2], #-3920	@ 0xfffff0b0
     f6c:	74696e49 	strbtvc	r6, [r9], #-3657	@ 0xfffff1b7
     f70:	696c6169 	stmdbvs	ip!, {r0, r3, r5, r6, r8, sp, lr}^
{
     f74:	6c426573 	cfstr64vs	mvdx6, [r2], {115}	@ 0x73
     f78:	736b636f 	cmnvc	fp, #-1140850687	@ 0xbc000001
     f7c:	6f507600 	svcvs	0x00507600
    taskENTER_CRITICAL();
     f80:	65477472 	strbvs	r7, [r7, #-1138]	@ 0xfffffb8e
        const TickType_t xConstTickCount = xTickCount;
     f84:	61654874 	smcvs	21636	@ 0x5484
        const TickType_t xElapsedTime = xConstTickCount - pxTimeOut->xTimeOnEntering;
     f88:	61745370 	cmnvs	r4, r0, ror r3
     f8c:	70007374 	andvc	r7, r0, r4, ror r3
     f90:	6e694c78 	mcrvs	12, 3, r4, cr9, cr8, {3}
        if( ( xNumOfOverflows != pxTimeOut->xOverflowCount ) && ( xConstTickCount >= pxTimeOut->xTimeOnEntering ) )
     f94:	6375006b 	cmnvs	r5, #107	@ 0x6b
     f98:	70616548 	rsbvc	r6, r1, r8, asr #10
     f9c:	7a697300 	bvc	1a5dba4 <_edata+0x1a5b754>
     fa0:	6f700065 	svcvs	0x00700065
     fa4:	75467472 	strbvc	r7, [r6, #-1138]	@ 0xfffffb8e
            xReturn = pdTRUE;
     fa8:	6974636e 	ldmdbvs	r4!, {r1, r2, r3, r5, r6, r8, r9, sp, lr}^
            *pxTicksToWait = ( TickType_t ) 0;
     fac:	632e6e6f 			@ <UNDEFINED> instruction: 0x632e6e6f
     fb0:	74796200 	ldrbtvc	r6, [r9], #-512	@ 0xfffffe00
        else if( xElapsedTime < *pxTicksToWait )
     fb4:	61765f65 	cmnvs	r6, r5, ror #30
     fb8:	0065756c 	rsbeq	r7, r5, ip, ror #10
     fbc:	6f437870 	svcvs	0x00437870
            *pxTicksToWait -= xElapsedTime;
     fc0:	78006564 	stmdavc	r0, {r2, r5, r6, r8, sl, sp, lr}
     fc4:	74726f50 	ldrbtvc	r6, [r2], #-3920	@ 0xfffff0b0
     fc8:	646e6550 	strbtvs	r6, [lr], #-1360	@ 0xfffffab0
            vTaskInternalSetTimeOutState( pxTimeOut );
     fcc:	61485653 	cmpvs	r8, r3, asr r6
            xReturn = pdFALSE;
     fd0:	656c646e 	strbvs	r6, [ip, #-1134]!	@ 0xfffffb92
     fd4:	72700072 	rsbsvc	r0, r0, #114	@ 0x72
            *pxTicksToWait = ( TickType_t ) 0;
     fd8:	73615476 	cmnvc	r1, #1979711488	@ 0x76000000
            xReturn = pdTRUE;
     fdc:	6978456b 	ldmdbvs	r8!, {r0, r1, r3, r5, r6, r8, sl, lr}^
    taskEXIT_CRITICAL();
     fe0:	72724574 	rsbsvc	r4, r2, #116, 10	@ 0x1d000000
    return xReturn;
     fe4:	7500726f 	strvc	r7, [r0, #-623]	@ 0xfffffd91
}
     fe8:	6d75446c 	cfldrdvs	mvd4, [r5, #-432]!	@ 0xfffffe50
     fec:	7800796d 	stmdavc	r0, {r0, r2, r3, r5, r6, r8, fp, ip, sp, lr}
     ff0:	74726f50 	ldrbtvc	r6, [r2], #-3920	@ 0xfffff0b0
     ff4:	54737953 	ldrbtpl	r7, [r3], #-2387	@ 0xfffff6ad
{
     ff8:	486b6369 	stmdami	fp!, {r0, r3, r5, r6, r8, r9, sp, lr}^
    xYieldPendings[ portGET_CORE_ID() ] = pdTRUE;
     ffc:	6c646e61 	stclvs	14, cr6, [r4], #-388	@ 0xfffffe7c
    1000:	75007265 	strvc	r7, [r0, #-613]	@ 0xfffffd9b
}
    1004:	69724378 	ldmdbvs	r2!, {r3, r4, r5, r6, r8, r9, lr}^
    1008:	61636974 	smcvs	13972	@ 0x3694
    100c:	73654e6c 	cmnvc	r5, #108, 28	@ 0x6c0
{
    1010:	676e6974 			@ <UNDEFINED> instruction: 0x676e6974
    1014:	6f507600 	svcvs	0x00507600
        prvCheckTasksWaitingTermination();
    1018:	65537472 	ldrbvs	r7, [r3, #-1138]	@ 0xfffffb8e
            if( listCURRENT_LIST_LENGTH( &( pxReadyTasksLists[ tskIDLE_PRIORITY ] ) ) > ( UBaseType_t ) configNUMBER_OF_CORES )
    101c:	54707574 	ldrbtpl	r7, [r0], #-1396	@ 0xfffffa8c
    1020:	72656d69 	rsbvc	r6, r5, #6720	@ 0x1a40
                taskYIELD();
    1024:	65746e49 	ldrbvs	r6, [r4, #-3657]!	@ 0xfffff1b7
    1028:	70757272 	rsbsvc	r7, r5, r2, ror r2
    102c:	2e2e0074 	mcrcs	0, 1, r0, cr14, cr4, {3}
    1030:	6572462f 	ldrbvs	r4, [r2, #-1583]!	@ 0xfffff9d1
        prvCheckTasksWaitingTermination();
    1034:	4f545265 	svcmi	0x00545265
    1038:	654b2d53 	strbvs	r2, [fp, #-3411]	@ 0xfffff2ad
    103c:	6c656e72 	stclvs	14, cr6, [r5], #-456	@ 0xfffffe38
{
    1040:	726f702f 	rsbvc	r7, pc, #47	@ 0x2f
    1044:	6c626174 	stfvse	f6, [r2], #-464	@ 0xfffffe30
    for( uxPriority = ( UBaseType_t ) 0U; uxPriority < ( UBaseType_t ) configMAX_PRIORITIES; uxPriority++ )
    1048:	43472f65 	movtmi	r2, #32613	@ 0x7f65
        vListInitialise( &( pxReadyTasksLists[ uxPriority ] ) );
    104c:	52412f43 	subpl	r2, r1, #268	@ 0x10c
    1050:	4d435f4d 	stclmi	15, cr5, [r3, #-308]	@ 0xfffffecc
    1054:	6f702f33 	svcvs	0x00702f33
    1058:	632e7472 			@ <UNDEFINED> instruction: 0x632e7472
    105c:	56787000 	ldrbtpl	r7, [r8], -r0
    for( uxPriority = ( UBaseType_t ) 0U; uxPriority < ( UBaseType_t ) configMAX_PRIORITIES; uxPriority++ )
    1060:	6f746365 	svcvs	0x00746365
    1064:	62615472 	rsbvs	r5, r1, #1912602624	@ 0x72000000
    1068:	7000656c 	andvc	r6, r0, ip, ror #10
    vListInitialise( &xDelayedTaskList1 );
    106c:	4974726f 	ldmdbmi	r4!, {r0, r1, r2, r3, r5, r6, r9, ip, sp, lr}^
    1070:	745f5253 	ldrbvc	r5, [pc], #-595	@ 1078 <prvInitialiseTaskLists+0x38>
    vListInitialise( &xDelayedTaskList2 );
    1074:	6f507600 	svcvs	0x00507600
    vListInitialise( &xPendingReadyList );
    1078:	56537472 			@ <UNDEFINED> instruction: 0x56537472
    107c:	6e614843 	cdpvs	8, 6, cr4, cr1, cr3, {2}
    pxDelayedTaskList = &xDelayedTaskList1;
    1080:	72656c64 	rsbvc	r6, r5, #100, 24	@ 0x6400
    pxOverflowDelayedTaskList = &xDelayedTaskList2;
    1084:	76727000 	ldrbtvc	r7, [r2], -r0
    1088:	74726f50 	ldrbtvc	r6, [r2], #-3920	@ 0xfffff0b0
}
    108c:	72617453 	rsbvc	r7, r1, #1392508928	@ 0x53000000
    1090:	72694674 	rsbvc	r4, r9, #116, 12	@ 0x7400000
    1094:	61547473 	cmpvs	r4, r3, ror r4
    1098:	2e006b73 	vmovcs.16	d0[1], r6
    109c:	72462f2e 	subvc	r2, r6, #46, 30	@ 0xb8
    10a0:	54526565 	ldrbpl	r6, [r2], #-1381	@ 0xfffffa9b
    10a4:	4b2d534f 	blmi	b55de8 <_edata+0xb53998>
    10a8:	656e7265 	strbvs	r7, [lr, #-613]!	@ 0xfffffd9b
{
    10ac:	696c2f6c 	stmdbvs	ip!, {r2, r3, r5, r6, r8, r9, sl, fp, sp}^
}
    10b0:	632e7473 			@ <UNDEFINED> instruction: 0x632e7473
    10b4:	49787000 	ldmdbmi	r8!, {ip, sp, lr}^
{
    10b8:	546d6574 	strbtpl	r6, [sp], #-1396	@ 0xfffffa8c
    if( listLIST_IS_EMPTY( pxDelayedTaskList ) != pdFALSE )
    10bc:	6d65526f 	sfmvs	f5, 2, [r5, #-444]!	@ 0xfffffe44
    10c0:	0065766f 	rsbeq	r7, r5, pc, ror #12
    10c4:	73694c76 	cmnvc	r9, #30208	@ 0x7600
        xNextTaskUnblockTime = portMAX_DELAY;
    10c8:	736e4974 	cmnvc	lr, #116, 18	@ 0x1d0000
    10cc:	45747265 	ldrbmi	r7, [r4, #-613]!	@ 0xfffffd9b
        xNextTaskUnblockTime = listGET_ITEM_VALUE_OF_HEAD_ENTRY( pxDelayedTaskList );
    10d0:	7800646e 	stmdavc	r0, {r1, r2, r3, r5, r6, sl, sp, lr}
    10d4:	756c6156 	strbvc	r6, [ip, #-342]!	@ 0xfffffeaa
    10d8:	49664f65 	stmdbmi	r6!, {r0, r2, r5, r6, r8, r9, sl, fp, lr}^
}
    10dc:	7265736e 	rsbvc	r7, r5, #-1207959551	@ 0xb8000001
    10e0:	6e6f6974 			@ <UNDEFINED> instruction: 0x6e6f6974
    10e4:	49787000 	ldmdbmi	r8!, {ip, sp, lr}^
    10e8:	006d6574 	rsbeq	r6, sp, r4, ror r5
        {
    10ec:	654e7870 	strbvs	r7, [lr, #-2160]	@ 0xfffff790
    10f0:	73694c77 	cmnvc	r9, #30464	@ 0x7700
            xReturn = pxCurrentTCB;
    10f4:	65744974 	ldrbvs	r4, [r4, #-2420]!	@ 0xfffff68c
            return xReturn;
    10f8:	Address 0x10f8 is out of bounds.


Disassembly of section .debug_frame:

00000000 <.debug_frame>:
   0:	0000000c 	andeq	r0, r0, ip
   4:	ffffffff 			@ <UNDEFINED> instruction: 0xffffffff
   8:	7c020001 	stcvc	0, cr0, [r2], {1}
   c:	000d0c0e 	andeq	r0, sp, lr, lsl #24
  10:	00000018 	andeq	r0, r0, r8, lsl r0
  14:	00000000 	andeq	r0, r0, r0
  18:	0000019c 	muleq	r0, ip, r1
  1c:	00000014 	andeq	r0, r0, r4, lsl r0
  20:	87040e41 	strhi	r0, [r4, -r1, asr #28]
  24:	180e4101 	stmdane	lr, {r0, r8, lr}
  28:	00070d41 	andeq	r0, r7, r1, asr #26
  2c:	00000018 	andeq	r0, r0, r8, lsl r0
  30:	00000000 	andeq	r0, r0, r0
  34:	000001b0 			@ <UNDEFINED> instruction: 0x000001b0
  38:	00000014 	andeq	r0, r0, r4, lsl r0
  3c:	87040e41 	strhi	r0, [r4, -r1, asr #28]
  40:	180e4101 	stmdane	lr, {r0, r8, lr}
  44:	00070d41 	andeq	r0, r7, r1, asr #26
  48:	00000020 	andeq	r0, r0, r0, lsr #32
  4c:	00000000 	andeq	r0, r0, r0
  50:	000001c4 	andeq	r0, r0, r4, asr #3
  54:	000000a0 	andeq	r0, r0, r0, lsr #1
  58:	87080e41 	strhi	r0, [r8, -r1, asr #28]
  5c:	41018e02 	tstmi	r1, r2, lsl #28
  60:	0c41200e 	mcrreq	0, 0, r2, r1, cr14
  64:	0e791807 	cdpeq	8, 7, cr1, cr9, cr7, {0}
  68:	0d0d4108 	stfeqs	f4, [sp, #-32]	@ 0xffffffe0
  6c:	0000000c 	andeq	r0, r0, ip
  70:	ffffffff 			@ <UNDEFINED> instruction: 0xffffffff
  74:	7c020001 	stcvc	0, cr0, [r2], {1}
  78:	000d0c0e 	andeq	r0, sp, lr, lsl #24
  7c:	00000020 	andeq	r0, r0, r0, lsr #32
  80:	0000006c 	andeq	r0, r0, ip, rrx
  84:	00000264 	andeq	r0, r0, r4, ror #4
  88:	00000078 	andeq	r0, r0, r8, ror r0
  8c:	87080e41 	strhi	r0, [r8, -r1, asr #28]
  90:	41018e02 	tstmi	r1, r2, lsl #28
  94:	0c41300e 	mcrreq	0, 0, r3, r1, cr14
  98:	0e772007 	cdpeq	0, 7, cr2, cr7, cr7, {0}
  9c:	0d0d4108 	stfeqs	f4, [sp, #-32]	@ 0xffffffe0
  a0:	00000020 	andeq	r0, r0, r0, lsr #32
  a4:	0000006c 	andeq	r0, r0, ip, rrx
  a8:	000002dc 	ldrdeq	r0, [r0], -ip
  ac:	00000046 	andeq	r0, r0, r6, asr #32
  b0:	87080e41 	strhi	r0, [r8, -r1, asr #28]
  b4:	41018e02 	tstmi	r1, r2, lsl #28
  b8:	0c41280e 	mcrreq	8, 0, r2, r1, cr14
  bc:	0e5e2007 	cdpeq	0, 5, cr2, cr14, cr7, {0}
  c0:	0d0d4108 	stfeqs	f4, [sp, #-32]	@ 0xffffffe0
  c4:	00000020 	andeq	r0, r0, r0, lsr #32
  c8:	0000006c 	andeq	r0, r0, ip, rrx
  cc:	00000322 	andeq	r0, r0, r2, lsr #6
  d0:	000000ca 	andeq	r0, r0, sl, asr #1
  d4:	87080e41 	strhi	r0, [r8, -r1, asr #28]
  d8:	41018e02 	tstmi	r1, r2, lsl #28
  dc:	0d41200e 	stcleq	0, cr2, [r1, #-56]	@ 0xffffffc8
  e0:	0e600207 	cdpeq	2, 6, cr0, cr0, cr7, {0}
  e4:	0d0d4108 	stfeqs	f4, [sp, #-32]	@ 0xffffffe0
  e8:	00000020 	andeq	r0, r0, r0, lsr #32
  ec:	0000006c 	andeq	r0, r0, ip, rrx
  f0:	000003ec 	andeq	r0, r0, ip, ror #7
  f4:	00000128 	andeq	r0, r0, r8, lsr #2
  f8:	87080e41 	strhi	r0, [r8, -r1, asr #28]
  fc:	41018e02 	tstmi	r1, r2, lsl #28
 100:	0d41180e 	stcleq	8, cr1, [r1, #-56]	@ 0xffffffc8
 104:	0e810207 	cdpeq	2, 8, cr0, cr1, cr7, {0}
 108:	0d0d4108 	stfeqs	f4, [sp, #-32]	@ 0xffffffe0
 10c:	00000024 	andeq	r0, r0, r4, lsr #32
 110:	0000006c 	andeq	r0, r0, ip, rrx
 114:	00000514 	andeq	r0, r0, r4, lsl r5
 118:	000000ac 	andeq	r0, r0, ip, lsr #1
 11c:	87080e41 	strhi	r0, [r8, -r1, asr #28]
 120:	41018e02 	tstmi	r1, r2, lsl #28
 124:	0c41300e 	mcrreq	0, 0, r3, r1, cr14
 128:	4b022807 	blmi	8a14c <_edata+0x87cfc>
 12c:	0d41080e 	stcleq	8, cr0, [r1, #-56]	@ 0xffffffc8
 130:	0000000d 	andeq	r0, r0, sp
 134:	00000020 	andeq	r0, r0, r0, lsr #32
 138:	0000006c 	andeq	r0, r0, ip, rrx
 13c:	000005c0 	andeq	r0, r0, r0, asr #11
 140:	0000005c 	andeq	r0, r0, ip, asr r0
 144:	87080e41 	strhi	r0, [r8, -r1, asr #28]
 148:	41018e02 	tstmi	r1, r2, lsl #28
 14c:	0d41100e 	stcleq	0, cr1, [r1, #-56]	@ 0xffffffc8
 150:	080e6007 	stmdaeq	lr, {r0, r1, r2, sp, lr}
 154:	000d0d41 	andeq	r0, sp, r1, asr #26
 158:	00000020 	andeq	r0, r0, r0, lsr #32
 15c:	0000006c 	andeq	r0, r0, ip, rrx
 160:	0000061c 	andeq	r0, r0, ip, lsl r6
 164:	00000030 	andeq	r0, r0, r0, lsr r0
 168:	87080e41 	strhi	r0, [r8, -r1, asr #28]
 16c:	41018e02 	tstmi	r1, r2, lsl #28
 170:	0d41100e 	stcleq	0, cr1, [r1, #-56]	@ 0xffffffc8
 174:	080e5107 	stmdaeq	lr, {r0, r1, r2, r8, ip, lr}
 178:	000d0d41 	andeq	r0, sp, r1, asr #26
 17c:	0000001c 	andeq	r0, r0, ip, lsl r0
 180:	0000006c 	andeq	r0, r0, ip, rrx
 184:	0000064c 	andeq	r0, r0, ip, asr #12
 188:	0000001c 	andeq	r0, r0, ip, lsl r0
 18c:	87040e41 	strhi	r0, [r4, -r1, asr #28]
 190:	070d4101 	streq	r4, [sp, -r1, lsl #2]
 194:	410d0d47 	tstmi	sp, r7, asr #26
 198:	00000ec7 	andeq	r0, r0, r7, asr #29
static void vTask1(void *pvParameters){
 19c:	00000020 	andeq	r0, r0, r0, lsr #32
 1a0:	0000006c 	andeq	r0, r0, ip, rrx
    volatile int a = 0;
 1a4:	00000668 	andeq	r0, r0, r8, ror #12
        a++;
 1a8:	000001f0 	strdeq	r0, [r0], -r0	@ <UNPREDICTABLE>
 1ac:	87080e41 	strhi	r0, [r8, -r1, asr #28]
static void vTask2(void *pvParameters){
 1b0:	41018e02 	tstmi	r1, r2, lsl #28
 1b4:	0d41280e 	stcleq	8, cr2, [r1, #-56]	@ 0xffffffc8
    volatile int b = 0;
 1b8:	0ee10207 	cdpeq	2, 14, cr0, cr1, cr7, {0}
        b++;
 1bc:	0d0d4108 	stfeqs	f4, [sp, #-32]	@ 0xffffffe0
 1c0:	00000024 	andeq	r0, r0, r4, lsr #32
void start(){//<<=== 1. jumping here from boot.S reset_handler: is fine but jumping to function sachin() gives HardFault crash.
 1c4:	0000006c 	andeq	r0, r0, ip, rrx
 1c8:	00000858 	andeq	r0, r0, r8, asr r8
    uint32_t *src = &_sidata; // source(flash)
 1cc:	0000001c 	andeq	r0, r0, ip, lsl r0
    uint32_t *dst = &_sdata; // Destination RAM
 1d0:	87040e41 	strhi	r0, [r4, -r1, asr #28]
        *dst++ = *src++; // copy word and increment pointer
 1d4:	100e4101 	andne	r4, lr, r1, lsl #2
 1d8:	46070d41 	strmi	r0, [r7], -r1, asr #26
 1dc:	0d41040e 	cfstrdeq	mvd0, [r1, #-56]	@ 0xffffffc8
 1e0:	0ec7410d 	poleqs	f4, f7, #5.0
    while(dst < &_edata){
 1e4:	00000000 	andeq	r0, r0, r0
 1e8:	00000024 	andeq	r0, r0, r4, lsr #32
    dst = &_sbss;
 1ec:	0000006c 	andeq	r0, r0, ip, rrx
    while(dst < &_ebss){
 1f0:	00000874 	andeq	r0, r0, r4, ror r8
        *dst++ = 0; // zero word and increment pointer
 1f4:	00000020 	andeq	r0, r0, r0, lsr #32
 1f8:	87040e41 	strhi	r0, [r4, -r1, asr #28]
    while(dst < &_ebss){
 1fc:	100e4101 	andne	r4, lr, r1, lsl #2
 200:	48070d41 	stmdami	r7, {r0, r6, r8, sl, fp}
    xReturn = xTaskCreate(vTask1, "T1",configMINIMAL_STACK_SIZE,NULL,1,NULL);//
 204:	0d41040e 	cfstrdeq	mvd0, [r1, #-56]	@ 0xffffffc8
 208:	0ec7410d 	poleqs	f4, f7, #5.0
 20c:	00000000 	andeq	r0, r0, r0
 210:	0000001c 	andeq	r0, r0, ip, lsl r0
 214:	0000006c 	andeq	r0, r0, ip, rrx
 218:	00000894 	muleq	r0, r4, r8
    xReturn = xTaskCreate(vTask2, "T2",configMINIMAL_STACK_SIZE,NULL,1,NULL);//getting xReturn as -1 debug and foumd memory allocation was failing , few global variables were not holding changed values from heap_4.c files ..... => because .data section is nod defined in .ld script, only .text section is there.
 21c:	00000014 	andeq	r0, r0, r4, lsl r0
 220:	87040e41 	strhi	r0, [r4, -r1, asr #28]
 224:	070d4101 	streq	r4, [sp, -r1, lsl #2]
 228:	410d0d44 	tstmi	sp, r4, asr #26
 22c:	00000ec7 	andeq	r0, r0, r7, asr #29
 230:	00000024 	andeq	r0, r0, r4, lsr #32
    vTaskStartScheduler();// if only this call then cpu lockup nothing to execute so does hardfault.
 234:	0000006c 	andeq	r0, r0, ip, rrx
    return;
 238:	000008a8 	andeq	r0, r0, r8, lsr #17
}
 23c:	0000002c 	andeq	r0, r0, ip, lsr #32
 240:	87040e41 	strhi	r0, [r4, -r1, asr #28]
 244:	180e4101 	stmdane	lr, {r0, r8, lr}
 248:	4d070d41 	stcmi	13, cr0, [r7, #-260]	@ 0xfffffefc
 24c:	0d41040e 	cfstrdeq	mvd0, [r1, #-56]	@ 0xffffffc8
 250:	0ec7410d 	poleqs	f4, f7, #5.0
 254:	00000000 	andeq	r0, r0, r0
 258:	00000020 	andeq	r0, r0, r0, lsr #32
 25c:	0000006c 	andeq	r0, r0, ip, rrx
 260:	000008d4 	ldrdeq	r0, [r0], -r4
    {
 264:	00000034 	andeq	r0, r0, r4, lsr r0
 268:	87080e41 	strhi	r0, [r8, -r1, asr #28]
 26c:	41018e02 	tstmi	r1, r2, lsl #28
 270:	0d41180e 	stcleq	8, cr1, [r1, #-56]	@ 0xffffffc8
            pxStack = pvPortMallocStack( ( ( ( size_t ) uxStackDepth ) * sizeof( StackType_t ) ) );
 274:	080e5307 	stmdaeq	lr, {r0, r1, r2, r8, r9, ip, lr}
 278:	000d0d41 	andeq	r0, sp, r1, asr #26
 27c:	00000020 	andeq	r0, r0, r0, lsr #32
            if( pxStack != NULL )
 280:	0000006c 	andeq	r0, r0, ip, rrx
                pxNewTCB = ( TCB_t * ) pvPortMalloc( sizeof( TCB_t ) );
 284:	00000908 	andeq	r0, r0, r8, lsl #18
 288:	00000210 	andeq	r0, r0, r0, lsl r2
                if( pxNewTCB != NULL )
 28c:	87080e41 	strhi	r0, [r8, -r1, asr #28]
 290:	41018e02 	tstmi	r1, r2, lsl #28
                    ( void ) memset( ( void * ) pxNewTCB, 0x00, sizeof( TCB_t ) );
 294:	0d41280e 	stcleq	8, cr2, [r1, #-56]	@ 0xffffffc8
 298:	0eed0207 	cdpeq	2, 14, cr0, cr13, cr7, {0}
                    pxNewTCB->pxStack = pxStack;
 29c:	0d0d4108 	stfeqs	f4, [sp, #-32]	@ 0xffffffe0
 2a0:	00000024 	andeq	r0, r0, r4, lsr #32
                    vPortFreeStack( pxStack );
 2a4:	0000006c 	andeq	r0, r0, ip, rrx
 2a8:	00000b18 	andeq	r0, r0, r8, lsl fp
                pxNewTCB = NULL;
 2ac:	0000008c 	andeq	r0, r0, ip, lsl #1
        if( pxNewTCB != NULL )
 2b0:	87040e41 	strhi	r0, [r4, -r1, asr #28]
 2b4:	180e4101 	stmdane	lr, {r0, r8, lr}
            prvInitialiseNewTask( pxTaskCode, pcName, uxStackDepth, pvParameters, uxPriority, pxCreatedTask, pxNewTCB, NULL );
 2b8:	76070d41 	strvc	r0, [r7], -r1, asr #26
 2bc:	0d41040e 	cfstrdeq	mvd0, [r1, #-56]	@ 0xffffffc8
 2c0:	0ec7410d 	poleqs	f4, f7, #5.0
 2c4:	00000000 	andeq	r0, r0, r0
 2c8:	00000020 	andeq	r0, r0, r0, lsr #32
 2cc:	0000006c 	andeq	r0, r0, ip, rrx
 2d0:	00000ba4 	andeq	r0, r0, r4, lsr #23
    }
 2d4:	0000002c 	andeq	r0, r0, ip, lsr #32
 2d8:	87080e41 	strhi	r0, [r8, -r1, asr #28]
    {
 2dc:	41018e02 	tstmi	r1, r2, lsl #28
 2e0:	0d41100e 	stcleq	0, cr1, [r1, #-56]	@ 0xffffffc8
 2e4:	080e4f07 	stmdaeq	lr, {r0, r1, r2, r8, r9, sl, fp, lr}
 2e8:	000d0d41 	andeq	r0, sp, r1, asr #26
        pxNewTCB = prvCreateTask( pxTaskCode, pcName, uxStackDepth, pvParameters, uxPriority, pxCreatedTask );
 2ec:	00000020 	andeq	r0, r0, r0, lsr #32
 2f0:	0000006c 	andeq	r0, r0, ip, rrx
 2f4:	00000bd0 	ldrdeq	r0, [r0], -r0	@ <UNPREDICTABLE>
 2f8:	00000070 	andeq	r0, r0, r0, ror r0
 2fc:	87080e41 	strhi	r0, [r8, -r1, asr #28]
        if( pxNewTCB != NULL )
 300:	41018e02 	tstmi	r1, r2, lsl #28
 304:	0d41200e 	stcleq	0, cr2, [r1, #-56]	@ 0xffffffc8
            prvAddNewTaskToReadyList( pxNewTCB );
 308:	080e7007 	stmdaeq	lr, {r0, r1, r2, ip, sp, lr}
            xReturn = pdPASS;
 30c:	000d0d41 	andeq	r0, sp, r1, asr #26
 310:	00000024 	andeq	r0, r0, r4, lsr #32
            xReturn = errCOULD_NOT_ALLOCATE_REQUIRED_MEMORY;
 314:	0000006c 	andeq	r0, r0, ip, rrx
        return xReturn;
 318:	00000c40 	andeq	r0, r0, r0, asr #24
    }
 31c:	00000194 	muleq	r0, r4, r1
 320:	87040e41 	strhi	r0, [r4, -r1, asr #28]
{
 324:	280e4101 	stmdacs	lr, {r0, r8, lr}
 328:	02070d41 	andeq	r0, r7, #4160	@ 0x1040
 32c:	41040eb7 			@ <UNDEFINED> instruction: 0x41040eb7
        pxTopOfStack = &( pxNewTCB->pxStack[ uxStackDepth - ( configSTACK_DEPTH_TYPE ) 1 ] );
 330:	c7410d0d 	strbgt	r0, [r1, -sp, lsl #26]
 334:	0000000e 	andeq	r0, r0, lr
 338:	00000024 	andeq	r0, r0, r4, lsr #32
 33c:	0000006c 	andeq	r0, r0, ip, rrx
 340:	00000dd4 	ldrdeq	r0, [r0], -r4
        pxTopOfStack = ( StackType_t * ) ( ( ( portPOINTER_SIZE_TYPE ) pxTopOfStack ) & ( ~( ( portPOINTER_SIZE_TYPE ) portBYTE_ALIGNMENT_MASK ) ) );
 344:	00000144 	andeq	r0, r0, r4, asr #2
 348:	87040e41 	strhi	r0, [r4, -r1, asr #28]
    if( pcName != NULL )
 34c:	200e4101 	andcs	r4, lr, r1, lsl #2
        for( x = ( UBaseType_t ) 0; x < ( UBaseType_t ) configMAX_TASK_NAME_LEN; x++ )
 350:	02070d41 	andeq	r0, r7, #4160	@ 0x1040
 354:	41040e94 			@ <UNDEFINED> instruction: 0x41040e94
            pxNewTCB->pcTaskName[ x ] = pcName[ x ];
 358:	c7410d0d 	strbgt	r0, [r1, -sp, lsl #26]
 35c:	0000000e 	andeq	r0, r0, lr
 360:	00000020 	andeq	r0, r0, r0, lsr #32
 364:	0000006c 	andeq	r0, r0, ip, rrx
 368:	00000f18 	andeq	r0, r0, r8, lsl pc
            if( pcName[ x ] == ( char ) 0x00 )
 36c:	00000030 	andeq	r0, r0, r0, lsr r0
 370:	87080e41 	strhi	r0, [r8, -r1, asr #28]
 374:	41018e02 	tstmi	r1, r2, lsl #28
        for( x = ( UBaseType_t ) 0; x < ( UBaseType_t ) configMAX_TASK_NAME_LEN; x++ )
 378:	0d41100e 	stcleq	0, cr1, [r1, #-56]	@ 0xffffffc8
 37c:	080e4f07 	stmdaeq	lr, {r0, r1, r2, r8, r9, sl, fp, lr}
 380:	000d0d41 	andeq	r0, sp, r1, asr #26
                break;
 384:	00000024 	andeq	r0, r0, r4, lsr #32
        pxNewTCB->pcTaskName[ configMAX_TASK_NAME_LEN - 1U ] = '\0';
 388:	0000006c 	andeq	r0, r0, ip, rrx
 38c:	00000f48 	andeq	r0, r0, r8, asr #30
    if( uxPriority >= ( UBaseType_t ) configMAX_PRIORITIES )
 390:	0000002c 	andeq	r0, r0, ip, lsr #32
        uxPriority = ( UBaseType_t ) configMAX_PRIORITIES - ( UBaseType_t ) 1U;
 394:	87040e41 	strhi	r0, [r4, -r1, asr #28]
    pxNewTCB->uxPriority = uxPriority;
 398:	100e4101 	andne	r4, lr, r1, lsl #2
 39c:	4b070d41 	blmi	1c38a8 <_edata+0x1c1458>
    vListInitialiseItem( &( pxNewTCB->xStateListItem ) );
 3a0:	0d41040e 	cfstrdeq	mvd0, [r1, #-56]	@ 0xffffffc8
 3a4:	0ec7410d 	poleqs	f4, f7, #5.0
    vListInitialiseItem( &( pxNewTCB->xEventListItem ) );
 3a8:	00000000 	andeq	r0, r0, r0
 3ac:	00000020 	andeq	r0, r0, r0, lsr #32
 3b0:	0000006c 	andeq	r0, r0, ip, rrx
    listSET_LIST_ITEM_OWNER( &( pxNewTCB->xStateListItem ), pxNewTCB );
 3b4:	00000f74 	andeq	r0, r0, r4, ror pc
    listSET_LIST_ITEM_VALUE( &( pxNewTCB->xEventListItem ), ( TickType_t ) configMAX_PRIORITIES - ( TickType_t ) uxPriority );
 3b8:	00000084 	andeq	r0, r0, r4, lsl #1
 3bc:	87080e41 	strhi	r0, [r8, -r1, asr #28]
 3c0:	41018e02 	tstmi	r1, r2, lsl #28
    listSET_LIST_ITEM_OWNER( &( pxNewTCB->xEventListItem ), pxNewTCB );
 3c4:	0d41200e 	stcleq	0, cr2, [r1, #-56]	@ 0xffffffc8
            pxNewTCB->pxTopOfStack = pxPortInitialiseStack( pxTopOfStack, pxTaskCode, pvParameters );
 3c8:	080e7807 	stmdaeq	lr, {r0, r1, r2, fp, ip, sp, lr}
 3cc:	000d0d41 	andeq	r0, sp, r1, asr #26
 3d0:	0000001c 	andeq	r0, r0, ip, lsl r0
 3d4:	0000006c 	andeq	r0, r0, ip, rrx
    if( pxCreatedTask != NULL )
 3d8:	00000ff8 	strdeq	r0, [r0], -r8
 3dc:	00000018 	andeq	r0, r0, r8, lsl r0
        *pxCreatedTask = ( TaskHandle_t ) pxNewTCB;
 3e0:	87040e41 	strhi	r0, [r4, -r1, asr #28]
}
 3e4:	070d4101 	streq	r4, [sp, -r1, lsl #2]
 3e8:	410d0d45 	tstmi	sp, r5, asr #26
    {
 3ec:	00000ec7 	andeq	r0, r0, r7, asr #29
 3f0:	0000001c 	andeq	r0, r0, ip, lsl r0
        taskENTER_CRITICAL();
 3f4:	0000006c 	andeq	r0, r0, ip, rrx
            uxCurrentNumberOfTasks = ( UBaseType_t ) ( uxCurrentNumberOfTasks + 1U );
 3f8:	00001010 	andeq	r1, r0, r0, lsl r0
 3fc:	00000030 	andeq	r0, r0, r0, lsr r0
 400:	87080e41 	strhi	r0, [r8, -r1, asr #28]
            if( pxCurrentTCB == NULL )
 404:	41018e02 	tstmi	r1, r2, lsl #28
 408:	0d41100e 	stcleq	0, cr1, [r1, #-56]	@ 0xffffffc8
                pxCurrentTCB = pxNewTCB;
 40c:	00000007 	andeq	r0, r0, r7
                if( uxCurrentNumberOfTasks == ( UBaseType_t ) 1 )
 410:	00000020 	andeq	r0, r0, r0, lsr #32
 414:	0000006c 	andeq	r0, r0, ip, rrx
                    prvInitialiseTaskLists();
 418:	00001040 	andeq	r1, r0, r0, asr #32
 41c:	0000006c 	andeq	r0, r0, ip, rrx
                if( xSchedulerRunning == pdFALSE )
 420:	87080e41 	strhi	r0, [r8, -r1, asr #28]
 424:	41018e02 	tstmi	r1, r2, lsl #28
                    if( pxCurrentTCB->uxPriority <= pxNewTCB->uxPriority )
 428:	0d41100e 	stcleq	0, cr1, [r1, #-56]	@ 0xffffffc8
 42c:	080e6407 	stmdaeq	lr, {r0, r1, r2, sl, sp, lr}
 430:	000d0d41 	andeq	r0, sp, r1, asr #26
                        pxCurrentTCB = pxNewTCB;
 434:	0000001c 	andeq	r0, r0, ip, lsl r0
 438:	0000006c 	andeq	r0, r0, ip, rrx
            uxTaskNumber++;
 43c:	000010ac 	andeq	r1, r0, ip, lsr #1
 440:	0000000c 	andeq	r0, r0, ip
            prvAddTaskToReadyList( pxNewTCB );
 444:	87040e41 	strhi	r0, [r4, -r1, asr #28]
 448:	070d4101 	streq	r4, [sp, -r1, lsl #2]
 44c:	410d0d42 	tstmi	sp, r2, asr #26
 450:	00000ec7 	andeq	r0, r0, r7, asr #29
 454:	0000001c 	andeq	r0, r0, ip, lsl r0
 458:	0000006c 	andeq	r0, r0, ip, rrx
 45c:	000010b8 	strheq	r1, [r0], -r8
 460:	00000034 	andeq	r0, r0, r4, lsr r0
 464:	87040e41 	strhi	r0, [r4, -r1, asr #28]
 468:	070d4101 	streq	r4, [sp, -r1, lsl #2]
 46c:	410d0d52 	tstmi	sp, r2, asr sp
 470:	00000ec7 	andeq	r0, r0, r7, asr #29
 474:	00000024 	andeq	r0, r0, r4, lsr #32
 478:	0000006c 	andeq	r0, r0, ip, rrx
 47c:	000010ec 	andeq	r1, r0, ip, ror #1
 480:	0000001c 	andeq	r0, r0, ip, lsl r0
 484:	87040e41 	strhi	r0, [r4, -r1, asr #28]
 488:	100e4101 	andne	r4, lr, r1, lsl #2
 48c:	46070d41 	strmi	r0, [r7], -r1, asr #26
 490:	0d41040e 	cfstrdeq	mvd0, [r1, #-56]	@ 0xffffffc8
 494:	0ec7410d 	poleqs	f4, f7, #5.0
 498:	00000000 	andeq	r0, r0, r0
 49c:	00000024 	andeq	r0, r0, r4, lsr #32
 4a0:	0000006c 	andeq	r0, r0, ip, rrx
 4a4:	00001108 	andeq	r1, r0, r8, lsl #2
 4a8:	00000030 	andeq	r0, r0, r0, lsr r0
 4ac:	87040e41 	strhi	r0, [r4, -r1, asr #28]
 4b0:	180e4101 	stmdane	lr, {r0, r8, lr}
 4b4:	4f070d41 	svcmi	0x00070d41
 4b8:	0d41040e 	cfstrdeq	mvd0, [r1, #-56]	@ 0xffffffc8
 4bc:	0ec7410d 	poleqs	f4, f7, #5.0
 4c0:	00000000 	andeq	r0, r0, r0
 4c4:	00000024 	andeq	r0, r0, r4, lsr #32
        taskEXIT_CRITICAL();
 4c8:	0000006c 	andeq	r0, r0, ip, rrx
        if( xSchedulerRunning != pdFALSE )
 4cc:	00001138 	andeq	r1, r0, r8, lsr r1
 4d0:	00000030 	andeq	r0, r0, r0, lsr r0
            taskYIELD_ANY_CORE_IF_USING_PREEMPTION( pxNewTCB );
 4d4:	87040e41 	strhi	r0, [r4, -r1, asr #28]
 4d8:	100e4101 	andne	r4, lr, r1, lsl #2
 4dc:	4f070d41 	svcmi	0x00070d41
 4e0:	0d41040e 	cfstrdeq	mvd0, [r1, #-56]	@ 0xffffffc8
 4e4:	0ec7410d 	poleqs	f4, f7, #5.0
 4e8:	00000000 	andeq	r0, r0, r0
 4ec:	00000020 	andeq	r0, r0, r0, lsr #32
    }
 4f0:	0000006c 	andeq	r0, r0, ip, rrx
 4f4:	00001168 	andeq	r1, r0, r8, ror #2
 4f8:	000000f0 	strdeq	r0, [r0], -r0	@ <UNPREDICTABLE>
 4fc:	87080e41 	strhi	r0, [r8, -r1, asr #28]
 500:	41018e02 	tstmi	r1, r2, lsl #28
 504:	0d41280e 	stcleq	8, cr2, [r1, #-56]	@ 0xffffffc8
 508:	0e6f0207 	cdpeq	2, 6, cr0, cr15, cr7, {0}
 50c:	0d0d4108 	stfeqs	f4, [sp, #-32]	@ 0xffffffe0
 510:	00000020 	andeq	r0, r0, r0, lsr #32
{
 514:	0000006c 	andeq	r0, r0, ip, rrx
 518:	00001258 	andeq	r1, r0, r8, asr r2
    BaseType_t xReturn = pdPASS;
 51c:	00000124 	andeq	r0, r0, r4, lsr #2
    char cIdleName[ configMAX_TASK_NAME_LEN ] = { 0 };
 520:	87080e41 	strhi	r0, [r8, -r1, asr #28]
 524:	41018e02 	tstmi	r1, r2, lsl #28
 528:	0d41280e 	stcleq	8, cr2, [r1, #-56]	@ 0xffffffc8
    TaskFunction_t pxIdleTaskFunction = NULL;
 52c:	0e880207 	cdpeq	2, 8, cr0, cr8, cr7, {0}
    for( xIdleTaskNameIndex = 0U; xIdleTaskNameIndex < ( configMAX_TASK_NAME_LEN - taskRESERVED_TASK_NAME_LENGTH ); xIdleTaskNameIndex++ )
 530:	0d0d4108 	stfeqs	f4, [sp, #-32]	@ 0xffffffe0
        cIdleName[ xIdleTaskNameIndex ] = configIDLE_TASK_NAME[ xIdleTaskNameIndex ];
 534:	00000020 	andeq	r0, r0, r0, lsr #32
 538:	0000006c 	andeq	r0, r0, ip, rrx
 53c:	0000137c 	andeq	r1, r0, ip, ror r3
 540:	000001d4 	ldrdeq	r0, [r0], -r4
 544:	87080e41 	strhi	r0, [r8, -r1, asr #28]
        if( cIdleName[ xIdleTaskNameIndex ] == ( char ) 0x00 )
 548:	41018e02 	tstmi	r1, r2, lsl #28
 54c:	0d41300e 	stcleq	0, cr3, [r1, #-56]	@ 0xffffffc8
 550:	0edc0207 	cdpeq	2, 13, cr0, cr12, cr7, {0}
    for( xIdleTaskNameIndex = 0U; xIdleTaskNameIndex < ( configMAX_TASK_NAME_LEN - taskRESERVED_TASK_NAME_LENGTH ); xIdleTaskNameIndex++ )
 554:	0d0d4108 	stfeqs	f4, [sp, #-32]	@ 0xffffffe0
 558:	00000024 	andeq	r0, r0, r4, lsr #32
 55c:	0000006c 	andeq	r0, r0, ip, rrx
            break;
 560:	00001550 	andeq	r1, r0, r0, asr r5
    cIdleName[ xIdleTaskNameIndex ] = '\0';
 564:	0000024c 	andeq	r0, r0, ip, asr #4
 568:	87040e41 	strhi	r0, [r4, -r1, asr #28]
    for( xCoreID = ( BaseType_t ) 0; xCoreID < ( BaseType_t ) configNUMBER_OF_CORES; xCoreID++ )
 56c:	400e4101 	andmi	r4, lr, r1, lsl #2
 570:	03070d41 	movweq	r0, #32065	@ 0x7d41
            pxIdleTaskFunction = &prvIdleTask;
 574:	040e0113 	streq	r0, [lr], #-275	@ 0xfffffeed
            xReturn = xTaskCreate( pxIdleTaskFunction,
 578:	410d0d41 	tstmi	sp, r1, asr #26
 57c:	00000ec7 	andeq	r0, r0, r7, asr #29
 580:	00000024 	andeq	r0, r0, r4, lsr #32
 584:	0000006c 	andeq	r0, r0, ip, rrx
 588:	0000179c 	muleq	r0, ip, r7
 58c:	000001bc 			@ <UNDEFINED> instruction: 0x000001bc
 590:	87040e41 	strhi	r0, [r4, -r1, asr #28]
        if( xReturn != pdPASS )
 594:	400e4101 	andmi	r4, lr, r1, lsl #2
 598:	02070d41 	andeq	r0, r7, #4160	@ 0x1040
    for( xCoreID = ( BaseType_t ) 0; xCoreID < ( BaseType_t ) configNUMBER_OF_CORES; xCoreID++ )
 59c:	41040ecb 	smlabtmi	r4, fp, lr, r0
 5a0:	c7410d0d 	strbgt	r0, [r1, -sp, lsl #26]
 5a4:	0000000e 	andeq	r0, r0, lr
            break;
 5a8:	00000020 	andeq	r0, r0, r0, lsr #32
}
 5ac:	0000006c 	andeq	r0, r0, ip, rrx
 5b0:	00001958 	andeq	r1, r0, r8, asr r9
 5b4:	00000058 	andeq	r0, r0, r8, asr r0
 5b8:	87080e41 	strhi	r0, [r8, -r1, asr #28]
 5bc:	41018e02 	tstmi	r1, r2, lsl #28
{
 5c0:	0d41180e 	stcleq	8, cr1, [r1, #-56]	@ 0xffffffc8
 5c4:	080e6407 	stmdaeq	lr, {r0, r1, r2, sl, sp, lr}
    xReturn = prvCreateIdleTasks();
 5c8:	000d0d41 	andeq	r0, sp, r1, asr #26
    if( xReturn == pdPASS )
 5cc:	00000020 	andeq	r0, r0, r0, lsr #32
 5d0:	0000006c 	andeq	r0, r0, ip, rrx
    __asm volatile
 5d4:	000019b0 			@ <UNDEFINED> instruction: 0x000019b0
 5d8:	00000060 	andeq	r0, r0, r0, rrx
 5dc:	87080e41 	strhi	r0, [r8, -r1, asr #28]
 5e0:	41018e02 	tstmi	r1, r2, lsl #28
}
 5e4:	0d41200e 	stcleq	0, cr2, [r1, #-56]	@ 0xffffffc8
        xNextTaskUnblockTime = portMAX_DELAY;
 5e8:	080e6807 	stmdaeq	lr, {r0, r1, r2, fp, sp, lr}
 5ec:	000d0d41 	andeq	r0, sp, r1, asr #26
        xSchedulerRunning = pdTRUE;
 5f0:	00000020 	andeq	r0, r0, r0, lsr #32
        xTickCount = ( TickType_t ) configINITIAL_TICK_COUNT;
 5f4:	0000006c 	andeq	r0, r0, ip, rrx
 5f8:	00001a10 	andeq	r1, r0, r0, lsl sl
        ( void ) xPortStartScheduler();
 5fc:	000000ac 	andeq	r0, r0, ip, lsr #1
    ( void ) uxTopUsedPriority;
 600:	87080e41 	strhi	r0, [r8, -r1, asr #28]
}
 604:	41018e02 	tstmi	r1, r2, lsl #28
 608:	0d41200e 	stcleq	0, cr2, [r1, #-56]	@ 0xffffffc8
 60c:	0e450207 	cdpeq	2, 4, cr0, cr5, cr7, {0}
 610:	0d0d4108 	stfeqs	f4, [sp, #-32]	@ 0xffffffe0
 614:	00000024 	andeq	r0, r0, r4, lsr #32
 618:	0000006c 	andeq	r0, r0, ip, rrx
{
 61c:	00001abc 			@ <UNDEFINED> instruction: 0x00001abc
 620:	00000094 	muleq	r0, r4, r0
    __asm volatile
 624:	87040e41 	strhi	r0, [r4, -r1, asr #28]
 628:	100e4101 	andne	r4, lr, r1, lsl #2
 62c:	6e070d41 	cdpvs	13, 0, cr0, cr7, cr1, {2}
 630:	0d41040e 	cfstrdeq	mvd0, [r1, #-56]	@ 0xffffffc8
}
 634:	0ec7410d 	poleqs	f4, f7, #5.0
    xSchedulerRunning = pdFALSE;
 638:	00000000 	andeq	r0, r0, r0
    vPortEndScheduler();
 63c:	0000000c 	andeq	r0, r0, ip
}
 640:	ffffffff 			@ <UNDEFINED> instruction: 0xffffffff
 644:	7c020001 	stcvc	0, cr0, [r2], {1}
 648:	000d0c0e 	andeq	r0, sp, lr, lsl #24
{
 64c:	00000020 	andeq	r0, r0, r0, lsr #32
        uxSchedulerSuspended = ( UBaseType_t ) ( uxSchedulerSuspended + 1U );
 650:	0000063c 	andeq	r0, r0, ip, lsr r6
 654:	00001b50 	andeq	r1, r0, r0, asr fp
 658:	00000164 	andeq	r0, r0, r4, ror #2
}
 65c:	87080e41 	strhi	r0, [r8, -r1, asr #28]
 660:	41018e02 	tstmi	r1, r2, lsl #28
 664:	0d41280e 	stcleq	8, cr2, [r1, #-56]	@ 0xffffffc8
{
 668:	0ea30207 	cdpeq	2, 10, cr0, cr3, cr7, {0}
 66c:	0d0d4108 	stfeqs	f4, [sp, #-32]	@ 0xffffffe0
    TCB_t * pxTCB = NULL;
 670:	00000020 	andeq	r0, r0, r0, lsr #32
    BaseType_t xAlreadyYielded = pdFALSE;
 674:	0000063c 	andeq	r0, r0, ip, lsr r6
        taskENTER_CRITICAL();
 678:	00001cb4 			@ <UNDEFINED> instruction: 0x00001cb4
            const BaseType_t xCoreID = ( BaseType_t ) portGET_CORE_ID();
 67c:	00000074 	andeq	r0, r0, r4, ror r0
            uxSchedulerSuspended = ( UBaseType_t ) ( uxSchedulerSuspended - 1U );
 680:	87080e41 	strhi	r0, [r8, -r1, asr #28]
 684:	41018e02 	tstmi	r1, r2, lsl #28
            if( uxSchedulerSuspended == ( UBaseType_t ) 0U )
 688:	0d41180e 	stcleq	8, cr1, [r1, #-56]	@ 0xffffffc8
 68c:	080e7007 	stmdaeq	lr, {r0, r1, r2, ip, sp, lr}
 690:	000d0d41 	andeq	r0, sp, r1, asr #26
                if( uxCurrentNumberOfTasks > ( UBaseType_t ) 0U )
 694:	0000001c 	andeq	r0, r0, ip, lsl r0
 698:	0000063c 	andeq	r0, r0, ip, lsr r6
                    while( listLIST_IS_EMPTY( &xPendingReadyList ) == pdFALSE )
 69c:	00001d28 	andeq	r1, r0, r8, lsr #26
                        pxTCB = listGET_OWNER_OF_HEAD_ENTRY( ( &xPendingReadyList ) );
 6a0:	00000014 	andeq	r0, r0, r4, lsl r0
 6a4:	87040e41 	strhi	r0, [r4, -r1, asr #28]
                        listREMOVE_ITEM( &( pxTCB->xEventListItem ) );
 6a8:	070d4101 	streq	r4, [sp, -r1, lsl #2]
 6ac:	410d0d44 	tstmi	sp, r4, asr #26
 6b0:	00000ec7 	andeq	r0, r0, r7, asr #29
 6b4:	0000001c 	andeq	r0, r0, ip, lsl r0
 6b8:	0000063c 	andeq	r0, r0, ip, lsr r6
 6bc:	00001d3c 	andeq	r1, r0, ip, lsr sp
 6c0:	00000014 	andeq	r0, r0, r4, lsl r0
 6c4:	87040e41 	strhi	r0, [r4, -r1, asr #28]
 6c8:	070d4101 	streq	r4, [sp, -r1, lsl #2]
 6cc:	410d0d44 	tstmi	sp, r4, asr #26
 6d0:	00000ec7 	andeq	r0, r0, r7, asr #29
 6d4:	0000001c 	andeq	r0, r0, ip, lsl r0
 6d8:	0000063c 	andeq	r0, r0, ip, lsr r6
 6dc:	00001d50 	andeq	r1, r0, r0, asr sp
 6e0:	0000001c 	andeq	r0, r0, ip, lsl r0
                        listREMOVE_ITEM( &( pxTCB->xStateListItem ) );
 6e4:	87040e41 	strhi	r0, [r4, -r1, asr #28]
 6e8:	070d4101 	streq	r4, [sp, -r1, lsl #2]
 6ec:	410d0d46 	tstmi	sp, r6, asr #26
 6f0:	00000ec7 	andeq	r0, r0, r7, asr #29
 6f4:	0000001c 	andeq	r0, r0, ip, lsl r0
 6f8:	0000063c 	andeq	r0, r0, ip, lsr r6
 6fc:	00001d6c 	andeq	r1, r0, ip, ror #26
 700:	0000000c 	andeq	r0, r0, ip
 704:	87040e41 	strhi	r0, [r4, -r1, asr #28]
 708:	070d4101 	streq	r4, [sp, -r1, lsl #2]
 70c:	410d0d42 	tstmi	sp, r2, asr #26
 710:	00000ec7 	andeq	r0, r0, r7, asr #29
 714:	00000020 	andeq	r0, r0, r0, lsr #32
 718:	0000063c 	andeq	r0, r0, ip, lsr r6
 71c:	00001d78 	andeq	r1, r0, r8, ror sp
 720:	00000060 	andeq	r0, r0, r0, rrx
                        prvAddTaskToReadyList( pxTCB );
 724:	87080e41 	strhi	r0, [r8, -r1, asr #28]
 728:	41018e02 	tstmi	r1, r2, lsl #28
 72c:	0d41180e 	stcleq	8, cr1, [r1, #-56]	@ 0xffffffc8
 730:	080e6b07 	stmdaeq	lr, {r0, r1, r2, r8, r9, fp, sp, lr}
 734:	000d0d41 	andeq	r0, sp, r1, asr #26
 738:	00000024 	andeq	r0, r0, r4, lsr #32
 73c:	0000063c 	andeq	r0, r0, ip, lsr r6
 740:	00001dd8 	ldrdeq	r1, [r0], -r8
 744:	000000b4 	strheq	r0, [r0], -r4
 748:	87040e41 	strhi	r0, [r4, -r1, asr #28]
 74c:	180e4101 	stmdane	lr, {r0, r8, lr}
 750:	02070d41 	andeq	r0, r7, #4160	@ 0x1040
 754:	41040e49 	tstmi	r4, r9, asr #28
 758:	c7410d0d 	strbgt	r0, [r1, -sp, lsl #26]
 75c:	0000000e 	andeq	r0, r0, lr
 760:	00000024 	andeq	r0, r0, r4, lsr #32
 764:	0000063c 	andeq	r0, r0, ip, lsr r6
 768:	00001e8c 	andeq	r1, r0, ip, lsl #29
 76c:	000000b0 	strheq	r0, [r0], -r0	@ <UNPREDICTABLE>
 770:	87040e41 	strhi	r0, [r4, -r1, asr #28]
 774:	180e4101 	stmdane	lr, {r0, r8, lr}
 778:	02070d41 	andeq	r0, r7, #4160	@ 0x1040
 77c:	41040e4e 	tstmi	r4, lr, asr #28
 780:	c7410d0d 	strbgt	r0, [r1, -sp, lsl #26]
 784:	0000000e 	andeq	r0, r0, lr
 788:	00000020 	andeq	r0, r0, r0, lsr #32
 78c:	0000063c 	andeq	r0, r0, ip, lsr r6
 790:	00001f3c 	andeq	r1, r0, ip, lsr pc
 794:	000000bc 	strheq	r0, [r0], -ip
 798:	87080e41 	strhi	r0, [r8, -r1, asr #28]
 79c:	41018e02 	tstmi	r1, r2, lsl #28
 7a0:	0d41200e 	stcleq	0, cr2, [r1, #-56]	@ 0xffffffc8
                            if( pxTCB->uxPriority > pxCurrentTCB->uxPriority )
 7a4:	0e4d0207 	cdpeq	2, 4, cr0, cr13, cr7, {0}
 7a8:	0d0d4108 	stfeqs	f4, [sp, #-32]	@ 0xffffffe0
 7ac:	0000001c 	andeq	r0, r0, ip, lsl r0
 7b0:	0000063c 	andeq	r0, r0, ip, lsr r6
                                xYieldPendings[ xCoreID ] = pdTRUE;
 7b4:	00001ff8 	strdeq	r1, [r0], -r8
 7b8:	00000040 	andeq	r0, r0, r0, asr #32
                    while( listLIST_IS_EMPTY( &xPendingReadyList ) == pdFALSE )
 7bc:	87040e41 	strhi	r0, [r4, -r1, asr #28]
 7c0:	070d4101 	streq	r4, [sp, -r1, lsl #2]
 7c4:	410d0d51 	tstmi	sp, r1, asr sp
                    if( pxTCB != NULL )
 7c8:	00000ec7 	andeq	r0, r0, r7, asr #29
                        prvResetNextTaskUnblockTime();
 7cc:	0000000c 	andeq	r0, r0, ip
                        TickType_t xPendedCounts = xPendedTicks; /* Non-volatile copy. */
 7d0:	ffffffff 			@ <UNDEFINED> instruction: 0xffffffff
 7d4:	7c020001 	stcvc	0, cr0, [r2], {1}
                        if( xPendedCounts > ( TickType_t ) 0U )
 7d8:	000d0c0e 	andeq	r0, sp, lr, lsl #24
                                if( xTaskIncrementTick() != pdFALSE )
 7dc:	00000024 	andeq	r0, r0, r4, lsr #32
 7e0:	000007cc 	andeq	r0, r0, ip, asr #15
 7e4:	00002038 	andeq	r2, r0, r8, lsr r0
                                    xYieldPendings[ xCoreID ] = pdTRUE;
 7e8:	0000003a 	andeq	r0, r0, sl, lsr r0
 7ec:	87040e41 	strhi	r0, [r4, -r1, asr #28]
                                --xPendedCounts;
 7f0:	200e4101 	andcs	r4, lr, r1, lsl #2
 7f4:	57070d41 	strpl	r0, [r7, -r1, asr #26]
                            } while( xPendedCounts > ( TickType_t ) 0U );
 7f8:	0d41040e 	cfstrdeq	mvd0, [r1, #-56]	@ 0xffffffc8
                            xPendedTicks = 0;
 7fc:	0ec7410d 	poleqs	f4, f7, #5.0
 800:	00000000 	andeq	r0, r0, r0
                    if( xYieldPendings[ xCoreID ] != pdFALSE )
 804:	0000000c 	andeq	r0, r0, ip
 808:	ffffffff 			@ <UNDEFINED> instruction: 0xffffffff
 80c:	7c020001 	stcvc	0, cr0, [r2], {1}
                            xAlreadyYielded = pdTRUE;
 810:	000d0c0e 	andeq	r0, sp, lr, lsl #24
                            taskYIELD_TASK_CORE_IF_USING_PREEMPTION( pxCurrentTCB );
 814:	00000024 	andeq	r0, r0, r4, lsr #32
 818:	00000804 	andeq	r0, r0, r4, lsl #16
 81c:	00002074 	andeq	r2, r0, r4, ror r0
 820:	00000058 	andeq	r0, r0, r8, asr r0
 824:	87040e41 	strhi	r0, [r4, -r1, asr #28]
        taskEXIT_CRITICAL();
 828:	180e4101 	stmdane	lr, {r0, r8, lr}
}
 82c:	64070d41 	strvs	r0, [r7], #-3393	@ 0xfffff2bf
 830:	0d41040e 	cfstrdeq	mvd0, [r1, #-56]	@ 0xffffffc8
 834:	0ec7410d 	poleqs	f4, f7, #5.0
 838:	00000000 	andeq	r0, r0, r0
 83c:	00000024 	andeq	r0, r0, r4, lsr #32
 840:	00000804 	andeq	r0, r0, r4, lsl #16
 844:	000020cc 	andeq	r2, r0, ip, asr #1
 848:	00000032 	andeq	r0, r0, r2, lsr r0
 84c:	87040e41 	strhi	r0, [r4, -r1, asr #28]
 850:	100e4101 	andne	r4, lr, r1, lsl #2
 854:	53070d41 	movwpl	r0, #32065	@ 0x7d41
{
 858:	0d41040e 	cfstrdeq	mvd0, [r1, #-56]	@ 0xffffffc8
 85c:	0ec7410d 	poleqs	f4, f7, #5.0
        xTicks = xTickCount;
 860:	00000000 	andeq	r0, r0, r0
    return xTicks;
 864:	0000000c 	andeq	r0, r0, ip
}
 868:	00000804 	andeq	r0, r0, r4, lsl #16
 86c:	000020fe 	strdeq	r2, [r0], -lr
 870:	00000028 	andeq	r0, r0, r8, lsr #32
{
 874:	0000000c 	andeq	r0, r0, ip
 878:	00000804 	andeq	r0, r0, r4, lsl #16
    uxSavedInterruptStatus = portTICK_TYPE_SET_INTERRUPT_MASK_FROM_ISR();
 87c:	00002126 	andeq	r2, r0, r6, lsr #2
        xReturn = xTickCount;
 880:	00000020 	andeq	r0, r0, r0, lsr #32
    return xReturn;
 884:	00000020 	andeq	r0, r0, r0, lsr #32
}
 888:	00000804 	andeq	r0, r0, r4, lsl #16
 88c:	00002146 	andeq	r2, r0, r6, asr #2
 890:	0000005a 	andeq	r0, r0, sl, asr r0
{
 894:	87080e41 	strhi	r0, [r8, -r1, asr #28]
    return uxCurrentNumberOfTasks;
 898:	41018e02 	tstmi	r1, r2, lsl #28
}
 89c:	0d41100e 	stcleq	0, cr1, [r1, #-56]	@ 0xffffffc8
 8a0:	080e6007 	stmdaeq	lr, {r0, r1, r2, sp, lr}
 8a4:	000d0d41 	andeq	r0, sp, r1, asr #26
{
 8a8:	0000001c 	andeq	r0, r0, ip, lsl r0
 8ac:	00000804 	andeq	r0, r0, r4, lsl #16
    pxTCB = prvGetTCBFromHandle( xTaskToQuery );
 8b0:	000021a0 	andeq	r2, r0, r0, lsr #3
 8b4:	0000000c 	andeq	r0, r0, ip
 8b8:	87040e41 	strhi	r0, [r4, -r1, asr #28]
 8bc:	070d4101 	streq	r4, [sp, -r1, lsl #2]
    return &( pxTCB->pcTaskName[ 0 ] );
 8c0:	410d0d42 	tstmi	sp, r2, asr #26
}
 8c4:	00000ec7 	andeq	r0, r0, r7, asr #29
 8c8:	00000024 	andeq	r0, r0, r4, lsr #32
 8cc:	00000804 	andeq	r0, r0, r4, lsl #16
 8d0:	000021ac 	andeq	r2, r0, ip, lsr #3
{
 8d4:	00000034 	andeq	r0, r0, r4, lsr r0
 8d8:	87040e41 	strhi	r0, [r4, -r1, asr #28]
    vTaskSuspendAll();
 8dc:	100e4101 	andne	r4, lr, r1, lsl #2
    taskENTER_CRITICAL();
 8e0:	51070d41 	tstpl	r7, r1, asr #26
        xPendedTicks += xTicksToCatchUp;
 8e4:	0d41040e 	cfstrdeq	mvd0, [r1, #-56]	@ 0xffffffc8
 8e8:	0ec7410d 	poleqs	f4, f7, #5.0
 8ec:	00000000 	andeq	r0, r0, r0
    taskEXIT_CRITICAL();
 8f0:	00000024 	andeq	r0, r0, r4, lsr #32
    xYieldOccurred = xTaskResumeAll();
 8f4:	00000804 	andeq	r0, r0, r4, lsl #16
 8f8:	000021e0 	andeq	r2, r0, r0, ror #3
}
 8fc:	00000034 	andeq	r0, r0, r4, lsr r0
 900:	87040e41 	strhi	r0, [r4, -r1, asr #28]
 904:	100e4101 	andne	r4, lr, r1, lsl #2
{
 908:	51070d41 	tstpl	r7, r1, asr #26
 90c:	0d41040e 	cfstrdeq	mvd0, [r1, #-56]	@ 0xffffffc8
    BaseType_t xSwitchRequired = pdFALSE;
 910:	0ec7410d 	poleqs	f4, f7, #5.0
    if( uxSchedulerSuspended == ( UBaseType_t ) 0U )
 914:	00000000 	andeq	r0, r0, r0
 918:	0000000c 	andeq	r0, r0, ip
        const TickType_t xConstTickCount = xTickCount + ( TickType_t ) 1;
 91c:	00000804 	andeq	r0, r0, r4, lsl #16
 920:	00002214 	andeq	r2, r0, r4, lsl r2
        xTickCount = xConstTickCount;
 924:	00000046 	andeq	r0, r0, r6, asr #32
 928:	00000020 	andeq	r0, r0, r0, lsr #32
        if( xConstTickCount == ( TickType_t ) 0U )
 92c:	00000804 	andeq	r0, r0, r4, lsl #16
            taskSWITCH_DELAYED_LISTS();
 930:	0000225a 	andeq	r2, r0, sl, asr r2
 934:	00000046 	andeq	r0, r0, r6, asr #32
 938:	87080e41 	strhi	r0, [r8, -r1, asr #28]
 93c:	41018e02 	tstmi	r1, r2, lsl #28
 940:	0d41100e 	stcleq	0, cr1, [r1, #-56]	@ 0xffffffc8
 944:	080e5b07 	stmdaeq	lr, {r0, r1, r2, r8, r9, fp, ip, lr}
 948:	000d0d41 	andeq	r0, sp, r1, asr #26
 94c:	0000001c 	andeq	r0, r0, ip, lsl r0
 950:	00000804 	andeq	r0, r0, r4, lsl #16
        if( xConstTickCount >= xNextTaskUnblockTime )
 954:	000022a0 	andeq	r2, r0, r0, lsr #5
 958:	00000034 	andeq	r0, r0, r4, lsr r0
 95c:	87040e41 	strhi	r0, [r4, -r1, asr #28]
                if( listLIST_IS_EMPTY( pxDelayedTaskList ) != pdFALSE )
 960:	070d4101 	streq	r4, [sp, -r1, lsl #2]
 964:	410d0d4e 	tstmi	sp, lr, asr #26
                    xNextTaskUnblockTime = portMAX_DELAY;
 968:	00000ec7 	andeq	r0, r0, r7, asr #29
 96c:	0000000c 	andeq	r0, r0, ip
                    break;
 970:	ffffffff 			@ <UNDEFINED> instruction: 0xffffffff
                    pxTCB = listGET_OWNER_OF_HEAD_ENTRY( pxDelayedTaskList );
 974:	7c020001 	stcvc	0, cr0, [r2], {1}
 978:	000d0c0e 	andeq	r0, sp, lr, lsl #24
                    xItemValue = listGET_LIST_ITEM_VALUE( &( pxTCB->xStateListItem ) );
 97c:	00000024 	andeq	r0, r0, r4, lsr #32
 980:	0000096c 	andeq	r0, r0, ip, ror #18
                    if( xConstTickCount < xItemValue )
 984:	000022d4 	ldrdeq	r2, [r0], -r4
 988:	0000003e 	andeq	r0, r0, lr, lsr r0
                        xNextTaskUnblockTime = xItemValue;
 98c:	87040e41 	strhi	r0, [r4, -r1, asr #28]
                        break;
 990:	100e4101 	andne	r4, lr, r1, lsl #2
                    listREMOVE_ITEM( &( pxTCB->xStateListItem ) );
 994:	59070d41 	stmdbpl	r7, {r0, r6, r8, sl, fp}
 998:	0d41040e 	cfstrdeq	mvd0, [r1, #-56]	@ 0xffffffc8
 99c:	0ec7410d 	poleqs	f4, f7, #5.0
 9a0:	00000000 	andeq	r0, r0, r0
 9a4:	00000024 	andeq	r0, r0, r4, lsr #32
 9a8:	0000096c 	andeq	r0, r0, ip, ror #18
 9ac:	00002312 	andeq	r2, r0, r2, lsl r3
 9b0:	00000018 	andeq	r0, r0, r8, lsl r0
 9b4:	87040e41 	strhi	r0, [r4, -r1, asr #28]
 9b8:	100e4101 	andne	r4, lr, r1, lsl #2
 9bc:	46070d41 	strmi	r0, [r7], -r1, asr #26
 9c0:	0d41040e 	cfstrdeq	mvd0, [r1, #-56]	@ 0xffffffc8
 9c4:	0ec7410d 	poleqs	f4, f7, #5.0
 9c8:	00000000 	andeq	r0, r0, r0
 9cc:	00000024 	andeq	r0, r0, r4, lsr #32
                    if( listLIST_ITEM_CONTAINER( &( pxTCB->xEventListItem ) ) != NULL )
 9d0:	0000096c 	andeq	r0, r0, ip, ror #18
 9d4:	0000232a 	andeq	r2, r0, sl, lsr #6
                        listREMOVE_ITEM( &( pxTCB->xEventListItem ) );
 9d8:	00000046 	andeq	r0, r0, r6, asr #32
 9dc:	87040e41 	strhi	r0, [r4, -r1, asr #28]
 9e0:	180e4101 	stmdane	lr, {r0, r8, lr}
 9e4:	5d070d41 	stcpl	13, cr0, [r7, #-260]	@ 0xfffffefc
 9e8:	0d41040e 	cfstrdeq	mvd0, [r1, #-56]	@ 0xffffffc8
 9ec:	0ec7410d 	poleqs	f4, f7, #5.0
 9f0:	00000000 	andeq	r0, r0, r0
 9f4:	00000024 	andeq	r0, r0, r4, lsr #32
 9f8:	0000096c 	andeq	r0, r0, ip, ror #18
 9fc:	00002370 	andeq	r2, r0, r0, ror r3
 a00:	00000070 	andeq	r0, r0, r0, ror r0
 a04:	87040e41 	strhi	r0, [r4, -r1, asr #28]
 a08:	180e4101 	stmdane	lr, {r0, r8, lr}
 a0c:	72070d41 	andvc	r0, r7, #4160	@ 0x1040
 a10:	0d41040e 	cfstrdeq	mvd0, [r1, #-56]	@ 0xffffffc8
 a14:	0ec7410d 	poleqs	f4, f7, #5.0
                    prvAddTaskToReadyList( pxTCB );
 a18:	00000000 	andeq	r0, r0, r0
 a1c:	00000024 	andeq	r0, r0, r4, lsr #32
 a20:	0000096c 	andeq	r0, r0, ip, ror #18
 a24:	000023e0 	andeq	r2, r0, r0, ror #7
 a28:	00000052 	andeq	r0, r0, r2, asr r0
 a2c:	87040e41 	strhi	r0, [r4, -r1, asr #28]
 a30:	180e4101 	stmdane	lr, {r0, r8, lr}
 a34:	63070d41 	movwvs	r0, #32065	@ 0x7d41
 a38:	0d41040e 	cfstrdeq	mvd0, [r1, #-56]	@ 0xffffffc8
 a3c:	0ec7410d 	poleqs	f4, f7, #5.0
 a40:	00000000 	andeq	r0, r0, r0
